(lp0
(lp1
(lp2
ccopy_reg
_reconstructor
p3
(cqctoolkit.QM.qmcode.cpmd
out
p4
c__builtin__
object
p5
Ntp6
Rp7
(dp8
S'info'
p9
S''
p10
sS'name'
p11
S'hf_ref05.out'
p12
sS'energies'
p13
(dp14
sS'detail'
p15
(dp16
S'scf'
p17
(lp18
(lp19
S'1'
p20
aS'2.584E-02'
p21
aS'3.737E-03'
p22
aS'-23.224230'
p23
aS'0.000E+00'
p24
aS'25.51\n'
p25
aa(lp26
S'2'
p27
aS'3.607E-02'
p28
aS'1.595E-03'
p29
aS'-23.837886'
p30
aS'-6.137E-01'
p31
aS'24.64\n'
p32
aa(lp33
S'3'
p34
aS'1.043E-02'
p35
aS'9.030E-04'
p36
aS'-24.068095'
p37
aS'-2.302E-01'
p38
aS'25.09\n'
p39
aa(lp40
S'4'
p41
aS'6.369E-03'
p42
aS'5.882E-04'
p43
aS'-24.103866'
p44
aS'-3.577E-02'
p45
aS'24.76\n'
p46
aa(lp47
S'5'
p48
aS'5.215E-03'
p49
aS'3.202E-04'
p50
aS'-24.115806'
p51
aS'-1.194E-02'
p52
aS'25.18\n'
p53
aa(lp54
S'6'
p55
aS'3.808E-03'
p56
aS'1.353E-04'
p57
aS'-24.119428'
p58
aS'-3.622E-03'
p59
aS'25.21\n'
p60
aa(lp61
S'7'
p62
aS'1.569E-03'
p63
aS'7.050E-05'
p64
aS'-24.120087'
p65
aS'-6.591E-04'
p66
aS'25.06\n'
p67
aa(lp68
S'8'
p69
aS'7.783E-04'
p70
aS'4.117E-05'
p71
aS'-24.120224'
p72
aS'-1.368E-04'
p73
aS'24.09\n'
p74
aa(lp75
S'9'
p76
aS'3.876E-04'
p77
aS'1.631E-05'
p78
aS'-24.120279'
p79
aS'-5.534E-05'
p80
aS'24.40\n'
p81
aa(lp82
S'10'
p83
aS'1.717E-04'
p84
aS'5.870E-06'
p85
aS'-24.120289'
p86
aS'-9.936E-06'
p87
aS'24.37\n'
p88
aa(lp89
S'11'
p90
aS'6.772E-05'
p91
aS'2.735E-06'
p92
aS'-24.120290'
p93
aS'-1.274E-06'
p94
aS'24.17\n'
p95
aa(lp96
S'12'
p97
aS'2.694E-05'
p98
aS'1.396E-06'
p99
aS'-24.120291'
p100
aS'-2.552E-07'
p101
aS'24.74\n'
p102
aa(lp103
S'13'
p104
aS'1.414E-05'
p105
aS'8.007E-07'
p106
aS'-24.120291'
p107
aS'-6.460E-08'
p108
aS'24.56\n'
p109
aa(lp110
S'14'
p111
aS'6.430E-06'
p112
aS'3.800E-07'
p113
aS'-24.120291'
p114
aS'-2.706E-08'
p115
aS'25.09\n'
p116
aa(lp117
S'15'
p118
aS'3.779E-06'
p119
aS'2.259E-07'
p120
aS'-24.120291'
p121
aS'-6.439E-09'
p122
aS'24.39\n'
p123
aa(lp124
S'16'
p125
aS'2.658E-06'
p126
aS'1.128E-07'
p127
aS'-24.120291'
p128
aS'-1.956E-09'
p129
aS'23.39\n'
p130
aa(lp131
S'17'
p132
aS'1.025E-06'
p133
aS'4.659E-08'
p134
aS'-24.120291'
p135
aS'-6.178E-10'
p136
aS'22.36\n'
p137
aa(lp138
S'18'
p139
aS'1.362E-06'
p140
aS'3.068E-08'
p141
aS'-24.120291'
p142
aS'-5.811E-11'
p143
aS'21.80\n'
p144
aa(lp145
S'19'
p146
aS'4.944E-07'
p147
aS'1.763E-08'
p148
aS'-24.120291'
p149
aS'-5.150E-11'
p150
aS'19.54\n'
p151
aa(lp152
S'20'
p153
aS'1.942E-07'
p154
aS'9.553E-09'
p155
aS'-24.120291'
p156
aS'-1.828E-11'
p157
aS'19.48\n'
p158
aa(lp159
S'21'
p160
aS'1.723E-07'
p161
aS'4.815E-09'
p162
aS'-24.120291'
p163
aS'-3.766E-12'
p164
aS'19.52\n'
p165
aa(lp166
S'22'
p167
aS'7.782E-08'
p168
aS'2.820E-09'
p169
aS'-24.120291'
p170
aS'1.098E-11'
p171
aS'19.28\n'
p172
aasS'ESR'
p173
F3.19347022
sS'ELECTROSTATIC ENERGY'
p174
F-11.14749714
sS'EXCHANGE-CORRELATION ENERGY'
p175
F-5.6557124
sS'LOCAL PSEUDOPOTENTIAL ENERGY'
p176
F-30.64241843
sS'ESELF'
p177
F16.62259502
sS'GRADIENT CORRECTION ENERGY'
p178
F-0.14716203
sS'KINETIC ENERGY'
p179
F21.25602249
sS'TOTAL ENERGY'
p180
F-23.22423039
sS'N-L PSEUDOPOTENTIAL ENERGY'
p181
F2.9653751
ssS'nuclear_repulsion'
p182
Fnan
sS'molecule'
p183
g3
(cqctoolkit.molecule
Molecule
p184
g5
Ntp185
Rp186
(dp187
S'celldm'
p188
I00
sS've'
p189
cqctoolkit
_unpickle_method
p190
(S'getValenceElectrons'
p191
g186
g184
tp192
Rp193
sS'symmetry'
p194
I00
sS'prop_list'
p195
S'GEOMETRY FILE / created by CPMD\n'
p196
sS'ne'
p197
g190
(S'getTotalElectrons'
p198
g186
g184
tp199
Rp200
sS'bond_types'
p201
(dp202
sS'index'
p203
I0
sS'scale'
p204
I00
sS'segments'
p205
(lp206
sS'isolated'
p207
I00
sS'charge'
p208
I0
sS'string'
p209
(lp210
g10
ag10
asS'bonds'
p211
(dp212
sS'N'
p213
I2
sS'type_list'
p214
(lp215
S'H'
p216
aS'F'
p217
asS'R'
p218
cnumpy.core.multiarray
_reconstruct
p219
(cnumpy
ndarray
p220
(I0
tp221
S'b'
p222
tp223
Rp224
(I1
(I2
I3
tp225
cnumpy
dtype
p226
(S'f8'
p227
I0
I1
tp228
Rp229
(I3
S'<'
p230
NNNI-1
I-1
I0
tp231
bI00
S'\x00\x00\x00\x00\x00\x00\x00\x00\x00\x00\x00\x00\x00\x00\x00\x00\x00\x00\x00\x00\x00\x00\x00\x00\x07p\x9c\xdc\xff\xff\xdf?\x00\x00\x00\x00\x00\x00\x00\x00\x00\x00\x00\x00\x00\x00\x00\x00'
p232
tp233
bsS'grid'
p234
I00
sS'Z'
p235
g219
(g220
(I0
tp236
g222
tp237
Rp238
(I1
(I2
tp239
g229
I00
S'\x00\x00\x00\x00\x00\x00\xf0?\x00\x00\x00\x00\x00\x00"@'
p240
tp241
bsS'box'
p242
I00
sg11
S'H1F1'
p243
sS'multiplicity'
p244
I1
sS'periodic'
p245
I00
sS'R_scale'
p246
g219
(g220
(I0
tp247
g222
tp248
Rp249
(I1
(I1
I0
tp250
g229
I00
g10
tp251
bsbsS'special_kpoints'
p252
(dp253
S'G'
p254
(lp255
I0
aI0
aI0
asS'K'
p256
(lp257
F0.75
aF0.75
aI0
asS'L'
p258
(lp259
F0.5
aF0.5
aF0.5
asS'U'
p260
(lp261
F0.1
aF0.25
aF0.25
asS'W'
p262
(lp263
I1
aF0.25
aI0
asS'X'
p264
(lp265
I1
aI0
aI0
assS'stem'
p266
S'hf_ref05'
p267
sS'ext'
p268
S'.out'
p269
sS'path'
p270
S'/home/samio/project/a02_alchemy_diatomic/reproduce/production_refs/hf_ref05'
p271
sS'Et'
p272
F-24.12029079
sS'scf_step'
p273
I22
sS'unit'
p274
S'Eh'
p275
sbag3
(g4
g5
Ntp276
Rp277
(dp278
g9
g10
sg11
S'hf_ref06.out'
p279
sg13
(dp280
sg15
(dp281
g17
(lp282
(lp283
g20
aS'2.663E-02'
p284
aS'3.593E-03'
p285
aS'-23.692486'
p286
aS'0.000E+00'
p287
aS'32.42\n'
p288
aa(lp289
g27
aS'3.624E-02'
p290
aS'1.559E-03'
p291
aS'-24.256552'
p292
aS'-5.641E-01'
p293
aS'32.18\n'
p294
aa(lp295
g34
aS'9.289E-03'
p296
aS'8.796E-04'
p297
aS'-24.484139'
p298
aS'-2.276E-01'
p299
aS'31.84\n'
p300
aa(lp301
g41
aS'5.334E-03'
p302
aS'5.663E-04'
p303
aS'-24.518770'
p304
aS'-3.463E-02'
p305
aS'32.21\n'
p306
aa(lp307
g48
aS'5.095E-03'
p308
aS'3.040E-04'
p309
aS'-24.529893'
p310
aS'-1.112E-02'
p311
aS'31.37\n'
p312
aa(lp313
g55
aS'3.022E-03'
p314
aS'1.329E-04'
p315
aS'-24.533172'
p316
aS'-3.279E-03'
p317
aS'26.58\n'
p318
aa(lp319
g62
aS'1.249E-03'
p320
aS'7.035E-05'
p321
aS'-24.533783'
p322
aS'-6.115E-04'
p323
aS'26.06\n'
p324
aa(lp325
g69
aS'5.886E-04'
p326
aS'3.801E-05'
p327
aS'-24.533928'
p328
aS'-1.451E-04'
p329
aS'25.98\n'
p330
aa(lp331
g76
aS'2.315E-04'
p332
aS'1.382E-05'
p333
aS'-24.533979'
p334
aS'-5.129E-05'
p335
aS'26.23\n'
p336
aa(lp337
S'10'
p338
aS'9.764E-05'
p339
aS'5.224E-06'
p340
aS'-24.533987'
p341
aS'-7.562E-06'
p342
aS'25.71\n'
p343
aa(lp344
S'11'
p345
aS'4.204E-05'
p346
aS'2.689E-06'
p347
aS'-24.533988'
p348
aS'-1.211E-06'
p349
aS'24.97\n'
p350
aa(lp351
S'12'
p352
aS'2.527E-05'
p353
aS'1.375E-06'
p354
aS'-24.533989'
p355
aS'-3.722E-07'
p356
aS'24.48\n'
p357
aa(lp358
S'13'
p359
aS'1.476E-05'
p360
aS'7.862E-07'
p361
aS'-24.533989'
p362
aS'-1.158E-07'
p363
aS'24.50\n'
p364
aa(lp365
S'14'
p366
aS'6.546E-06'
p367
aS'3.823E-07'
p368
aS'-24.533989'
p369
aS'-4.680E-08'
p370
aS'22.87\n'
p371
aa(lp372
S'15'
p373
aS'4.373E-06'
p374
aS'2.216E-07'
p375
aS'-24.533989'
p376
aS'-1.061E-08'
p377
aS'22.61\n'
p378
aa(lp379
S'16'
p380
aS'4.078E-06'
p381
aS'1.006E-07'
p382
aS'-24.533989'
p383
aS'-2.017E-09'
p384
aS'21.07\n'
p385
aa(lp386
S'17'
p387
aS'1.959E-06'
p388
aS'6.027E-08'
p389
aS'-24.533989'
p390
aS'-4.748E-10'
p391
aS'19.60\n'
p392
aa(lp393
S'18'
p394
aS'1.332E-06'
p395
aS'3.570E-08'
p396
aS'-24.533989'
p397
aS'-1.327E-10'
p398
aS'18.64\n'
p399
aa(lp400
S'19'
p401
aS'3.755E-07'
p402
aS'2.008E-08'
p403
aS'-24.533989'
p404
aS'-6.479E-11'
p405
aS'18.49\n'
p406
aa(lp407
S'20'
p408
aS'2.452E-07'
p409
aS'1.123E-08'
p410
aS'-24.533989'
p411
aS'-6.342E-12'
p412
aS'18.68\n'
p413
aa(lp414
S'21'
p415
aS'1.210E-07'
p416
aS'4.866E-09'
p417
aS'-24.533989'
p418
aS'-1.062E-11'
p419
aS'17.86\n'
p420
aa(lp421
S'22'
p422
aS'6.055E-08'
p423
aS'3.048E-09'
p424
aS'-24.533989'
p425
aS'2.700E-13'
p426
aS'17.71\n'
p427
aasS'ESR'
p428
F2.1282639
sS'ELECTROSTATIC ENERGY'
p429
F-12.33170987
sS'EXCHANGE-CORRELATION ENERGY'
p430
F-5.56316631
sS'LOCAL PSEUDOPOTENTIAL ENERGY'
p431
F-29.41368684
sS'ESELF'
p432
F16.62259502
sS'GRADIENT CORRECTION ENERGY'
p433
F-0.14411839
sS'KINETIC ENERGY'
p434
F20.70089236
sS'TOTAL ENERGY'
p435
F-23.69248604
sS'N-L PSEUDOPOTENTIAL ENERGY'
p436
F2.91518462
ssg182
Fnan
sg183
g3
(g184
g5
Ntp437
Rp438
(dp439
g188
I00
sg189
g190
(g191
g438
g184
tp440
Rp441
sg194
I00
sg195
S'GEOMETRY FILE / created by CPMD\n'
p442
sg197
g190
(g198
g438
g184
tp443
Rp444
sg201
(dp445
sg203
I0
sg204
I00
sg205
(lp446
sg207
I00
sg208
I0
sg209
(lp447
g10
ag10
asg211
(dp448
sg213
I2
sg214
(lp449
g216
ag217
asg218
g219
(g220
(I0
tp450
g222
tp451
Rp452
(I1
(I2
I3
tp453
g229
I00
S'\x00\x00\x00\x00\x00\x00\x00\x00\x00\x00\x00\x00\x00\x00\x00\x00\x00\x00\x00\x00\x00\x00\x00\x00\x93I\x9b\x8f33\xe3?\x00\x00\x00\x00\x00\x00\x00\x00\x00\x00\x00\x00\x00\x00\x00\x00'
p454
tp455
bsg234
I00
sg235
g219
(g220
(I0
tp456
g222
tp457
Rp458
(I1
(I2
tp459
g229
I00
S'\x00\x00\x00\x00\x00\x00\xf0?\x00\x00\x00\x00\x00\x00"@'
p460
tp461
bsg242
I00
sg11
S'H1F1'
p462
sg244
I1
sg245
I00
sg246
g219
(g220
(I0
tp463
g222
tp464
Rp465
(I1
(I1
I0
tp466
g229
I00
g10
tp467
bsbsg252
(dp468
g254
(lp469
I0
aI0
aI0
asg256
(lp470
F0.75
aF0.75
aI0
asg258
(lp471
F0.5
aF0.5
aF0.5
asg260
(lp472
F0.1
aF0.25
aF0.25
asg262
(lp473
I1
aF0.25
aI0
asg264
(lp474
I1
aI0
aI0
assg266
S'hf_ref06'
p475
sg268
S'.out'
p476
sg270
S'/home/samio/project/a02_alchemy_diatomic/reproduce/production_refs/hf_ref06'
p477
sg272
F-24.53398874
sg273
I22
sg274
g275
sbag3
(g4
g5
Ntp478
Rp479
(dp480
g9
g10
sg11
S'hf_ref07.out'
p481
sg13
(dp482
sg15
(dp483
g17
(lp484
(lp485
g20
aS'2.837E-02'
p486
aS'3.488E-03'
p487
aS'-23.927911'
p488
aS'0.000E+00'
p489
aS'24.01\n'
p490
aa(lp491
g27
aS'3.434E-02'
p492
aS'1.536E-03'
p493
aS'-24.446704'
p494
aS'-5.188E-01'
p495
aS'23.61\n'
p496
aa(lp497
g34
aS'9.417E-03'
p498
aS'8.733E-04'
p499
aS'-24.671045'
p500
aS'-2.243E-01'
p501
aS'22.88\n'
p502
aa(lp503
g41
aS'4.553E-03'
p504
aS'5.577E-04'
p505
aS'-24.705712'
p506
aS'-3.467E-02'
p507
aS'23.39\n'
p508
aa(lp509
g48
aS'4.380E-03'
p510
aS'2.910E-04'
p511
aS'-24.716768'
p512
aS'-1.106E-02'
p513
aS'24.03\n'
p514
aa(lp515
g55
aS'2.283E-03'
p516
aS'1.299E-04'
p517
aS'-24.719860'
p518
aS'-3.092E-03'
p519
aS'23.46\n'
p520
aa(lp521
g62
aS'9.258E-04'
p522
aS'6.938E-05'
p523
aS'-24.720439'
p524
aS'-5.793E-04'
p525
aS'23.65\n'
p526
aa(lp527
g69
aS'4.302E-04'
p528
aS'3.574E-05'
p529
aS'-24.720590'
p530
aS'-1.509E-04'
p531
aS'23.20\n'
p532
aa(lp533
g76
aS'1.647E-04'
p534
aS'1.261E-05'
p535
aS'-24.720640'
p536
aS'-4.996E-05'
p537
aS'22.96\n'
p538
aa(lp539
S'10'
p540
aS'8.208E-05'
p541
aS'5.566E-06'
p542
aS'-24.720648'
p543
aS'-7.600E-06'
p544
aS'23.87\n'
p545
aa(lp546
S'11'
p547
aS'3.279E-05'
p548
aS'3.401E-06'
p549
aS'-24.720650'
p550
aS'-1.930E-06'
p551
aS'23.60\n'
p552
aa(lp553
S'12'
p554
aS'2.888E-05'
p555
aS'1.548E-06'
p556
aS'-24.720650'
p557
aS'-8.645E-07'
p558
aS'24.10\n'
p559
aa(lp560
S'13'
p561
aS'1.792E-05'
p562
aS'8.122E-07'
p563
aS'-24.720651'
p564
aS'-1.988E-07'
p565
aS'22.99\n'
p566
aa(lp567
S'14'
p568
aS'6.745E-06'
p569
aS'4.076E-07'
p570
aS'-24.720651'
p571
aS'-6.057E-08'
p572
aS'23.07\n'
p573
aa(lp574
S'15'
p575
aS'2.998E-06'
p576
aS'2.165E-07'
p577
aS'-24.720651'
p578
aS'-8.419E-09'
p579
aS'22.69\n'
p580
aa(lp581
S'16'
p582
aS'2.973E-06'
p583
aS'8.638E-08'
p584
aS'-24.720651'
p585
aS'-1.572E-09'
p586
aS'22.66\n'
p587
aa(lp588
S'17'
p589
aS'1.622E-06'
p590
aS'5.276E-08'
p591
aS'-24.720651'
p592
aS'-2.795E-10'
p593
aS'21.93\n'
p594
aa(lp595
S'18'
p596
aS'6.089E-07'
p597
aS'2.744E-08'
p598
aS'-24.720651'
p599
aS'-1.213E-10'
p600
aS'20.71\n'
p601
aa(lp602
S'19'
p603
aS'1.964E-07'
p604
aS'1.627E-08'
p605
aS'-24.720651'
p606
aS'-2.186E-11'
p607
aS'20.96\n'
p608
aa(lp609
S'20'
p610
aS'1.588E-07'
p611
aS'7.064E-09'
p612
aS'-24.720651'
p613
aS'-8.104E-12'
p614
aS'19.45\n'
p615
aa(lp616
S'21'
p617
aS'5.929E-08'
p618
aS'4.073E-09'
p619
aS'-24.720651'
p620
aS'-4.885E-12'
p621
aS'19.10\n'
p622
aasS'ESR'
p623
F1.43043893
sS'ELECTROSTATIC ENERGY'
p624
F-13.1492902
sS'EXCHANGE-CORRELATION ENERGY'
p625
F-5.47033567
sS'LOCAL PSEUDOPOTENTIAL ENERGY'
p626
F-28.38286791
sS'ESELF'
p627
F16.62259502
sS'GRADIENT CORRECTION ENERGY'
p628
F-0.1414301
sS'KINETIC ENERGY'
p629
F20.17396626
sS'TOTAL ENERGY'
p630
F-23.92791086
sS'N-L PSEUDOPOTENTIAL ENERGY'
p631
F2.90061666
ssg182
Fnan
sg183
g3
(g184
g5
Ntp632
Rp633
(dp634
g188
I00
sg189
g190
(g191
g633
g184
tp635
Rp636
sg194
I00
sg195
S'GEOMETRY FILE / created by CPMD\n'
p637
sg197
g190
(g198
g633
g184
tp638
Rp639
sg201
(dp640
sg203
I0
sg204
I00
sg205
(lp641
sg207
I00
sg208
I0
sg209
(lp642
g10
ag10
asg211
(dp643
sg213
I2
sg214
(lp644
g216
ag217
asg218
g219
(g220
(I0
tp645
g222
tp646
Rp647
(I1
(I2
I3
tp648
g229
I00
S'\x00\x00\x00\x00\x00\x00\x00\x00\x00\x00\x00\x00\x00\x00\x00\x00\x00\x00\x00\x00\x00\x00\x00\x00=\xcb\xce\x14ff\xe6?\x00\x00\x00\x00\x00\x00\x00\x00\x00\x00\x00\x00\x00\x00\x00\x00'
p649
tp650
bsg234
I00
sg235
g219
(g220
(I0
tp651
g222
tp652
Rp653
(I1
(I2
tp654
g229
I00
S'\x00\x00\x00\x00\x00\x00\xf0?\x00\x00\x00\x00\x00\x00"@'
p655
tp656
bsg242
I00
sg11
S'H1F1'
p657
sg244
I1
sg245
I00
sg246
g219
(g220
(I0
tp658
g222
tp659
Rp660
(I1
(I1
I0
tp661
g229
I00
g10
tp662
bsbsg252
(dp663
g254
(lp664
I0
aI0
aI0
asg256
(lp665
F0.75
aF0.75
aI0
asg258
(lp666
F0.5
aF0.5
aF0.5
asg260
(lp667
F0.1
aF0.25
aF0.25
asg262
(lp668
I1
aF0.25
aI0
asg264
(lp669
I1
aI0
aI0
assg266
S'hf_ref07'
p670
sg268
S'.out'
p671
sg270
S'/home/samio/project/a02_alchemy_diatomic/reproduce/production_refs/hf_ref07'
p672
sg272
F-24.72065072
sg273
I21
sg274
g275
sbag3
(g4
g5
Ntp673
Rp674
(dp675
g9
g10
sg11
S'hf_ref08.out'
p676
sg13
(dp677
sg15
(dp678
g17
(lp679
(lp680
g20
aS'2.829E-02'
p681
aS'3.416E-03'
p682
aS'-24.047883'
p683
aS'0.000E+00'
p684
aS'20.98\n'
p685
aa(lp686
g27
aS'3.178E-02'
p687
aS'1.518E-03'
p688
aS'-24.527481'
p689
aS'-4.796E-01'
p690
aS'20.44\n'
p691
aa(lp692
g34
aS'9.524E-03'
p693
aS'8.734E-04'
p694
aS'-24.747899'
p695
aS'-2.204E-01'
p696
aS'20.48\n'
p697
aa(lp698
g41
aS'4.711E-03'
p699
aS'5.520E-04'
p700
aS'-24.783036'
p701
aS'-3.514E-02'
p702
aS'20.89\n'
p703
aa(lp704
g48
aS'4.910E-03'
p705
aS'2.759E-04'
p706
aS'-24.794341'
p707
aS'-1.130E-02'
p708
aS'20.63\n'
p709
aa(lp710
g55
aS'2.455E-03'
p711
aS'1.223E-04'
p712
aS'-24.797298'
p713
aS'-2.957E-03'
p714
aS'21.28\n'
p715
aa(lp716
g62
aS'9.676E-04'
p717
aS'6.560E-05'
p718
aS'-24.797840'
p719
aS'-5.426E-04'
p720
aS'21.14\n'
p721
aa(lp722
g69
aS'4.960E-04'
p723
aS'3.265E-05'
p724
aS'-24.797994'
p725
aS'-1.535E-04'
p726
aS'21.68\n'
p727
aa(lp728
g76
aS'1.956E-04'
p729
aS'1.190E-05'
p730
aS'-24.798045'
p731
aS'-5.118E-05'
p732
aS'21.00\n'
p733
aa(lp734
S'10'
p735
aS'9.980E-05'
p736
aS'6.975E-06'
p737
aS'-24.798054'
p738
aS'-9.533E-06'
p739
aS'21.02\n'
p740
aa(lp741
S'11'
p742
aS'5.249E-05'
p743
aS'4.696E-06'
p744
aS'-24.798058'
p745
aS'-3.680E-06'
p746
aS'21.04\n'
p747
aa(lp748
S'12'
p749
aS'3.859E-05'
p750
aS'1.831E-06'
p751
aS'-24.798060'
p752
aS'-1.517E-06'
p753
aS'20.77\n'
p754
aa(lp755
S'13'
p756
aS'2.318E-05'
p757
aS'7.728E-07'
p758
aS'-24.798060'
p759
aS'-1.844E-07'
p760
aS'21.47\n'
p761
aa(lp762
S'14'
p763
aS'7.313E-06'
p764
aS'4.044E-07'
p765
aS'-24.798060'
p766
aS'-4.453E-08'
p767
aS'21.12\n'
p768
aa(lp769
S'15'
p770
aS'3.141E-06'
p771
aS'1.953E-07'
p772
aS'-24.798060'
p773
aS'-5.614E-09'
p774
aS'20.25\n'
p775
aa(lp776
S'16'
p777
aS'1.987E-06'
p778
aS'7.106E-08'
p779
aS'-24.798060'
p780
aS'-1.220E-09'
p781
aS'20.37\n'
p782
aa(lp783
S'17'
p784
aS'1.196E-06'
p785
aS'3.870E-08'
p786
aS'-24.798060'
p787
aS'-1.669E-10'
p788
aS'20.83\n'
p789
aa(lp790
S'18'
p791
aS'4.013E-07'
p792
aS'1.832E-08'
p793
aS'-24.798060'
p794
aS'-6.299E-11'
p795
aS'20.59\n'
p796
aa(lp797
S'19'
p798
aS'1.615E-07'
p799
aS'1.119E-08'
p800
aS'-24.798060'
p801
aS'-1.270E-11'
p802
aS'19.96\n'
p803
aa(lp804
S'20'
p805
aS'1.133E-07'
p806
aS'4.553E-09'
p807
aS'-24.798060'
p808
aS'-3.830E-12'
p809
aS'19.76\n'
p810
aa(lp811
S'21'
p812
aS'5.987E-08'
p813
aS'2.870E-09'
p814
aS'-24.798060'
p815
aS'-7.432E-12'
p816
aS'19.77\n'
p817
aasS'ESR'
p818
F0.96187658
sS'ELECTROSTATIC ENERGY'
p819
F-13.72619991
sS'EXCHANGE-CORRELATION ENERGY'
p820
F-5.38472393
sS'LOCAL PSEUDOPOTENTIAL ENERGY'
p821
F-27.5614805
sS'ESELF'
p822
F16.62259502
sS'GRADIENT CORRECTION ENERGY'
p823
F-0.13945813
sS'KINETIC ENERGY'
p824
F19.71452656
sS'TOTAL ENERGY'
p825
F-24.04788252
sS'N-L PSEUDOPOTENTIAL ENERGY'
p826
F2.90999526
ssg182
Fnan
sg183
g3
(g184
g5
Ntp827
Rp828
(dp829
g188
I00
sg189
g190
(g191
g828
g184
tp830
Rp831
sg194
I00
sg195
S'GEOMETRY FILE / created by CPMD\n'
p832
sg197
g190
(g198
g828
g184
tp833
Rp834
sg201
(dp835
sg203
I0
sg204
I00
sg205
(lp836
sg207
I00
sg208
I0
sg209
(lp837
g10
ag10
asg211
(dp838
sg213
I2
sg214
(lp839
g216
ag217
asg218
g219
(g220
(I0
tp840
g222
tp841
Rp842
(I1
(I2
I3
tp843
g229
I00
S'\x00\x00\x00\x00\x00\x00\x00\x00\x00\x00\x00\x00\x00\x00\x00\x00\x00\x00\x00\x00\x00\x00\x00\x00\xcd\xdc\x1b\xb6\x99\x99\xe9?\x00\x00\x00\x00\x00\x00\x00\x00\x00\x00\x00\x00\x00\x00\x00\x00'
p844
tp845
bsg234
I00
sg235
g219
(g220
(I0
tp846
g222
tp847
Rp848
(I1
(I2
tp849
g229
I00
S'\x00\x00\x00\x00\x00\x00\xf0?\x00\x00\x00\x00\x00\x00"@'
p850
tp851
bsg242
I00
sg11
S'H1F1'
p852
sg244
I1
sg245
I00
sg246
g219
(g220
(I0
tp853
g222
tp854
Rp855
(I1
(I1
I0
tp856
g229
I00
g10
tp857
bsbsg252
(dp858
g254
(lp859
I0
aI0
aI0
asg256
(lp860
F0.75
aF0.75
aI0
asg258
(lp861
F0.5
aF0.5
aF0.5
asg260
(lp862
F0.1
aF0.25
aF0.25
asg262
(lp863
I1
aF0.25
aI0
asg264
(lp864
I1
aI0
aI0
assg266
S'hf_ref08'
p865
sg268
S'.out'
p866
sg270
S'/home/samio/project/a02_alchemy_diatomic/reproduce/production_refs/hf_ref08'
p867
sg272
F-24.79805987
sg273
I21
sg274
g275
sbag3
(g4
g5
Ntp868
Rp869
(dp870
g9
g10
sg11
S'hf_ref09.out'
p871
sg13
(dp872
sg15
(dp873
g17
(lp874
(lp875
g20
aS'2.792E-02'
p876
aS'3.365E-03'
p877
aS'-24.107574'
p878
aS'0.000E+00'
p879
aS'22.67\n'
p880
aa(lp881
g27
aS'2.940E-02'
p882
aS'1.501E-03'
p883
aS'-24.555918'
p884
aS'-4.483E-01'
p885
aS'22.43\n'
p886
aa(lp887
g34
aS'1.175E-02'
p888
aS'8.745E-04'
p889
aS'-24.771099'
p890
aS'-2.152E-01'
p891
aS'21.93\n'
p892
aa(lp893
g41
aS'5.678E-03'
p894
aS'5.439E-04'
p895
aS'-24.806626'
p896
aS'-3.553E-02'
p897
aS'22.70\n'
p898
aa(lp899
g48
aS'6.115E-03'
p900
aS'2.593E-04'
p901
aS'-24.818212'
p902
aS'-1.159E-02'
p903
aS'23.39\n'
p904
aa(lp905
g55
aS'2.836E-03'
p906
aS'1.130E-04'
p907
aS'-24.821082'
p908
aS'-2.870E-03'
p909
aS'23.22\n'
p910
aa(lp911
g62
aS'1.116E-03'
p912
aS'6.082E-05'
p913
aS'-24.821609'
p914
aS'-5.264E-04'
p915
aS'23.35\n'
p916
aa(lp917
g69
aS'6.005E-04'
p918
aS'2.953E-05'
p919
aS'-24.821773'
p920
aS'-1.637E-04'
p921
aS'22.65\n'
p922
aa(lp923
g76
aS'2.606E-04'
p924
aS'1.278E-05'
p925
aS'-24.821831'
p926
aS'-5.805E-05'
p927
aS'22.56\n'
p928
aa(lp929
S'10'
p930
aS'1.487E-04'
p931
aS'9.618E-06'
p932
aS'-24.821844'
p933
aS'-1.350E-05'
p934
aS'23.02\n'
p935
aa(lp936
S'11'
p937
aS'7.764E-05'
p938
aS'5.941E-06'
p939
aS'-24.821850'
p940
aS'-5.998E-06'
p941
aS'23.10\n'
p942
aa(lp943
S'12'
p944
aS'4.674E-05'
p945
aS'2.047E-06'
p946
aS'-24.821852'
p947
aS'-1.801E-06'
p948
aS'22.99\n'
p949
aa(lp950
S'13'
p951
aS'2.325E-05'
p952
aS'7.080E-07'
p953
aS'-24.821852'
p954
aS'-1.605E-07'
p955
aS'22.80\n'
p956
aa(lp957
S'14'
p958
aS'6.689E-06'
p959
aS'3.852E-07'
p960
aS'-24.821852'
p961
aS'-2.569E-08'
p962
aS'22.30\n'
p963
aa(lp964
S'15'
p965
aS'2.868E-06'
p966
aS'1.707E-07'
p967
aS'-24.821852'
p968
aS'-4.092E-09'
p969
aS'22.87\n'
p970
aa(lp971
S'16'
p972
aS'1.248E-06'
p973
aS'5.908E-08'
p974
aS'-24.821852'
p975
aS'-9.436E-10'
p976
aS'22.69\n'
p977
aa(lp978
S'17'
p979
aS'8.901E-07'
p980
aS'2.714E-08'
p981
aS'-24.821852'
p982
aS'-1.004E-10'
p983
aS'21.60\n'
p984
aa(lp985
S'18'
p986
aS'2.262E-07'
p987
aS'1.372E-08'
p988
aS'-24.821852'
p989
aS'-3.405E-11'
p990
aS'20.74\n'
p991
aa(lp992
S'19'
p993
aS'1.896E-07'
p994
aS'7.469E-09'
p995
aS'-24.821852'
p996
aS'-2.007E-12'
p997
aS'20.73\n'
p998
aa(lp999
S'20'
p1000
aS'7.855E-08'
p1001
aS'3.175E-09'
p1002
aS'-24.821852'
p1003
aS'-5.663E-12'
p1004
aS'19.55\n'
p1005
aasS'ESR'
p1006
F0.64370157
sS'ELECTROSTATIC ENERGY'
p1007
F-14.14180105
sS'EXCHANGE-CORRELATION ENERGY'
p1008
F-5.30747411
sS'LOCAL PSEUDOPOTENTIAL ENERGY'
p1009
F-26.91258897
sS'ESELF'
p1010
F16.62259502
sS'GRADIENT CORRECTION ENERGY'
p1011
F-0.13827537
sS'KINETIC ENERGY'
p1012
F19.32259858
sS'TOTAL ENERGY'
p1013
F-24.10757385
sS'N-L PSEUDOPOTENTIAL ENERGY'
p1014
F2.9316917
ssg182
Fnan
sg183
g3
(g184
g5
Ntp1015
Rp1016
(dp1017
g188
I00
sg189
g190
(g191
g1016
g184
tp1018
Rp1019
sg194
I00
sg195
S'GEOMETRY FILE / created by CPMD\n'
p1020
sg197
g190
(g198
g1016
g184
tp1021
Rp1022
sg201
(dp1023
sg203
I0
sg204
I00
sg205
(lp1024
sg207
I00
sg208
I0
sg209
(lp1025
g10
ag10
asg211
(dp1026
sg213
I2
sg214
(lp1027
g216
ag217
asg218
g219
(g220
(I0
tp1028
g222
tp1029
Rp1030
(I1
(I2
I3
tp1031
g229
I00
S'\x00\x00\x00\x00\x00\x00\x00\x00\x00\x00\x00\x00\x00\x00\x00\x00\x00\x00\x00\x00\x00\x00\x00\x00\\\xeehW\xcd\xcc\xec?\x00\x00\x00\x00\x00\x00\x00\x00\x00\x00\x00\x00\x00\x00\x00\x00'
p1032
tp1033
bsg234
I00
sg235
g219
(g220
(I0
tp1034
g222
tp1035
Rp1036
(I1
(I2
tp1037
g229
I00
S'\x00\x00\x00\x00\x00\x00\xf0?\x00\x00\x00\x00\x00\x00"@'
p1038
tp1039
bsg242
I00
sg11
S'H1F1'
p1040
sg244
I1
sg245
I00
sg246
g219
(g220
(I0
tp1041
g222
tp1042
Rp1043
(I1
(I1
I0
tp1044
g229
I00
g10
tp1045
bsbsg252
(dp1046
g254
(lp1047
I0
aI0
aI0
asg256
(lp1048
F0.75
aF0.75
aI0
asg258
(lp1049
F0.5
aF0.5
aF0.5
asg260
(lp1050
F0.1
aF0.25
aF0.25
asg262
(lp1051
I1
aF0.25
aI0
asg264
(lp1052
I1
aI0
aI0
assg266
S'hf_ref09'
p1053
sg268
S'.out'
p1054
sg270
S'/home/samio/project/a02_alchemy_diatomic/reproduce/production_refs/hf_ref09'
p1055
sg272
F-24.82185205
sg273
I20
sg274
g275
sbag3
(g4
g5
Ntp1056
Rp1057
(dp1058
g9
g10
sg11
S'hf_ref10.out'
p1059
sg13
(dp1060
sg15
(dp1061
g17
(lp1062
(lp1063
g20
aS'2.734E-02'
p1064
aS'3.329E-03'
p1065
aS'-24.134078'
p1066
aS'0.000E+00'
p1067
aS'21.72\n'
p1068
aa(lp1069
g27
aS'3.139E-02'
p1070
aS'1.485E-03'
p1071
aS'-24.558473'
p1072
aS'-4.244E-01'
p1073
aS'21.54\n'
p1074
aa(lp1075
g34
aS'1.130E-02'
p1076
aS'8.774E-04'
p1077
aS'-24.767296'
p1078
aS'-2.088E-01'
p1079
aS'21.23\n'
p1080
aa(lp1081
g41
aS'5.943E-03'
p1082
aS'5.361E-04'
p1083
aS'-24.803307'
p1084
aS'-3.601E-02'
p1085
aS'21.31\n'
p1086
aa(lp1087
g48
aS'6.579E-03'
p1088
aS'2.456E-04'
p1089
aS'-24.815305'
p1090
aS'-1.200E-02'
p1091
aS'21.27\n'
p1092
aa(lp1093
g55
aS'2.924E-03'
p1094
aS'1.047E-04'
p1095
aS'-24.818216'
p1096
aS'-2.911E-03'
p1097
aS'21.56\n'
p1098
aa(lp1099
g62
aS'1.202E-03'
p1100
aS'5.675E-05'
p1101
aS'-24.818760'
p1102
aS'-5.440E-04'
p1103
aS'21.67\n'
p1104
aa(lp1105
g69
aS'7.385E-04'
p1106
aS'2.773E-05'
p1107
aS'-24.818950'
p1108
aS'-1.895E-04'
p1109
aS'21.50\n'
p1110
aa(lp1111
g76
aS'3.503E-04'
p1112
aS'1.612E-05'
p1113
aS'-24.819020'
p1114
aS'-7.012E-05'
p1115
aS'21.50\n'
p1116
aa(lp1117
S'10'
p1118
aS'2.041E-04'
p1119
aS'1.237E-05'
p1120
aS'-24.819038'
p1121
aS'-1.873E-05'
p1122
aS'21.53\n'
p1123
aa(lp1124
S'11'
p1125
aS'9.325E-05'
p1126
aS'6.537E-06'
p1127
aS'-24.819046'
p1128
aS'-7.959E-06'
p1129
aS'21.61\n'
p1130
aa(lp1131
S'12'
p1132
aS'5.194E-05'
p1133
aS'2.104E-06'
p1134
aS'-24.819048'
p1135
aS'-1.764E-06'
p1136
aS'21.48\n'
p1137
aa(lp1138
S'13'
p1139
aS'2.441E-05'
p1140
aS'6.757E-07'
p1141
aS'-24.819048'
p1142
aS'-1.499E-07'
p1143
aS'21.48\n'
p1144
aa(lp1145
S'14'
p1146
aS'6.531E-06'
p1147
aS'3.916E-07'
p1148
aS'-24.819048'
p1149
aS'-1.631E-08'
p1150
aS'21.35\n'
p1151
aa(lp1152
S'15'
p1153
aS'3.155E-06'
p1154
aS'1.625E-07'
p1155
aS'-24.819048'
p1156
aS'-3.971E-09'
p1157
aS'21.42\n'
p1158
aa(lp1159
S'16'
p1160
aS'1.246E-06'
p1161
aS'5.661E-08'
p1162
aS'-24.819048'
p1163
aS'-9.191E-10'
p1164
aS'21.47\n'
p1165
aa(lp1166
S'17'
p1167
aS'8.034E-07'
p1168
aS'2.609E-08'
p1169
aS'-24.819048'
p1170
aS'-1.128E-10'
p1171
aS'21.39\n'
p1172
aa(lp1173
S'18'
p1174
aS'1.502E-07'
p1175
aS'1.439E-08'
p1176
aS'-24.819048'
p1177
aS'-2.802E-11'
p1178
aS'21.33\n'
p1179
aa(lp1180
S'19'
p1181
aS'1.683E-07'
p1182
aS'7.465E-09'
p1183
aS'-24.819048'
p1184
aS'-9.575E-12'
p1185
aS'20.58\n'
p1186
aa(lp1187
S'20'
p1188
aS'7.803E-08'
p1189
aS'4.119E-09'
p1190
aS'-24.819048'
p1191
aS'3.215E-12'
p1192
aS'20.21\n'
p1193
aasS'ESR'
p1194
F0.42713276
sS'ELECTROSTATIC ENERGY'
p1195
F-14.44822997
sS'EXCHANGE-CORRELATION ENERGY'
p1196
F-5.23769886
sS'LOCAL PSEUDOPOTENTIAL ENERGY'
p1197
F-26.39217227
sS'ESELF'
p1198
F16.62259502
sS'GRADIENT CORRECTION ENERGY'
p1199
F-0.13783526
sS'KINETIC ENERGY'
p1200
F18.9868058
sS'TOTAL ENERGY'
p1201
F-24.13407834
sS'N-L PSEUDOPOTENTIAL ENERGY'
p1202
F2.95721697
ssg182
Fnan
sg183
g3
(g184
g5
Ntp1203
Rp1204
(dp1205
g188
I00
sg189
g190
(g191
g1204
g184
tp1206
Rp1207
sg194
I00
sg195
S'GEOMETRY FILE / created by CPMD\n'
p1208
sg197
g190
(g198
g1204
g184
tp1209
Rp1210
sg201
(dp1211
sg203
I0
sg204
I00
sg205
(lp1212
sg207
I00
sg208
I0
sg209
(lp1213
g10
ag10
asg211
(dp1214
sg213
I2
sg214
(lp1215
g216
ag217
asg218
g219
(g220
(I0
tp1216
g222
tp1217
Rp1218
(I1
(I2
I3
tp1219
g229
I00
S'\x00\x00\x00\x00\x00\x00\x00\x00\x00\x00\x00\x00\x00\x00\x00\x00\x00\x00\x00\x00\x00\x00\x00\x00\x07p\x9c\xdc\xff\xff\xef?\x00\x00\x00\x00\x00\x00\x00\x00\x00\x00\x00\x00\x00\x00\x00\x00'
p1220
tp1221
bsg234
I00
sg235
g219
(g220
(I0
tp1222
g222
tp1223
Rp1224
(I1
(I2
tp1225
g229
I00
S'\x00\x00\x00\x00\x00\x00\xf0?\x00\x00\x00\x00\x00\x00"@'
p1226
tp1227
bsg242
I00
sg11
S'H1F1'
p1228
sg244
I1
sg245
I00
sg246
g219
(g220
(I0
tp1229
g222
tp1230
Rp1231
(I1
(I1
I0
tp1232
g229
I00
g10
tp1233
bsbsg252
(dp1234
g254
(lp1235
I0
aI0
aI0
asg256
(lp1236
F0.75
aF0.75
aI0
asg258
(lp1237
F0.5
aF0.5
aF0.5
asg260
(lp1238
F0.1
aF0.25
aF0.25
asg262
(lp1239
I1
aF0.25
aI0
asg264
(lp1240
I1
aI0
aI0
assg266
S'hf_ref10'
p1241
sg268
S'.out'
p1242
sg270
S'/home/samio/project/a02_alchemy_diatomic/reproduce/production_refs/hf_ref10'
p1243
sg272
F-24.8190483
sg273
I20
sg274
g275
sbag3
(g4
g5
Ntp1244
Rp1245
(dp1246
g9
g10
sg11
S'hf_ref11.out'
p1247
sg13
(dp1248
sg15
(dp1249
g17
(lp1250
(lp1251
g20
aS'2.659E-02'
p1252
aS'3.303E-03'
p1253
aS'-24.141182'
p1254
aS'0.000E+00'
p1255
aS'21.37\n'
p1256
aa(lp1257
g27
aS'3.181E-02'
p1258
aS'1.465E-03'
p1259
aS'-24.550847'
p1260
aS'-4.097E-01'
p1261
aS'21.35\n'
p1262
aa(lp1263
g34
aS'1.091E-02'
p1264
aS'8.808E-04'
p1265
aS'-24.750408'
p1266
aS'-1.996E-01'
p1267
aS'21.43\n'
p1268
aa(lp1269
g41
aS'6.198E-03'
p1270
aS'5.270E-04'
p1271
aS'-24.787123'
p1272
aS'-3.672E-02'
p1273
aS'21.37\n'
p1274
aa(lp1275
g48
aS'6.934E-03'
p1276
aS'2.340E-04'
p1277
aS'-24.799579'
p1278
aS'-1.246E-02'
p1279
aS'21.37\n'
p1280
aa(lp1281
g55
aS'2.918E-03'
p1282
aS'9.933E-05'
p1283
aS'-24.802610'
p1284
aS'-3.031E-03'
p1285
aS'21.51\n'
p1286
aa(lp1287
g62
aS'1.239E-03'
p1288
aS'5.524E-05'
p1289
aS'-24.803210'
p1290
aS'-5.991E-04'
p1291
aS'21.61\n'
p1292
aa(lp1293
g69
aS'7.797E-04'
p1294
aS'2.899E-05'
p1295
aS'-24.803443'
p1296
aS'-2.335E-04'
p1297
aS'21.62\n'
p1298
aa(lp1299
g76
aS'3.810E-04'
p1300
aS'2.034E-05'
p1301
aS'-24.803529'
p1302
aS'-8.586E-05'
p1303
aS'21.46\n'
p1304
aa(lp1305
S'10'
p1306
aS'2.194E-04'
p1307
aS'1.401E-05'
p1308
aS'-24.803553'
p1309
aS'-2.406E-05'
p1310
aS'21.49\n'
p1311
aa(lp1312
S'11'
p1313
aS'8.779E-05'
p1314
aS'6.323E-06'
p1315
aS'-24.803562'
p1316
aS'-9.043E-06'
p1317
aS'21.45\n'
p1318
aa(lp1319
S'12'
p1320
aS'4.574E-05'
p1321
aS'2.056E-06'
p1322
aS'-24.803564'
p1323
aS'-1.493E-06'
p1324
aS'21.55\n'
p1325
aa(lp1326
S'13'
p1327
aS'2.057E-05'
p1328
aS'6.757E-07'
p1329
aS'-24.803564'
p1330
aS'-1.377E-07'
p1331
aS'21.50\n'
p1332
aa(lp1333
S'14'
p1334
aS'5.884E-06'
p1335
aS'3.923E-07'
p1336
aS'-24.803564'
p1337
aS'-1.376E-08'
p1338
aS'21.36\n'
p1339
aa(lp1340
S'15'
p1341
aS'3.101E-06'
p1342
aS'1.547E-07'
p1343
aS'-24.803564'
p1344
aS'-4.481E-09'
p1345
aS'21.29\n'
p1346
aa(lp1347
S'16'
p1348
aS'1.150E-06'
p1349
aS'5.957E-08'
p1350
aS'-24.803564'
p1351
aS'-9.354E-10'
p1352
aS'21.37\n'
p1353
aa(lp1354
S'17'
p1355
aS'7.887E-07'
p1356
aS'2.816E-08'
p1357
aS'-24.803564'
p1358
aS'-1.601E-10'
p1359
aS'21.19\n'
p1360
aa(lp1361
S'18'
p1362
aS'2.014E-07'
p1363
aS'1.865E-08'
p1364
aS'-24.803564'
p1365
aS'-3.759E-11'
p1366
aS'20.98\n'
p1367
aa(lp1368
S'19'
p1369
aS'1.677E-07'
p1370
aS'9.602E-09'
p1371
aS'-24.803564'
p1372
aS'-1.589E-11'
p1373
aS'20.57\n'
p1374
aa(lp1375
S'20'
p1376
aS'2.138E-07'
p1377
aS'5.178E-09'
p1378
aS'-24.803564'
p1379
aS'-6.963E-13'
p1380
aS'20.08\n'
p1381
aa(lp1382
S'21'
p1383
aS'1.457E-07'
p1384
aS'1.910E-09'
p1385
aS'-24.803564'
p1386
aS'2.192E-12'
p1387
aS'18.68\n'
p1388
aa(lp1389
S'22'
p1390
aS'5.745E-08'
p1391
aS'1.145E-09'
p1392
aS'-24.803564'
p1393
aS'-4.110E-12'
p1394
aS'18.02\n'
p1395
aasS'ESR'
p1396
F0.28027377
sS'ELECTROSTATIC ENERGY'
p1397
F-14.68013675
sS'EXCHANGE-CORRELATION ENERGY'
p1398
F-5.17411893
sS'LOCAL PSEUDOPOTENTIAL ENERGY'
p1399
F-25.96318345
sS'ESELF'
p1400
F16.62259502
sS'GRADIENT CORRECTION ENERGY'
p1401
F-0.1379946
sS'KINETIC ENERGY'
p1402
F18.69472511
sS'TOTAL ENERGY'
p1403
F-24.14118213
sS'N-L PSEUDOPOTENTIAL ENERGY'
p1404
F2.98153189
ssg182
Fnan
sg183
g3
(g184
g5
Ntp1405
Rp1406
(dp1407
g188
I00
sg189
g190
(g191
g1406
g184
tp1408
Rp1409
sg194
I00
sg195
S'GEOMETRY FILE / created by CPMD\n'
p1410
sg197
g190
(g198
g1406
g184
tp1411
Rp1412
sg201
(dp1413
sg203
I0
sg204
I00
sg205
(lp1414
sg207
I00
sg208
I0
sg209
(lp1415
g10
ag10
asg211
(dp1416
sg213
I2
sg214
(lp1417
g216
ag217
asg218
g219
(g220
(I0
tp1418
g222
tp1419
Rp1420
(I1
(I2
I3
tp1421
g229
I00
S'\x00\x00\x00\x00\x00\x00\x00\x00\x00\x00\x00\x00\x00\x00\x00\x00\x00\x00\x00\x00\x00\x00\x00\x00\xca\xc0\xf4\xbe\x99\x99\xf1?\x00\x00\x00\x00\x00\x00\x00\x00\x00\x00\x00\x00\x00\x00\x00\x00'
p1422
tp1423
bsg234
I00
sg235
g219
(g220
(I0
tp1424
g222
tp1425
Rp1426
(I1
(I2
tp1427
g229
I00
S'\x00\x00\x00\x00\x00\x00\xf0?\x00\x00\x00\x00\x00\x00"@'
p1428
tp1429
bsg242
I00
sg11
S'H1F1'
p1430
sg244
I1
sg245
I00
sg246
g219
(g220
(I0
tp1431
g222
tp1432
Rp1433
(I1
(I1
I0
tp1434
g229
I00
g10
tp1435
bsbsg252
(dp1436
g254
(lp1437
I0
aI0
aI0
asg256
(lp1438
F0.75
aF0.75
aI0
asg258
(lp1439
F0.5
aF0.5
aF0.5
asg260
(lp1440
F0.1
aF0.25
aF0.25
asg262
(lp1441
I1
aF0.25
aI0
asg264
(lp1442
I1
aI0
aI0
assg266
S'hf_ref11'
p1443
sg268
S'.out'
p1444
sg270
S'/home/samio/project/a02_alchemy_diatomic/reproduce/production_refs/hf_ref11'
p1445
sg272
F-24.80356366
sg273
I22
sg274
g275
sbag3
(g4
g5
Ntp1446
Rp1447
(dp1448
g9
g10
sg11
S'hf_ref12.out'
p1449
sg13
(dp1450
sg15
(dp1451
g17
(lp1452
(lp1453
g20
aS'2.573E-02'
p1454
aS'3.283E-03'
p1455
aS'-24.135726'
p1456
aS'0.000E+00'
p1457
aS'21.31\n'
p1458
aa(lp1459
g27
aS'3.139E-02'
p1460
aS'1.444E-03'
p1461
aS'-24.539074'
p1462
aS'-4.033E-01'
p1463
aS'21.36\n'
p1464
aa(lp1465
g34
aS'1.026E-02'
p1466
aS'8.849E-04'
p1467
aS'-24.727272'
p1468
aS'-1.882E-01'
p1469
aS'21.24\n'
p1470
aa(lp1471
g41
aS'5.831E-03'
p1472
aS'5.173E-04'
p1473
aS'-24.765144'
p1474
aS'-3.787E-02'
p1475
aS'21.12\n'
p1476
aa(lp1477
g48
aS'6.583E-03'
p1478
aS'2.246E-04'
p1479
aS'-24.778143'
p1480
aS'-1.300E-02'
p1481
aS'21.12\n'
p1482
aa(lp1483
g55
aS'2.769E-03'
p1484
aS'9.687E-05'
p1485
aS'-24.781372'
p1486
aS'-3.228E-03'
p1487
aS'21.22\n'
p1488
aa(lp1489
g62
aS'1.308E-03'
p1490
aS'5.676E-05'
p1491
aS'-24.782058'
p1492
aS'-6.860E-04'
p1493
aS'21.33\n'
p1494
aa(lp1495
g69
aS'9.368E-04'
p1496
aS'3.279E-05'
p1497
aS'-24.782351'
p1498
aS'-2.929E-04'
p1499
aS'21.16\n'
p1500
aa(lp1501
g76
aS'4.596E-04'
p1502
aS'2.374E-05'
p1503
aS'-24.782450'
p1504
aS'-9.983E-05'
p1505
aS'21.05\n'
p1506
aa(lp1507
S'10'
p1508
aS'2.616E-04'
p1509
aS'1.443E-05'
p1510
aS'-24.782478'
p1511
aS'-2.782E-05'
p1512
aS'21.15\n'
p1513
aa(lp1514
S'11'
p1515
aS'9.420E-05'
p1516
aS'5.971E-06'
p1517
aS'-24.782487'
p1518
aS'-8.906E-06'
p1519
aS'21.07\n'
p1520
aa(lp1521
S'12'
p1522
aS'4.636E-05'
p1523
aS'2.028E-06'
p1524
aS'-24.782488'
p1525
aS'-1.259E-06'
p1526
aS'21.15\n'
p1527
aa(lp1528
S'13'
p1529
aS'1.958E-05'
p1530
aS'7.113E-07'
p1531
aS'-24.782489'
p1532
aS'-1.310E-07'
p1533
aS'21.09\n'
p1534
aa(lp1535
S'14'
p1536
aS'5.745E-06'
p1537
aS'4.040E-07'
p1538
aS'-24.782489'
p1539
aS'-1.531E-08'
p1540
aS'20.92\n'
p1541
aa(lp1542
S'15'
p1543
aS'3.190E-06'
p1544
aS'1.488E-07'
p1545
aS'-24.782489'
p1546
aS'-5.694E-09'
p1547
aS'20.83\n'
p1548
aa(lp1549
S'16'
p1550
aS'1.217E-06'
p1551
aS'6.586E-08'
p1552
aS'-24.782489'
p1553
aS'-1.004E-09'
p1554
aS'20.87\n'
p1555
aa(lp1556
S'17'
p1557
aS'7.075E-07'
p1558
aS'3.230E-08'
p1559
aS'-24.782489'
p1560
aS'-2.356E-10'
p1561
aS'21.12\n'
p1562
aa(lp1563
S'18'
p1564
aS'3.803E-07'
p1565
aS'2.247E-08'
p1566
aS'-24.782489'
p1567
aS'-3.638E-11'
p1568
aS'20.99\n'
p1569
aa(lp1570
S'19'
p1571
aS'3.306E-07'
p1572
aS'1.219E-08'
p1573
aS'-24.782489'
p1574
aS'-2.135E-11'
p1575
aS'20.75\n'
p1576
aa(lp1577
S'20'
p1578
aS'3.278E-07'
p1579
aS'5.998E-09'
p1580
aS'-24.782489'
p1581
aS'-4.555E-12'
p1582
aS'19.89\n'
p1583
aa(lp1584
S'21'
p1585
aS'1.271E-07'
p1586
aS'2.274E-09'
p1587
aS'-24.782489'
p1588
aS'-4.782E-12'
p1589
aS'19.06\n'
p1590
aa(lp1591
S'22'
p1592
aS'3.896E-08'
p1593
aS'1.947E-09'
p1594
aS'-24.782489'
p1595
aS'-6.750E-13'
p1596
aS'18.25\n'
p1597
aasS'ESR'
p1598
F0.18149111
sS'ELECTROSTATIC ENERGY'
p1599
F-14.86031956
sS'EXCHANGE-CORRELATION ENERGY'
p1600
F-5.11572632
sS'LOCAL PSEUDOPOTENTIAL ENERGY'
p1601
F-25.5972847
sS'ESELF'
p1602
F16.62259502
sS'GRADIENT CORRECTION ENERGY'
p1603
F-0.13860114
sS'KINETIC ENERGY'
p1604
F18.43561108
sS'TOTAL ENERGY'
p1605
F-24.1357256
sS'N-L PSEUDOPOTENTIAL ENERGY'
p1606
F3.00199391
ssg182
Fnan
sg183
g3
(g184
g5
Ntp1607
Rp1608
(dp1609
g188
I00
sg189
g190
(g191
g1608
g184
tp1610
Rp1611
sg194
I00
sg195
S'GEOMETRY FILE / created by CPMD\n'
p1612
sg197
g190
(g198
g1608
g184
tp1613
Rp1614
sg201
(dp1615
sg203
I0
sg204
I00
sg205
(lp1616
sg207
I00
sg208
I0
sg209
(lp1617
g10
ag10
asg211
(dp1618
sg213
I2
sg214
(lp1619
g216
ag217
asg218
g219
(g220
(I0
tp1620
g222
tp1621
Rp1622
(I1
(I2
I3
tp1623
g229
I00
S'\x00\x00\x00\x00\x00\x00\x00\x00\x00\x00\x00\x00\x00\x00\x00\x00\x00\x00\x00\x00\x00\x00\x00\x00\xa0\x81\x8e\x0133\xf3?\x00\x00\x00\x00\x00\x00\x00\x00\x00\x00\x00\x00\x00\x00\x00\x00'
p1624
tp1625
bsg234
I00
sg235
g219
(g220
(I0
tp1626
g222
tp1627
Rp1628
(I1
(I2
tp1629
g229
I00
S'\x00\x00\x00\x00\x00\x00\xf0?\x00\x00\x00\x00\x00\x00"@'
p1630
tp1631
bsg242
I00
sg11
S'H1F1'
p1632
sg244
I1
sg245
I00
sg246
g219
(g220
(I0
tp1633
g222
tp1634
Rp1635
(I1
(I1
I0
tp1636
g229
I00
g10
tp1637
bsbsg252
(dp1638
g254
(lp1639
I0
aI0
aI0
asg256
(lp1640
F0.75
aF0.75
aI0
asg258
(lp1641
F0.5
aF0.5
aF0.5
asg260
(lp1642
F0.1
aF0.25
aF0.25
asg262
(lp1643
I1
aF0.25
aI0
asg264
(lp1644
I1
aI0
aI0
assg266
S'hf_ref12'
p1645
sg268
S'.out'
p1646
sg270
S'/home/samio/project/a02_alchemy_diatomic/reproduce/production_refs/hf_ref12'
p1647
sg272
F-24.78248854
sg273
I22
sg274
g275
sbag3
(g4
g5
Ntp1648
Rp1649
(dp1650
g9
g10
sg11
S'hf_ref13.out'
p1651
sg13
(dp1652
sg15
(dp1653
g17
(lp1654
(lp1655
g20
aS'2.477E-02'
p1656
aS'3.268E-03'
p1657
aS'-24.121116'
p1658
aS'0.000E+00'
p1659
aS'21.71\n'
p1660
aa(lp1661
g27
aS'3.074E-02'
p1662
aS'1.423E-03'
p1663
aS'-24.525270'
p1664
aS'-4.042E-01'
p1665
aS'21.56\n'
p1666
aa(lp1667
g34
aS'9.740E-03'
p1668
aS'8.897E-04'
p1669
aS'-24.701451'
p1670
aS'-1.762E-01'
p1671
aS'21.42\n'
p1672
aa(lp1673
g41
aS'5.852E-03'
p1674
aS'5.086E-04'
p1675
aS'-24.741001'
p1676
aS'-3.955E-02'
p1677
aS'21.36\n'
p1678
aa(lp1679
g48
aS'6.664E-03'
p1680
aS'2.197E-04'
p1681
aS'-24.754709'
p1682
aS'-1.371E-02'
p1683
aS'21.23\n'
p1684
aa(lp1685
g55
aS'2.890E-03'
p1686
aS'9.983E-05'
p1687
aS'-24.758257'
p1688
aS'-3.548E-03'
p1689
aS'21.54\n'
p1690
aa(lp1691
g62
aS'1.527E-03'
p1692
aS'6.234E-05'
p1693
aS'-24.759079'
p1694
aS'-8.216E-04'
p1695
aS'21.60\n'
p1696
aa(lp1697
g69
aS'1.082E-03'
p1698
aS'3.824E-05'
p1699
aS'-24.759443'
p1700
aS'-3.647E-04'
p1701
aS'21.46\n'
p1702
aa(lp1703
g76
aS'5.130E-04'
p1704
aS'2.608E-05'
p1705
aS'-24.759559'
p1706
aS'-1.152E-04'
p1707
aS'21.40\n'
p1708
aa(lp1709
S'10'
p1710
aS'2.936E-04'
p1711
aS'1.425E-05'
p1712
aS'-24.759589'
p1713
aS'-3.049E-05'
p1714
aS'21.61\n'
p1715
aa(lp1716
S'11'
p1717
aS'9.888E-05'
p1718
aS'5.518E-06'
p1719
aS'-24.759598'
p1720
aS'-8.435E-06'
p1721
aS'21.56\n'
p1722
aa(lp1723
S'12'
p1724
aS'4.541E-05'
p1725
aS'2.007E-06'
p1726
aS'-24.759599'
p1727
aS'-1.037E-06'
p1728
aS'21.52\n'
p1729
aa(lp1730
S'13'
p1731
aS'1.666E-05'
p1732
aS'7.843E-07'
p1733
aS'-24.759599'
p1734
aS'-1.233E-07'
p1735
aS'21.51\n'
p1736
aa(lp1737
S'14'
p1738
aS'6.037E-06'
p1739
aS'4.200E-07'
p1740
aS'-24.759599'
p1741
aS'-1.938E-08'
p1742
aS'21.45\n'
p1743
aa(lp1744
S'15'
p1745
aS'2.962E-06'
p1746
aS'1.397E-07'
p1747
aS'-24.759599'
p1748
aS'-7.229E-09'
p1749
aS'21.31\n'
p1750
aa(lp1751
S'16'
p1752
aS'1.550E-06'
p1753
aS'7.549E-08'
p1754
aS'-24.759599'
p1755
aS'-1.023E-09'
p1756
aS'21.39\n'
p1757
aa(lp1758
S'17'
p1759
aS'6.095E-07'
p1760
aS'3.721E-08'
p1761
aS'-24.759599'
p1762
aS'-2.837E-10'
p1763
aS'21.38\n'
p1764
aa(lp1765
S'18'
p1766
aS'6.070E-07'
p1767
aS'2.477E-08'
p1768
aS'-24.759599'
p1769
aS'-4.528E-11'
p1770
aS'21.32\n'
p1771
aa(lp1772
S'19'
p1773
aS'4.056E-07'
p1774
aS'1.342E-08'
p1775
aS'-24.759599'
p1776
aS'-2.689E-11'
p1777
aS'20.58\n'
p1778
aa(lp1779
S'20'
p1780
aS'4.232E-07'
p1781
aS'6.133E-09'
p1782
aS'-24.759599'
p1783
aS'-1.130E-11'
p1784
aS'23.19\n'
p1785
aa(lp1786
S'21'
p1787
aS'9.119E-08'
p1788
aS'2.739E-09'
p1789
aS'-24.759599'
p1790
aS'5.688E-12'
p1791
aS'18.50\n'
p1792
aasS'ESR'
p1793
F0.11579492
sS'ELECTROSTATIC ENERGY'
p1794
F-15.00370531
sS'EXCHANGE-CORRELATION ENERGY'
p1795
F-5.06183249
sS'LOCAL PSEUDOPOTENTIAL ENERGY'
p1796
F-25.27435131
sS'ESELF'
p1797
F16.62259502
sS'GRADIENT CORRECTION ENERGY'
p1798
F-0.13954999
sS'KINETIC ENERGY'
p1799
F18.20103064
sS'TOTAL ENERGY'
p1800
F-24.12111629
sS'N-L PSEUDOPOTENTIAL ENERGY'
p1801
F3.01774219
ssg182
Fnan
sg183
g3
(g184
g5
Ntp1802
Rp1803
(dp1804
g188
I00
sg189
g190
(g191
g1803
g184
tp1805
Rp1806
sg194
I00
sg195
S'GEOMETRY FILE / created by CPMD\n'
p1807
sg197
g190
(g198
g1803
g184
tp1808
Rp1809
sg201
(dp1810
sg203
I0
sg204
I00
sg205
(lp1811
sg207
I00
sg208
I0
sg209
(lp1812
g10
ag10
asg211
(dp1813
sg213
I2
sg214
(lp1814
g216
ag217
asg218
g219
(g220
(I0
tp1815
g222
tp1816
Rp1817
(I1
(I2
I3
tp1818
g229
I00
S'\x00\x00\x00\x00\x00\x00\x00\x00\x00\x00\x00\x00\x00\x00\x00\x00\x00\x00\x00\x00\x00\x00\x00\x00g\n5\xd2\xcc\xcc\xf4?\x00\x00\x00\x00\x00\x00\x00\x00\x00\x00\x00\x00\x00\x00\x00\x00'
p1819
tp1820
bsg234
I00
sg235
g219
(g220
(I0
tp1821
g222
tp1822
Rp1823
(I1
(I2
tp1824
g229
I00
S'\x00\x00\x00\x00\x00\x00\xf0?\x00\x00\x00\x00\x00\x00"@'
p1825
tp1826
bsg242
I00
sg11
S'H1F1'
p1827
sg244
I1
sg245
I00
sg246
g219
(g220
(I0
tp1828
g222
tp1829
Rp1830
(I1
(I1
I0
tp1831
g229
I00
g10
tp1832
bsbsg252
(dp1833
g254
(lp1834
I0
aI0
aI0
asg256
(lp1835
F0.75
aF0.75
aI0
asg258
(lp1836
F0.5
aF0.5
aF0.5
asg260
(lp1837
F0.1
aF0.25
aF0.25
asg262
(lp1838
I1
aF0.25
aI0
asg264
(lp1839
I1
aI0
aI0
assg266
S'hf_ref13'
p1840
sg268
S'.out'
p1841
sg270
S'/home/samio/project/a02_alchemy_diatomic/reproduce/production_refs/hf_ref13'
p1842
sg272
F-24.75959876
sg273
I21
sg274
g275
sbag3
(g4
g5
Ntp1843
Rp1844
(dp1845
g9
g10
sg11
S'hf_ref14.out'
p1846
sg13
(dp1847
sg15
(dp1848
g17
(lp1849
(lp1850
g20
aS'2.570E-02'
p1851
aS'3.257E-03'
p1852
aS'-24.098949'
p1853
aS'0.000E+00'
p1854
aS'21.41\n'
p1855
aa(lp1856
g27
aS'2.919E-02'
p1857
aS'1.403E-03'
p1858
aS'-24.511144'
p1859
aS'-4.122E-01'
p1860
aS'21.40\n'
p1861
aa(lp1862
g34
aS'9.464E-03'
p1863
aS'8.959E-04'
p1864
aS'-24.674420'
p1865
aS'-1.633E-01'
p1866
aS'21.37\n'
p1867
aa(lp1868
g41
aS'5.068E-03'
p1869
aS'5.045E-04'
p1870
aS'-24.716402'
p1871
aS'-4.198E-02'
p1872
aS'21.13\n'
p1873
aa(lp1874
g48
aS'5.959E-03'
p1875
aS'2.207E-04'
p1876
aS'-24.731136'
p1877
aS'-1.473E-02'
p1878
aS'21.18\n'
p1879
aa(lp1880
g55
aS'2.609E-03'
p1881
aS'1.070E-04'
p1882
aS'-24.735227'
p1883
aS'-4.091E-03'
p1884
aS'21.40\n'
p1885
aa(lp1886
g62
aS'1.528E-03'
p1887
aS'7.074E-05'
p1888
aS'-24.736228'
p1889
aS'-1.001E-03'
p1890
aS'21.45\n'
p1891
aa(lp1892
g69
aS'1.082E-03'
p1893
aS'4.337E-05'
p1894
aS'-24.736671'
p1895
aS'-4.432E-04'
p1896
aS'21.31\n'
p1897
aa(lp1898
g76
aS'4.947E-04'
p1899
aS'2.702E-05'
p1900
aS'-24.736800'
p1901
aS'-1.286E-04'
p1902
aS'21.29\n'
p1903
aa(lp1904
S'10'
p1905
aS'2.804E-04'
p1906
aS'1.354E-05'
p1907
aS'-24.736832'
p1908
aS'-3.206E-05'
p1909
aS'21.25\n'
p1910
aa(lp1911
S'11'
p1912
aS'9.321E-05'
p1913
aS'5.232E-06'
p1914
aS'-24.736839'
p1915
aS'-7.484E-06'
p1916
aS'21.20\n'
p1917
aa(lp1918
S'12'
p1919
aS'4.325E-05'
p1920
aS'2.005E-06'
p1921
aS'-24.736840'
p1922
aS'-9.007E-07'
p1923
aS'21.14\n'
p1924
aa(lp1925
S'13'
p1926
aS'1.722E-05'
p1927
aS'8.310E-07'
p1928
aS'-24.736840'
p1929
aS'-1.194E-07'
p1930
aS'21.16\n'
p1931
aa(lp1932
S'14'
p1933
aS'6.898E-06'
p1934
aS'4.060E-07'
p1935
aS'-24.736840'
p1936
aS'-2.316E-08'
p1937
aS'21.03\n'
p1938
aa(lp1939
S'15'
p1940
aS'2.999E-06'
p1941
aS'1.366E-07'
p1942
aS'-24.736840'
p1943
aS'-7.496E-09'
p1944
aS'21.06\n'
p1945
aa(lp1946
S'16'
p1947
aS'2.010E-06'
p1948
aS'8.053E-08'
p1949
aS'-24.736840'
p1950
aS'-1.011E-09'
p1951
aS'21.02\n'
p1952
aa(lp1953
S'17'
p1954
aS'9.668E-07'
p1955
aS'4.152E-08'
p1956
aS'-24.736840'
p1957
aS'-2.836E-10'
p1958
aS'21.03\n'
p1959
aa(lp1960
S'18'
p1961
aS'1.061E-06'
p1962
aS'2.500E-08'
p1963
aS'-24.736840'
p1964
aS'-5.932E-11'
p1965
aS'20.81\n'
p1966
aa(lp1967
S'19'
p1968
aS'3.978E-07'
p1969
aS'1.498E-08'
p1970
aS'-24.736840'
p1971
aS'-3.442E-11'
p1972
aS'20.44\n'
p1973
aa(lp1974
S'20'
p1975
aS'3.452E-07'
p1976
aS'5.512E-09'
p1977
aS'-24.736840'
p1978
aS'-8.438E-12'
p1979
aS'19.81\n'
p1980
aa(lp1981
S'21'
p1982
aS'6.793E-08'
p1983
aS'2.860E-09'
p1984
aS'-24.736840'
p1985
aS'6.999E-13'
p1986
aS'19.01\n'
p1987
aasS'ESR'
p1988
F0.07269975
sS'ELECTROSTATIC ENERGY'
p1989
F-15.11996802
sS'EXCHANGE-CORRELATION ENERGY'
p1990
F-5.01196251
sS'LOCAL PSEUDOPOTENTIAL ENERGY'
p1991
F-24.98011459
sS'ESELF'
p1992
F16.62259502
sS'GRADIENT CORRECTION ENERGY'
p1993
F-0.14076064
sS'KINETIC ENERGY'
p1994
F17.98412043
sS'TOTAL ENERGY'
p1995
F-24.09894943
sS'N-L PSEUDOPOTENTIAL ENERGY'
p1996
F3.02897527
ssg182
Fnan
sg183
g3
(g184
g5
Ntp1997
Rp1998
(dp1999
g188
I00
sg189
g190
(g191
g1998
g184
tp2000
Rp2001
sg194
I00
sg195
S'GEOMETRY FILE / created by CPMD\n'
p2002
sg197
g190
(g198
g1998
g184
tp2003
Rp2004
sg201
(dp2005
sg203
I0
sg204
I00
sg205
(lp2006
sg207
I00
sg208
I0
sg209
(lp2007
g10
ag10
asg211
(dp2008
sg213
I2
sg214
(lp2009
g216
ag217
asg218
g219
(g220
(I0
tp2010
g222
tp2011
Rp2012
(I1
(I2
I3
tp2013
g229
I00
S'\x00\x00\x00\x00\x00\x00\x00\x00\x00\x00\x00\x00\x00\x00\x00\x00\x00\x00\x00\x00\x00\x00\x00\x000\x93\xdb\xa2ff\xf6?\x00\x00\x00\x00\x00\x00\x00\x00\x00\x00\x00\x00\x00\x00\x00\x00'
p2014
tp2015
bsg234
I00
sg235
g219
(g220
(I0
tp2016
g222
tp2017
Rp2018
(I1
(I2
tp2019
g229
I00
S'\x00\x00\x00\x00\x00\x00\xf0?\x00\x00\x00\x00\x00\x00"@'
p2020
tp2021
bsg242
I00
sg11
S'H1F1'
p2022
sg244
I1
sg245
I00
sg246
g219
(g220
(I0
tp2023
g222
tp2024
Rp2025
(I1
(I1
I0
tp2026
g229
I00
g10
tp2027
bsbsg252
(dp2028
g254
(lp2029
I0
aI0
aI0
asg256
(lp2030
F0.75
aF0.75
aI0
asg258
(lp2031
F0.5
aF0.5
aF0.5
asg260
(lp2032
F0.1
aF0.25
aF0.25
asg262
(lp2033
I1
aF0.25
aI0
asg264
(lp2034
I1
aI0
aI0
assg266
S'hf_ref14'
p2035
sg268
S'.out'
p2036
sg270
S'/home/samio/project/a02_alchemy_diatomic/reproduce/production_refs/hf_ref14'
p2037
sg272
F-24.7368402
sg273
I21
sg274
g275
sbag3
(g4
g5
Ntp2038
Rp2039
(dp2040
g9
g10
sg11
S'hf_ref15.out'
p2041
sg13
(dp2042
sg15
(dp2043
g17
(lp2044
(lp2045
g20
aS'2.457E-02'
p2046
aS'3.248E-03'
p2047
aS'-24.069869'
p2048
aS'0.000E+00'
p2049
aS'21.78\n'
p2050
aa(lp2051
g27
aS'2.733E-02'
p2052
aS'1.386E-03'
p2053
aS'-24.495138'
p2054
aS'-4.253E-01'
p2055
aS'21.54\n'
p2056
aa(lp2057
g34
aS'9.584E-03'
p2058
aS'9.033E-04'
p2059
aS'-24.646731'
p2060
aS'-1.516E-01'
p2061
aS'21.49\n'
p2062
aa(lp2063
g41
aS'6.456E-03'
p2064
aS'5.100E-04'
p2065
aS'-24.691718'
p2066
aS'-4.499E-02'
p2067
aS'21.41\n'
p2068
aa(lp2069
g48
aS'5.979E-03'
p2070
aS'2.307E-04'
p2071
aS'-24.708178'
p2072
aS'-1.646E-02'
p2073
aS'21.36\n'
p2074
aa(lp2075
g55
aS'2.709E-03'
p2076
aS'1.200E-04'
p2077
aS'-24.713192'
p2078
aS'-5.013E-03'
p2079
aS'21.56\n'
p2080
aa(lp2081
g62
aS'1.592E-03'
p2082
aS'8.227E-05'
p2083
aS'-24.714442'
p2084
aS'-1.250E-03'
p2085
aS'21.57\n'
p2086
aa(lp2087
g69
aS'9.956E-04'
p2088
aS'4.849E-05'
p2089
aS'-24.714976'
p2090
aS'-5.348E-04'
p2091
aS'21.59\n'
p2092
aa(lp2093
g76
aS'4.400E-04'
p2094
aS'2.728E-05'
p2095
aS'-24.715130'
p2096
aS'-1.535E-04'
p2097
aS'21.45\n'
p2098
aa(lp2099
S'10'
p2100
aS'2.224E-04'
p2101
aS'1.311E-05'
p2102
aS'-24.715164'
p2103
aS'-3.416E-05'
p2104
aS'21.61\n'
p2105
aa(lp2106
S'11'
p2107
aS'6.618E-05'
p2108
aS'5.291E-06'
p2109
aS'-24.715171'
p2110
aS'-6.981E-06'
p2111
aS'21.47\n'
p2112
aa(lp2113
S'12'
p2114
aS'3.365E-05'
p2115
aS'2.047E-06'
p2116
aS'-24.715172'
p2117
aS'-9.085E-07'
p2118
aS'21.48\n'
p2119
aa(lp2120
S'13'
p2121
aS'1.692E-05'
p2122
aS'8.852E-07'
p2123
aS'-24.715172'
p2124
aS'-1.241E-07'
p2125
aS'21.50\n'
p2126
aa(lp2127
S'14'
p2128
aS'6.855E-06'
p2129
aS'3.775E-07'
p2130
aS'-24.715172'
p2131
aS'-2.752E-08'
p2132
aS'21.43\n'
p2133
aa(lp2134
S'15'
p2135
aS'3.340E-06'
p2136
aS'1.472E-07'
p2137
aS'-24.715172'
p2138
aS'-6.931E-09'
p2139
aS'21.42\n'
p2140
aa(lp2141
S'16'
p2142
aS'1.647E-06'
p2143
aS'8.429E-08'
p2144
aS'-24.715172'
p2145
aS'-1.105E-09'
p2146
aS'21.42\n'
p2147
aa(lp2148
S'17'
p2149
aS'9.274E-07'
p2150
aS'4.655E-08'
p2151
aS'-24.715172'
p2152
aS'-2.624E-10'
p2153
aS'21.46\n'
p2154
aa(lp2155
S'18'
p2156
aS'8.580E-07'
p2157
aS'2.578E-08'
p2158
aS'-24.715172'
p2159
aS'-9.027E-11'
p2160
aS'21.20\n'
p2161
aa(lp2162
S'19'
p2163
aS'3.449E-07'
p2164
aS'1.664E-08'
p2165
aS'-24.715172'
p2166
aS'-3.144E-11'
p2167
aS'20.48\n'
p2168
aa(lp2169
S'20'
p2170
aS'2.329E-07'
p2171
aS'5.246E-09'
p2172
aS'-24.715172'
p2173
aS'-9.262E-12'
p2174
aS'20.10\n'
p2175
aa(lp2176
S'21'
p2177
aS'7.362E-08'
p2178
aS'2.924E-09'
p2179
aS'-24.715172'
p2180
aS'-7.745E-13'
p2181
aS'18.67\n'
p2182
aasS'ESR'
p2183
F0.04486802
sS'ELECTROSTATIC ENERGY'
p2184
F-15.21525685
sS'EXCHANGE-CORRELATION ENERGY'
p2185
F-4.96578609
sS'LOCAL PSEUDOPOTENTIAL ENERGY'
p2186
F-24.70483034
sS'ESELF'
p2187
F16.62259502
sS'GRADIENT CORRECTION ENERGY'
p2188
F-0.14217574
sS'KINETIC ENERGY'
p2189
F17.77963379
sS'TOTAL ENERGY'
p2190
F-24.06986932
sS'N-L PSEUDOPOTENTIAL ENERGY'
p2191
F3.03637017
ssg182
Fnan
sg183
g3
(g184
g5
Ntp2192
Rp2193
(dp2194
g188
I00
sg189
g190
(g191
g2193
g184
tp2195
Rp2196
sg194
I00
sg195
S'GEOMETRY FILE / created by CPMD\n'
p2197
sg197
g190
(g198
g2193
g184
tp2198
Rp2199
sg201
(dp2200
sg203
I0
sg204
I00
sg205
(lp2201
sg207
I00
sg208
I0
sg209
(lp2202
g10
ag10
asg211
(dp2203
sg213
I2
sg214
(lp2204
g216
ag217
asg218
g219
(g220
(I0
tp2205
g222
tp2206
Rp2207
(I1
(I2
I3
tp2208
g229
I00
S'\x00\x00\x00\x00\x00\x00\x00\x00\x00\x00\x00\x00\x00\x00\x00\x00\x00\x00\x00\x00\x00\x00\x00\x00\x04Tu\xe5\xff\xff\xf7?\x00\x00\x00\x00\x00\x00\x00\x00\x00\x00\x00\x00\x00\x00\x00\x00'
p2209
tp2210
bsg234
I00
sg235
g219
(g220
(I0
tp2211
g222
tp2212
Rp2213
(I1
(I2
tp2214
g229
I00
S'\x00\x00\x00\x00\x00\x00\xf0?\x00\x00\x00\x00\x00\x00"@'
p2215
tp2216
bsg242
I00
sg11
S'H1F1'
p2217
sg244
I1
sg245
I00
sg246
g219
(g220
(I0
tp2218
g222
tp2219
Rp2220
(I1
(I1
I0
tp2221
g229
I00
g10
tp2222
bsbsg252
(dp2223
g254
(lp2224
I0
aI0
aI0
asg256
(lp2225
F0.75
aF0.75
aI0
asg258
(lp2226
F0.5
aF0.5
aF0.5
asg260
(lp2227
F0.1
aF0.25
aF0.25
asg262
(lp2228
I1
aF0.25
aI0
asg264
(lp2229
I1
aI0
aI0
assg266
S'hf_ref15'
p2230
sg268
S'.out'
p2231
sg270
S'/home/samio/project/a02_alchemy_diatomic/reproduce/production_refs/hf_ref15'
p2232
sg272
F-24.71517203
sg273
I21
sg274
g275
sbag3
(g4
g5
Ntp2233
Rp2234
(dp2235
g9
g10
sg11
S'hf_ref16.out'
p2236
sg13
(dp2237
sg15
(dp2238
g17
(lp2239
(lp2240
g20
aS'2.342E-02'
p2241
aS'3.243E-03'
p2242
aS'-24.034172'
p2243
aS'0.000E+00'
p2244
aS'21.73\n'
p2245
aa(lp2246
g27
aS'2.463E-02'
p2247
aS'1.371E-03'
p2248
aS'-24.477282'
p2249
aS'-4.431E-01'
p2250
aS'21.58\n'
p2251
aa(lp2252
g34
aS'9.724E-03'
p2253
aS'9.113E-04'
p2254
aS'-24.618462'
p2255
aS'-1.412E-01'
p2256
aS'21.47\n'
p2257
aa(lp2258
g41
aS'7.765E-03'
p2259
aS'5.254E-04'
p2260
aS'-24.667006'
p2261
aS'-4.854E-02'
p2262
aS'21.44\n'
p2263
aa(lp2264
g48
aS'5.602E-03'
p2265
aS'2.470E-04'
p2266
aS'-24.686298'
p2267
aS'-1.929E-02'
p2268
aS'21.34\n'
p2269
aa(lp2270
g55
aS'2.814E-03'
p2271
aS'1.372E-04'
p2272
aS'-24.692674'
p2273
aS'-6.376E-03'
p2274
aS'21.56\n'
p2275
aa(lp2276
g62
aS'1.820E-03'
p2277
aS'9.345E-05'
p2278
aS'-24.694243'
p2279
aS'-1.569E-03'
p2280
aS'21.56\n'
p2281
aa(lp2282
g69
aS'1.124E-03'
p2283
aS'5.245E-05'
p2284
aS'-24.694862'
p2285
aS'-6.196E-04'
p2286
aS'21.59\n'
p2287
aa(lp2288
g76
aS'5.071E-04'
p2289
aS'2.690E-05'
p2290
aS'-24.695047'
p2291
aS'-1.846E-04'
p2292
aS'21.44\n'
p2293
aa(lp2294
S'10'
p2295
aS'2.509E-04'
p2296
aS'1.276E-05'
p2297
aS'-24.695083'
p2298
aS'-3.671E-05'
p2299
aS'21.62\n'
p2300
aa(lp2301
S'11'
p2302
aS'7.847E-05'
p2303
aS'5.550E-06'
p2304
aS'-24.695090'
p2305
aS'-6.535E-06'
p2306
aS'21.44\n'
p2307
aa(lp2308
S'12'
p2309
aS'3.781E-05'
p2310
aS'2.085E-06'
p2311
aS'-24.695091'
p2312
aS'-9.999E-07'
p2313
aS'21.50\n'
p2314
aa(lp2315
S'13'
p2316
aS'1.714E-05'
p2317
aS'9.148E-07'
p2318
aS'-24.695091'
p2319
aS'-1.343E-07'
p2320
aS'21.50\n'
p2321
aa(lp2322
S'14'
p2323
aS'6.463E-06'
p2324
aS'3.393E-07'
p2325
aS'-24.695091'
p2326
aS'-3.044E-08'
p2327
aS'21.45\n'
p2328
aa(lp2329
S'15'
p2330
aS'2.988E-06'
p2331
aS'1.578E-07'
p2332
aS'-24.695091'
p2333
aS'-5.727E-09'
p2334
aS'21.41\n'
p2335
aa(lp2336
S'16'
p2337
aS'1.696E-06'
p2338
aS'8.028E-08'
p2339
aS'-24.695091'
p2340
aS'-1.194E-09'
p2341
aS'21.39\n'
p2342
aa(lp2343
S'17'
p2344
aS'9.296E-07'
p2345
aS'4.416E-08'
p2346
aS'-24.695091'
p2347
aS'-2.515E-10'
p2348
aS'21.41\n'
p2349
aa(lp2350
S'18'
p2351
aS'6.115E-07'
p2352
aS'2.499E-08'
p2353
aS'-24.695091'
p2354
aS'-1.010E-10'
p2355
aS'21.10\n'
p2356
aa(lp2357
S'19'
p2358
aS'3.524E-07'
p2359
aS'1.546E-08'
p2360
aS'-24.695091'
p2361
aS'-3.165E-11'
p2362
aS'20.52\n'
p2363
aa(lp2364
S'20'
p2365
aS'2.152E-07'
p2366
aS'6.314E-09'
p2367
aS'-24.695091'
p2368
aS'1.528E-13'
p2369
aS'20.14\n'
p2370
aa(lp2371
S'21'
p2372
aS'6.553E-08'
p2373
aS'2.944E-09'
p2374
aS'-24.695091'
p2375
aS'-5.322E-12'
p2376
aS'18.72\n'
p2377
aasS'ESR'
p2378
F0.02719761
sS'ELECTROSTATIC ENERGY'
p2379
F-15.29325733
sS'EXCHANGE-CORRELATION ENERGY'
p2380
F-4.92312092
sS'LOCAL PSEUDOPOTENTIAL ENERGY'
p2381
F-24.44274534
sS'ESELF'
p2382
F16.62259502
sS'GRADIENT CORRECTION ENERGY'
p2383
F-0.14373183
sS'KINETIC ENERGY'
p2384
F17.58417493
sS'TOTAL ENERGY'
p2385
F-24.0341719
sS'N-L PSEUDOPOTENTIAL ENERGY'
p2386
F3.04077677
ssg182
Fnan
sg183
g3
(g184
g5
Ntp2387
Rp2388
(dp2389
g188
I00
sg189
g190
(g191
g2388
g184
tp2390
Rp2391
sg194
I00
sg195
S'GEOMETRY FILE / created by CPMD\n'
p2392
sg197
g190
(g198
g2388
g184
tp2393
Rp2394
sg201
(dp2395
sg203
I0
sg204
I00
sg205
(lp2396
sg207
I00
sg208
I0
sg209
(lp2397
g10
ag10
asg211
(dp2398
sg213
I2
sg214
(lp2399
g216
ag217
asg218
g219
(g220
(I0
tp2400
g222
tp2401
Rp2402
(I1
(I2
I3
tp2403
g229
I00
S'\x00\x00\x00\x00\x00\x00\x00\x00\x00\x00\x00\x00\x00\x00\x00\x00\x00\x00\x00\x00\x00\x00\x00\x00\xcd\xdc\x1b\xb6\x99\x99\xf9?\x00\x00\x00\x00\x00\x00\x00\x00\x00\x00\x00\x00\x00\x00\x00\x00'
p2404
tp2405
bsg234
I00
sg235
g219
(g220
(I0
tp2406
g222
tp2407
Rp2408
(I1
(I2
tp2409
g229
I00
S'\x00\x00\x00\x00\x00\x00\xf0?\x00\x00\x00\x00\x00\x00"@'
p2410
tp2411
bsg242
I00
sg11
S'H1F1'
p2412
sg244
I1
sg245
I00
sg246
g219
(g220
(I0
tp2413
g222
tp2414
Rp2415
(I1
(I1
I0
tp2416
g229
I00
g10
tp2417
bsbsg252
(dp2418
g254
(lp2419
I0
aI0
aI0
asg256
(lp2420
F0.75
aF0.75
aI0
asg258
(lp2421
F0.5
aF0.5
aF0.5
asg260
(lp2422
F0.1
aF0.25
aF0.25
asg262
(lp2423
I1
aF0.25
aI0
asg264
(lp2424
I1
aI0
aI0
assg266
S'hf_ref16'
p2425
sg268
S'.out'
p2426
sg270
S'/home/samio/project/a02_alchemy_diatomic/reproduce/production_refs/hf_ref16'
p2427
sg272
F-24.6950911
sg273
I21
sg274
g275
sbag3
(g4
g5
Ntp2428
Rp2429
(dp2430
g9
g10
sg11
S'hf_ref17.out'
p2431
sg13
(dp2432
sg15
(dp2433
g17
(lp2434
(lp2435
g20
aS'2.230E-02'
p2436
aS'3.239E-03'
p2437
aS'-23.992102'
p2438
aS'0.000E+00'
p2439
aS'18.53\n'
p2440
aa(lp2441
g27
aS'2.381E-02'
p2442
aS'1.360E-03'
p2443
aS'-24.455974'
p2444
aS'-4.639E-01'
p2445
aS'17.83\n'
p2446
aa(lp2447
g34
aS'1.248E-02'
p2448
aS'9.209E-04'
p2449
aS'-24.588913'
p2450
aS'-1.329E-01'
p2451
aS'17.66\n'
p2452
aa(lp2453
g41
aS'9.551E-03'
p2454
aS'5.531E-04'
p2455
aS'-24.641556'
p2456
aS'-5.264E-02'
p2457
aS'18.07\n'
p2458
aa(lp2459
g48
aS'5.149E-03'
p2460
aS'2.766E-04'
p2461
aS'-24.665012'
p2462
aS'-2.346E-02'
p2463
aS'18.08\n'
p2464
aa(lp2465
g55
aS'2.940E-03'
p2466
aS'1.584E-04'
p2467
aS'-24.673729'
p2468
aS'-8.716E-03'
p2469
aS'16.91\n'
p2470
aa(lp2471
g62
aS'1.855E-03'
p2472
aS'1.051E-04'
p2473
aS'-24.675756'
p2474
aS'-2.027E-03'
p2475
aS'16.77\n'
p2476
aa(lp2477
g69
aS'1.102E-03'
p2478
aS'5.720E-05'
p2479
aS'-24.676480'
p2480
aS'-7.244E-04'
p2481
aS'16.57\n'
p2482
aa(lp2483
g76
aS'4.499E-04'
p2484
aS'2.743E-05'
p2485
aS'-24.676716'
p2486
aS'-2.355E-04'
p2487
aS'16.54\n'
p2488
aa(lp2489
S'10'
p2490
aS'2.006E-04'
p2491
aS'1.296E-05'
p2492
aS'-24.676760'
p2493
aS'-4.429E-05'
p2494
aS'16.52\n'
p2495
aa(lp2496
S'11'
p2497
aS'7.149E-05'
p2498
aS'5.739E-06'
p2499
aS'-24.676767'
p2500
aS'-7.188E-06'
p2501
aS'16.53\n'
p2502
aa(lp2503
S'12'
p2504
aS'3.236E-05'
p2505
aS'2.094E-06'
p2506
aS'-24.676769'
p2507
aS'-1.152E-06'
p2508
aS'16.57\n'
p2509
aa(lp2510
S'13'
p2511
aS'1.620E-05'
p2512
aS'9.038E-07'
p2513
aS'-24.676769'
p2514
aS'-1.471E-07'
p2515
aS'16.52\n'
p2516
aa(lp2517
S'14'
p2518
aS'6.442E-06'
p2519
aS'3.451E-07'
p2520
aS'-24.676769'
p2521
aS'-3.067E-08'
p2522
aS'16.57\n'
p2523
aa(lp2524
S'15'
p2525
aS'2.575E-06'
p2526
aS'1.654E-07'
p2527
aS'-24.676769'
p2528
aS'-5.569E-09'
p2529
aS'16.57\n'
p2530
aa(lp2531
S'16'
p2532
aS'1.729E-06'
p2533
aS'8.726E-08'
p2534
aS'-24.676769'
p2535
aS'-1.263E-09'
p2536
aS'16.59\n'
p2537
aa(lp2538
S'17'
p2539
aS'8.899E-07'
p2540
aS'4.257E-08'
p2541
aS'-24.676769'
p2542
aS'-3.482E-10'
p2543
aS'16.57\n'
p2544
aa(lp2545
S'18'
p2546
aS'6.352E-07'
p2547
aS'2.149E-08'
p2548
aS'-24.676769'
p2549
aS'-9.274E-11'
p2550
aS'16.58\n'
p2551
aa(lp2552
S'19'
p2553
aS'2.923E-07'
p2554
aS'1.290E-08'
p2555
aS'-24.676769'
p2556
aS'-1.996E-11'
p2557
aS'16.55\n'
p2558
aa(lp2559
S'20'
p2560
aS'1.962E-07'
p2561
aS'7.343E-09'
p2562
aS'-24.676769'
p2563
aS'-1.304E-11'
p2564
aS'16.56\n'
p2565
aa(lp2566
S'21'
p2567
aS'6.942E-08'
p2568
aS'3.678E-09'
p2569
aS'-24.676769'
p2570
aS'2.828E-12'
p2571
aS'16.36\n'
p2572
aasS'ESR'
p2573
F0.01618095
sS'ELECTROSTATIC ENERGY'
p2574
F-15.35606392
sS'EXCHANGE-CORRELATION ENERGY'
p2575
F-4.88393245
sS'LOCAL PSEUDOPOTENTIAL ENERGY'
p2576
F-24.19120631
sS'ESELF'
p2577
F16.62259502
sS'GRADIENT CORRECTION ENERGY'
p2578
F-0.14536805
sS'KINETIC ENERGY'
p2579
F17.39611115
sS'TOTAL ENERGY'
p2580
F-23.99210175
sS'N-L PSEUDOPOTENTIAL ENERGY'
p2581
F3.04298979
ssg182
Fnan
sg183
g3
(g184
g5
Ntp2582
Rp2583
(dp2584
g188
I00
sg189
g190
(g191
g2583
g184
tp2585
Rp2586
sg194
I00
sg195
S'GEOMETRY FILE / created by CPMD\n'
p2587
sg197
g190
(g198
g2583
g184
tp2588
Rp2589
sg201
(dp2590
sg203
I0
sg204
I00
sg205
(lp2591
sg207
I00
sg208
I0
sg209
(lp2592
g10
ag10
asg211
(dp2593
sg213
I2
sg214
(lp2594
g216
ag217
asg218
g219
(g220
(I0
tp2595
g222
tp2596
Rp2597
(I1
(I2
I3
tp2598
g229
I00
S'\x00\x00\x00\x00\x00\x00\x00\x00\x00\x00\x00\x00\x00\x00\x00\x00\x00\x00\x00\x00\x00\x00\x00\x00\xa1\x9d\xb5\xf823\xfb?\x00\x00\x00\x00\x00\x00\x00\x00\x00\x00\x00\x00\x00\x00\x00\x00'
p2599
tp2600
bsg234
I00
sg235
g219
(g220
(I0
tp2601
g222
tp2602
Rp2603
(I1
(I2
tp2604
g229
I00
S'\x00\x00\x00\x00\x00\x00\xf0?\x00\x00\x00\x00\x00\x00"@'
p2605
tp2606
bsg242
I00
sg11
S'H1F1'
p2607
sg244
I1
sg245
I00
sg246
g219
(g220
(I0
tp2608
g222
tp2609
Rp2610
(I1
(I1
I0
tp2611
g229
I00
g10
tp2612
bsbsg252
(dp2613
g254
(lp2614
I0
aI0
aI0
asg256
(lp2615
F0.75
aF0.75
aI0
asg258
(lp2616
F0.5
aF0.5
aF0.5
asg260
(lp2617
F0.1
aF0.25
aF0.25
asg262
(lp2618
I1
aF0.25
aI0
asg264
(lp2619
I1
aI0
aI0
assg266
S'hf_ref17'
p2620
sg268
S'.out'
p2621
sg270
S'/home/samio/project/a02_alchemy_diatomic/reproduce/production_refs/hf_ref17'
p2622
sg272
F-24.67676878
sg273
I21
sg274
g275
sbag3
(g4
g5
Ntp2623
Rp2624
(dp2625
g9
g10
sg11
S'hf_ref18.out'
p2626
sg13
(dp2627
sg15
(dp2628
g17
(lp2629
(lp2630
g20
aS'2.465E-02'
p2631
aS'3.236E-03'
p2632
aS'-23.944334'
p2633
aS'0.000E+00'
p2634
aS'17.26\n'
p2635
aa(lp2636
g27
aS'2.319E-02'
p2637
aS'1.353E-03'
p2638
aS'-24.429912'
p2639
aS'-4.856E-01'
p2640
aS'18.00\n'
p2641
aa(lp2642
g34
aS'1.402E-02'
p2643
aS'9.314E-04'
p2644
aS'-24.557461'
p2645
aS'-1.275E-01'
p2646
aS'17.80\n'
p2647
aa(lp2648
g41
aS'1.181E-02'
p2649
aS'5.884E-04'
p2650
aS'-24.614620'
p2651
aS'-5.716E-02'
p2652
aS'17.28\n'
p2653
aa(lp2654
g48
aS'4.962E-03'
p2655
aS'3.180E-04'
p2656
aS'-24.643823'
p2657
aS'-2.920E-02'
p2658
aS'16.91\n'
p2659
aa(lp2660
g55
aS'3.172E-03'
p2661
aS'1.834E-04'
p2662
aS'-24.656319'
p2663
aS'-1.250E-02'
p2664
aS'16.68\n'
p2665
aa(lp2666
g62
aS'1.780E-03'
p2667
aS'1.167E-04'
p2668
aS'-24.659041'
p2669
aS'-2.722E-03'
p2670
aS'16.56\n'
p2671
aa(lp2672
g69
aS'1.072E-03'
p2673
aS'6.327E-05'
p2674
aS'-24.659896'
p2675
aS'-8.546E-04'
p2676
aS'16.56\n'
p2677
aa(lp2678
g76
aS'4.476E-04'
p2679
aS'2.943E-05'
p2680
aS'-24.660212'
p2681
aS'-3.160E-04'
p2682
aS'16.53\n'
p2683
aa(lp2684
S'10'
p2685
aS'2.075E-04'
p2686
aS'1.377E-05'
p2687
aS'-24.660272'
p2688
aS'-6.047E-05'
p2689
aS'16.53\n'
p2690
aa(lp2691
S'11'
p2692
aS'7.247E-05'
p2693
aS'6.059E-06'
p2694
aS'-24.660282'
p2695
aS'-9.222E-06'
p2696
aS'16.57\n'
p2697
aa(lp2698
S'12'
p2699
aS'3.510E-05'
p2700
aS'2.094E-06'
p2701
aS'-24.660283'
p2702
aS'-1.498E-06'
p2703
aS'16.55\n'
p2704
aa(lp2705
S'13'
p2706
aS'1.798E-05'
p2707
aS'9.388E-07'
p2708
aS'-24.660283'
p2709
aS'-1.711E-07'
p2710
aS'16.57\n'
p2711
aa(lp2712
S'14'
p2713
aS'7.729E-06'
p2714
aS'4.174E-07'
p2715
aS'-24.660283'
p2716
aS'-3.414E-08'
p2717
aS'16.56\n'
p2718
aa(lp2719
S'15'
p2720
aS'2.775E-06'
p2721
aS'2.079E-07'
p2722
aS'-24.660283'
p2723
aS'-7.545E-09'
p2724
aS'16.57\n'
p2725
aa(lp2726
S'16'
p2727
aS'1.519E-06'
p2728
aS'1.074E-07'
p2729
aS'-24.660283'
p2730
aS'-1.805E-09'
p2731
aS'16.57\n'
p2732
aa(lp2733
S'17'
p2734
aS'7.729E-07'
p2735
aS'4.191E-08'
p2736
aS'-24.660283'
p2737
aS'-5.338E-10'
p2738
aS'16.55\n'
p2739
aa(lp2740
S'18'
p2741
aS'6.297E-07'
p2742
aS'2.153E-08'
p2743
aS'-24.660283'
p2744
aS'-8.529E-11'
p2745
aS'16.56\n'
p2746
aa(lp2747
S'19'
p2748
aS'3.821E-07'
p2749
aS'1.254E-08'
p2750
aS'-24.660283'
p2751
aS'-2.271E-11'
p2752
aS'16.54\n'
p2753
aa(lp2754
S'20'
p2755
aS'1.898E-07'
p2756
aS'8.562E-09'
p2757
aS'-24.660283'
p2758
aS'-5.500E-12'
p2759
aS'16.18\n'
p2760
aa(lp2761
S'21'
p2762
aS'5.864E-08'
p2763
aS'4.661E-09'
p2764
aS'-24.660283'
p2765
aS'-7.574E-12'
p2766
aS'15.51\n'
p2767
aasS'ESR'
p2768
F0.00944265
sS'ELECTROSTATIC ENERGY'
p2769
F-15.40483176
sS'EXCHANGE-CORRELATION ENERGY'
p2770
F-4.84836857
sS'LOCAL PSEUDOPOTENTIAL ENERGY'
p2771
F-23.95084804
sS'ESELF'
p2772
F16.62259502
sS'GRADIENT CORRECTION ENERGY'
p2773
F-0.14703561
sS'KINETIC ENERGY'
p2774
F17.21600484
sS'TOTAL ENERGY'
p2775
F-23.94433376
sS'N-L PSEUDOPOTENTIAL ENERGY'
p2776
F3.04370977
ssg182
Fnan
sg183
g3
(g184
g5
Ntp2777
Rp2778
(dp2779
g188
I00
sg189
g190
(g191
g2778
g184
tp2780
Rp2781
sg194
I00
sg195
S'GEOMETRY FILE / created by CPMD\n'
p2782
sg197
g190
(g198
g2778
g184
tp2783
Rp2784
sg201
(dp2785
sg203
I0
sg204
I00
sg205
(lp2786
sg207
I00
sg208
I0
sg209
(lp2787
g10
ag10
asg211
(dp2788
sg213
I2
sg214
(lp2789
g216
ag217
asg218
g219
(g220
(I0
tp2790
g222
tp2791
Rp2792
(I1
(I2
I3
tp2793
g229
I00
S'\x00\x00\x00\x00\x00\x00\x00\x00\x00\x00\x00\x00\x00\x00\x00\x00\x00\x00\x00\x00\x00\x00\x00\x00j&\\\xc9\xcc\xcc\xfc?\x00\x00\x00\x00\x00\x00\x00\x00\x00\x00\x00\x00\x00\x00\x00\x00'
p2794
tp2795
bsg234
I00
sg235
g219
(g220
(I0
tp2796
g222
tp2797
Rp2798
(I1
(I2
tp2799
g229
I00
S'\x00\x00\x00\x00\x00\x00\xf0?\x00\x00\x00\x00\x00\x00"@'
p2800
tp2801
bsg242
I00
sg11
S'H1F1'
p2802
sg244
I1
sg245
I00
sg246
g219
(g220
(I0
tp2803
g222
tp2804
Rp2805
(I1
(I1
I0
tp2806
g229
I00
g10
tp2807
bsbsg252
(dp2808
g254
(lp2809
I0
aI0
aI0
asg256
(lp2810
F0.75
aF0.75
aI0
asg258
(lp2811
F0.5
aF0.5
aF0.5
asg260
(lp2812
F0.1
aF0.25
aF0.25
asg262
(lp2813
I1
aF0.25
aI0
asg264
(lp2814
I1
aI0
aI0
assg266
S'hf_ref18'
p2815
sg268
S'.out'
p2816
sg270
S'/home/samio/project/a02_alchemy_diatomic/reproduce/production_refs/hf_ref18'
p2817
sg272
F-24.66028322
sg273
I21
sg274
g275
sbag3
(g4
g5
Ntp2818
Rp2819
(dp2820
g9
g10
sg11
S'hf_ref19.out'
p2821
sg13
(dp2822
sg15
(dp2823
g17
(lp2824
(lp2825
g20
aS'2.659E-02'
p2826
aS'3.234E-03'
p2827
aS'-23.892013'
p2828
aS'0.000E+00'
p2829
aS'17.93\n'
p2830
aa(lp2831
g27
aS'2.292E-02'
p2832
aS'1.349E-03'
p2833
aS'-24.398192'
p2834
aS'-5.062E-01'
p2835
aS'20.07\n'
p2836
aa(lp2837
g34
aS'1.587E-02'
p2838
aS'9.426E-04'
p2839
aS'-24.523143'
p2840
aS'-1.250E-01'
p2841
aS'21.33\n'
p2842
aa(lp2843
g41
aS'1.455E-02'
p2844
aS'6.298E-04'
p2845
aS'-24.584940'
p2846
aS'-6.180E-02'
p2847
aS'17.68\n'
p2848
aa(lp2849
g48
aS'8.371E-03'
p2850
aS'3.789E-04'
p2851
aS'-24.620621'
p2852
aS'-3.568E-02'
p2853
aS'16.45\n'
p2854
aa(lp2855
g55
aS'3.980E-03'
p2856
aS'2.138E-04'
p2857
aS'-24.639906'
p2858
aS'-1.928E-02'
p2859
aS'16.42\n'
p2860
aa(lp2861
g62
aS'2.242E-03'
p2862
aS'1.309E-04'
p2863
aS'-24.643943'
p2864
aS'-4.037E-03'
p2865
aS'16.48\n'
p2866
aa(lp2867
g69
aS'1.325E-03'
p2868
aS'7.265E-05'
p2869
aS'-24.645008'
p2870
aS'-1.064E-03'
p2871
aS'16.50\n'
p2872
aa(lp2873
g76
aS'5.625E-04'
p2874
aS'3.401E-05'
p2875
aS'-24.645447'
p2876
aS'-4.392E-04'
p2877
aS'16.55\n'
p2878
aa(lp2879
S'10'
p2880
aS'2.636E-04'
p2881
aS'1.535E-05'
p2882
aS'-24.645539'
p2883
aS'-9.191E-05'
p2884
aS'16.59\n'
p2885
aa(lp2886
S'11'
p2887
aS'9.705E-05'
p2888
aS'6.543E-06'
p2889
aS'-24.645553'
p2890
aS'-1.386E-05'
p2891
aS'16.59\n'
p2892
aa(lp2893
S'12'
p2894
aS'4.028E-05'
p2895
aS'2.313E-06'
p2896
aS'-24.645555'
p2897
aS'-2.106E-06'
p2898
aS'16.69\n'
p2899
aa(lp2900
S'13'
p2901
aS'2.333E-05'
p2902
aS'1.081E-06'
p2903
aS'-24.645555'
p2904
aS'-2.389E-07'
p2905
aS'16.62\n'
p2906
aa(lp2907
S'14'
p2908
aS'1.028E-05'
p2909
aS'5.538E-07'
p2910
aS'-24.645555'
p2911
aS'-4.712E-08'
p2912
aS'16.61\n'
p2913
aa(lp2914
S'15'
p2915
aS'3.154E-06'
p2916
aS'2.659E-07'
p2917
aS'-24.645555'
p2918
aS'-1.251E-08'
p2919
aS'16.57\n'
p2920
aa(lp2921
S'16'
p2922
aS'1.575E-06'
p2923
aS'1.349E-07'
p2924
aS'-24.645555'
p2925
aS'-2.592E-09'
p2926
aS'16.63\n'
p2927
aa(lp2928
S'17'
p2929
aS'8.287E-07'
p2930
aS'4.467E-08'
p2931
aS'-24.645555'
p2932
aS'-7.580E-10'
p2933
aS'16.48\n'
p2934
aa(lp2935
S'18'
p2936
aS'3.488E-07'
p2937
aS'2.195E-08'
p2938
aS'-24.645555'
p2939
aS'-9.752E-11'
p2940
aS'16.38\n'
p2941
aa(lp2942
S'19'
p2943
aS'2.409E-07'
p2944
aS'1.226E-08'
p2945
aS'-24.645555'
p2946
aS'-2.033E-11'
p2947
aS'16.20\n'
p2948
aa(lp2949
S'20'
p2950
aS'1.994E-07'
p2951
aS'8.361E-09'
p2952
aS'-24.645555'
p2953
aS'-3.592E-12'
p2954
aS'15.41\n'
p2955
aa(lp2956
S'21'
p2957
aS'6.252E-08'
p2958
aS'4.806E-09'
p2959
aS'-24.645555'
p2960
aS'-6.867E-12'
p2961
aS'15.43\n'
p2962
aasS'ESR'
p2963
F0.00540226
sS'ELECTROSTATIC ENERGY'
p2964
F-15.44053908
sS'EXCHANGE-CORRELATION ENERGY'
p2965
F-4.81660727
sS'LOCAL PSEUDOPOTENTIAL ENERGY'
p2966
F-23.72383591
sS'ESELF'
p2967
F16.62259502
sS'GRADIENT CORRECTION ENERGY'
p2968
F-0.14869842
sS'KINETIC ENERGY'
p2969
F17.04546647
sS'TOTAL ENERGY'
p2970
F-23.89201273
sS'N-L PSEUDOPOTENTIAL ENERGY'
p2971
F3.04350305
ssg182
Fnan
sg183
g3
(g184
g5
Ntp2972
Rp2973
(dp2974
g188
I00
sg189
g190
(g191
g2973
g184
tp2975
Rp2976
sg194
I00
sg195
S'GEOMETRY FILE / created by CPMD\n'
p2977
sg197
g190
(g198
g2973
g184
tp2978
Rp2979
sg201
(dp2980
sg203
I0
sg204
I00
sg205
(lp2981
sg207
I00
sg208
I0
sg209
(lp2982
g10
ag10
asg211
(dp2983
sg213
I2
sg214
(lp2984
g216
ag217
asg218
g219
(g220
(I0
tp2985
g222
tp2986
Rp2987
(I1
(I2
I3
tp2988
g229
I00
S'\x00\x00\x00\x00\x00\x00\x00\x00\x00\x00\x00\x00\x00\x00\x00\x00\x00\x00\x00\x00\x00\x00\x00\x001\xaf\x02\x9aff\xfe?\x00\x00\x00\x00\x00\x00\x00\x00\x00\x00\x00\x00\x00\x00\x00\x00'
p2989
tp2990
bsg234
I00
sg235
g219
(g220
(I0
tp2991
g222
tp2992
Rp2993
(I1
(I2
tp2994
g229
I00
S'\x00\x00\x00\x00\x00\x00\xf0?\x00\x00\x00\x00\x00\x00"@'
p2995
tp2996
bsg242
I00
sg11
S'H1F1'
p2997
sg244
I1
sg245
I00
sg246
g219
(g220
(I0
tp2998
g222
tp2999
Rp3000
(I1
(I1
I0
tp3001
g229
I00
g10
tp3002
bsbsg252
(dp3003
g254
(lp3004
I0
aI0
aI0
asg256
(lp3005
F0.75
aF0.75
aI0
asg258
(lp3006
F0.5
aF0.5
aF0.5
asg260
(lp3007
F0.1
aF0.25
aF0.25
asg262
(lp3008
I1
aF0.25
aI0
asg264
(lp3009
I1
aI0
aI0
assg266
S'hf_ref19'
p3010
sg268
S'.out'
p3011
sg270
S'/home/samio/project/a02_alchemy_diatomic/reproduce/production_refs/hf_ref19'
p3012
sg272
F-24.64555507
sg273
I21
sg274
g275
sbag3
(g4
g5
Ntp3013
Rp3014
(dp3015
g9
g10
sg11
S'hf_ref20.out'
p3016
sg13
(dp3017
sg15
(dp3018
g17
(lp3019
(lp3020
g20
aS'2.801E-02'
p3021
aS'3.233E-03'
p3022
aS'-23.836851'
p3023
aS'0.000E+00'
p3024
aS'17.97\n'
p3025
aa(lp3026
g27
aS'3.156E-02'
p3027
aS'1.345E-03'
p3028
aS'-24.361019'
p3029
aS'-5.242E-01'
p3030
aS'17.58\n'
p3031
aa(lp3032
g34
aS'1.766E-02'
p3033
aS'9.533E-04'
p3034
aS'-24.485177'
p3035
aS'-1.242E-01'
p3036
aS'17.12\n'
p3037
aa(lp3038
g41
aS'1.748E-02'
p3039
aS'6.703E-04'
p3040
aS'-24.551712'
p3041
aS'-6.653E-02'
p3042
aS'16.81\n'
p3043
aa(lp3044
g48
aS'1.168E-02'
p3045
aS'4.524E-04'
p3046
aS'-24.593273'
p3047
aS'-4.156E-02'
p3048
aS'16.62\n'
p3049
aa(lp3050
g55
aS'4.782E-03'
p3051
aS'2.539E-04'
p3052
aS'-24.623536'
p3053
aS'-3.026E-02'
p3054
aS'16.59\n'
p3055
aa(lp3056
g62
aS'2.583E-03'
p3057
aS'1.498E-04'
p3058
aS'-24.630348'
p3059
aS'-6.812E-03'
p3060
aS'16.54\n'
p3061
aa(lp3062
g69
aS'1.597E-03'
p3063
aS'8.533E-05'
p3064
aS'-24.631702'
p3065
aS'-1.354E-03'
p3066
aS'16.54\n'
p3067
aa(lp3068
g76
aS'7.186E-04'
p3069
aS'4.114E-05'
p3070
aS'-24.632300'
p3071
aS'-5.973E-04'
p3072
aS'16.59\n'
p3073
aa(lp3074
S'10'
p3075
aS'2.945E-04'
p3076
aS'1.797E-05'
p3077
aS'-24.632454'
p3078
aS'-1.539E-04'
p3079
aS'16.61\n'
p3080
aa(lp3081
S'11'
p3082
aS'1.228E-04'
p3083
aS'7.409E-06'
p3084
aS'-24.632478'
p3085
aS'-2.461E-05'
p3086
aS'16.61\n'
p3087
aa(lp3088
S'12'
p3089
aS'4.756E-05'
p3090
aS'2.839E-06'
p3091
aS'-24.632482'
p3092
aS'-3.624E-06'
p3093
aS'16.66\n'
p3094
aa(lp3095
S'13'
p3096
aS'2.523E-05'
p3097
aS'1.328E-06'
p3098
aS'-24.632482'
p3099
aS'-3.976E-07'
p3100
aS'16.63\n'
p3101
aa(lp3102
S'14'
p3103
aS'1.279E-05'
p3104
aS'7.574E-07'
p3105
aS'-24.632482'
p3106
aS'-8.094E-08'
p3107
aS'16.64\n'
p3108
aa(lp3109
S'15'
p3110
aS'3.597E-06'
p3111
aS'3.637E-07'
p3112
aS'-24.632482'
p3113
aS'-2.154E-08'
p3114
aS'16.62\n'
p3115
aa(lp3116
S'16'
p3117
aS'1.757E-06'
p3118
aS'1.789E-07'
p3119
aS'-24.632482'
p3120
aS'-4.499E-09'
p3121
aS'16.56\n'
p3122
aa(lp3123
S'17'
p3124
aS'1.450E-06'
p3125
aS'5.727E-08'
p3126
aS'-24.632482'
p3127
aS'-1.190E-09'
p3128
aS'16.58\n'
p3129
aa(lp3130
S'18'
p3131
aS'4.996E-07'
p3132
aS'2.247E-08'
p3133
aS'-24.632482'
p3134
aS'-1.480E-10'
p3135
aS'16.42\n'
p3136
aa(lp3137
S'19'
p3138
aS'3.788E-07'
p3139
aS'1.223E-08'
p3140
aS'-24.632482'
p3141
aS'-2.774E-11'
p3142
aS'15.87\n'
p3143
aa(lp3144
S'20'
p3145
aS'1.810E-07'
p3146
aS'6.792E-09'
p3147
aS'-24.632482'
p3148
aS'-8.960E-12'
p3149
aS'15.08\n'
p3150
aa(lp3151
S'21'
p3152
aS'9.467E-08'
p3153
aS'4.729E-09'
p3154
aS'-24.632482'
p3155
aS'2.615E-12'
p3156
aS'14.61\n'
p3157
aasS'ESR'
p3158
F0.00302869
sS'ELECTROSTATIC ENERGY'
p3159
F-15.46435129
sS'EXCHANGE-CORRELATION ENERGY'
p3160
F-4.78879738
sS'LOCAL PSEUDOPOTENTIAL ENERGY'
p3161
F-23.51353532
sS'ESELF'
p3162
F16.62259502
sS'GRADIENT CORRECTION ENERGY'
p3163
F-0.15031455
sS'KINETIC ENERGY'
p3164
F16.8870526
sS'TOTAL ENERGY'
p3165
F-23.83685126
sS'N-L PSEUDOPOTENTIAL ENERGY'
p3166
F3.04278013
ssg182
Fnan
sg183
g3
(g184
g5
Ntp3167
Rp3168
(dp3169
g188
I00
sg189
g190
(g191
g3168
g184
tp3170
Rp3171
sg194
I00
sg195
S'GEOMETRY FILE / created by CPMD\n'
p3172
sg197
g190
(g198
g3168
g184
tp3173
Rp3174
sg201
(dp3175
sg203
I0
sg204
I00
sg205
(lp3176
sg207
I00
sg208
I0
sg209
(lp3177
g10
ag10
asg211
(dp3178
sg213
I2
sg214
(lp3179
g216
ag217
asg218
g219
(g220
(I0
tp3180
g222
tp3181
Rp3182
(I1
(I2
I3
tp3183
g229
I00
S'\x00\x00\x00\x00\x00\x00\x00\x00\x00\x00\x00\x00\x00\x00\x00\x00\x00\x00\x00\x00\x00\x00\x00\x00\x07p\x9c\xdc\xff\xff\xff?\x00\x00\x00\x00\x00\x00\x00\x00\x00\x00\x00\x00\x00\x00\x00\x00'
p3184
tp3185
bsg234
I00
sg235
g219
(g220
(I0
tp3186
g222
tp3187
Rp3188
(I1
(I2
tp3189
g229
I00
S'\x00\x00\x00\x00\x00\x00\xf0?\x00\x00\x00\x00\x00\x00"@'
p3190
tp3191
bsg242
I00
sg11
S'H1F1'
p3192
sg244
I1
sg245
I00
sg246
g219
(g220
(I0
tp3193
g222
tp3194
Rp3195
(I1
(I1
I0
tp3196
g229
I00
g10
tp3197
bsbsg252
(dp3198
g254
(lp3199
I0
aI0
aI0
asg256
(lp3200
F0.75
aF0.75
aI0
asg258
(lp3201
F0.5
aF0.5
aF0.5
asg260
(lp3202
F0.1
aF0.25
aF0.25
asg262
(lp3203
I1
aF0.25
aI0
asg264
(lp3204
I1
aI0
aI0
assg266
S'hf_ref20'
p3205
sg268
S'.out'
p3206
sg270
S'/home/samio/project/a02_alchemy_diatomic/reproduce/production_refs/hf_ref20'
p3207
sg272
F-24.63248224
sg273
I21
sg274
g275
sbag3
(g4
g5
Ntp3208
Rp3209
(dp3210
g9
g10
sg11
S'hf_ref21.out'
p3211
sg13
(dp3212
sg15
(dp3213
g17
(lp3214
(lp3215
g20
aS'2.856E-02'
p3216
aS'3.231E-03'
p3217
aS'-23.781035'
p3218
aS'0.000E+00'
p3219
aS'20.16\n'
p3220
aa(lp3221
g27
aS'2.161E-02'
p3222
aS'1.340E-03'
p3223
aS'-24.318387'
p3224
aS'-5.374E-01'
p3225
aS'18.84\n'
p3226
aa(lp3227
g34
aS'1.907E-02'
p3228
aS'9.623E-04'
p3229
aS'-24.443172'
p3230
aS'-1.248E-01'
p3231
aS'17.87\n'
p3232
aa(lp3233
g41
aS'2.043E-02'
p3234
aS'7.068E-04'
p3235
aS'-24.514384'
p3236
aS'-7.121E-02'
p3237
aS'17.42\n'
p3238
aa(lp3239
g48
aS'1.559E-02'
p3240
aS'5.282E-04'
p3241
aS'-24.560113'
p3242
aS'-4.573E-02'
p3243
aS'16.74\n'
p3244
aa(lp3245
g55
aS'5.540E-03'
p3246
aS'3.197E-04'
p3247
aS'-24.604434'
p3248
aS'-4.432E-02'
p3249
aS'16.40\n'
p3250
aa(lp3251
g62
aS'2.880E-03'
p3252
aS'1.813E-04'
p3253
aS'-24.617909'
p3254
aS'-1.347E-02'
p3255
aS'16.46\n'
p3256
aa(lp3257
g69
aS'1.739E-03'
p3258
aS'1.043E-04'
p3259
aS'-24.619795'
p3260
aS'-1.886E-03'
p3261
aS'16.51\n'
p3262
aa(lp3263
g76
aS'8.599E-04'
p3264
aS'5.302E-05'
p3265
aS'-24.620581'
p3266
aS'-7.858E-04'
p3267
aS'16.48\n'
p3268
aa(lp3269
S'10'
p3270
aS'3.494E-04'
p3271
aS'2.304E-05'
p3272
aS'-24.620863'
p3273
aS'-2.825E-04'
p3274
aS'16.66\n'
p3275
aa(lp3276
S'11'
p3277
aS'1.962E-04'
p3278
aS'9.215E-06'
p3279
aS'-24.620917'
p3280
aS'-5.364E-05'
p3281
aS'16.63\n'
p3282
aa(lp3283
S'12'
p3284
aS'9.390E-05'
p3285
aS'3.926E-06'
p3286
aS'-24.620925'
p3287
aS'-7.498E-06'
p3288
aS'16.59\n'
p3289
aa(lp3290
S'13'
p3291
aS'3.469E-05'
p3292
aS'1.745E-06'
p3293
aS'-24.620926'
p3294
aS'-9.403E-07'
p3295
aS'16.62\n'
p3296
aa(lp3297
S'14'
p3298
aS'1.628E-05'
p3299
aS'1.033E-06'
p3300
aS'-24.620926'
p3301
aS'-1.872E-07'
p3302
aS'16.56\n'
p3303
aa(lp3304
S'15'
p3305
aS'5.472E-06'
p3306
aS'5.197E-07'
p3307
aS'-24.620926'
p3308
aS'-4.643E-08'
p3309
aS'16.57\n'
p3310
aa(lp3311
S'16'
p3312
aS'2.992E-06'
p3313
aS'2.436E-07'
p3314
aS'-24.620926'
p3315
aS'-9.143E-09'
p3316
aS'16.35\n'
p3317
aa(lp3318
S'17'
p3319
aS'1.153E-06'
p3320
aS'1.016E-07'
p3321
aS'-24.620926'
p3322
aS'-2.029E-09'
p3323
aS'16.37\n'
p3324
aa(lp3325
S'18'
p3326
aS'6.317E-07'
p3327
aS'3.033E-08'
p3328
aS'-24.620926'
p3329
aS'-3.847E-10'
p3330
aS'15.96\n'
p3331
aa(lp3332
S'19'
p3333
aS'2.783E-07'
p3334
aS'1.452E-08'
p3335
aS'-24.620926'
p3336
aS'-5.066E-11'
p3337
aS'15.19\n'
p3338
aa(lp3339
S'20'
p3340
aS'1.669E-07'
p3341
aS'6.755E-09'
p3342
aS'-24.620926'
p3343
aS'-1.263E-11'
p3344
aS'15.00\n'
p3345
aa(lp3346
S'21'
p3347
aS'1.245E-07'
p3348
aS'4.570E-09'
p3349
aS'-24.620926'
p3350
aS'-1.837E-12'
p3351
aS'14.65\n'
p3352
aa(lp3353
S'22'
p3354
aS'4.384E-08'
p3355
aS'2.217E-09'
p3356
aS'-24.620926'
p3357
aS'-4.228E-13'
p3358
aS'15.21\n'
p3359
aasS'ESR'
p3360
F0.00166327
sS'ELECTROSTATIC ENERGY'
p3361
F-15.4778024
sS'EXCHANGE-CORRELATION ENERGY'
p3362
F-4.76502465
sS'LOCAL PSEUDOPOTENTIAL ENERGY'
p3363
F-23.32374001
sS'ESELF'
p3364
F16.62259502
sS'GRADIENT CORRECTION ENERGY'
p3365
F-0.15183492
sS'KINETIC ENERGY'
p3366
F16.74370357
sS'TOTAL ENERGY'
p3367
F-23.78103526
sS'N-L PSEUDOPOTENTIAL ENERGY'
p3368
F3.04182823
ssg182
Fnan
sg183
g3
(g184
g5
Ntp3369
Rp3370
(dp3371
g188
I00
sg189
g190
(g191
g3370
g184
tp3372
Rp3373
sg194
I00
sg195
S'GEOMETRY FILE / created by CPMD\n'
p3374
sg197
g190
(g198
g3370
g184
tp3375
Rp3376
sg201
(dp3377
sg203
I0
sg204
I00
sg205
(lp3378
sg207
I00
sg208
I0
sg209
(lp3379
g10
ag10
asg211
(dp3380
sg213
I2
sg214
(lp3381
g216
ag217
asg218
g219
(g220
(I0
tp3382
g222
tp3383
Rp3384
(I1
(I2
I3
tp3385
g229
I00
S'\x00\x00\x00\x00\x00\x00\x00\x00\x00\x00\x00\x00\x00\x00\x00\x00\x00\x00\x00\x00\x00\x00\x00\x00g|\xa1\xd6\xcc\xcc\x00@\x00\x00\x00\x00\x00\x00\x00\x00\x00\x00\x00\x00\x00\x00\x00\x00'
p3386
tp3387
bsg234
I00
sg235
g219
(g220
(I0
tp3388
g222
tp3389
Rp3390
(I1
(I2
tp3391
g229
I00
S'\x00\x00\x00\x00\x00\x00\xf0?\x00\x00\x00\x00\x00\x00"@'
p3392
tp3393
bsg242
I00
sg11
S'H1F1'
p3394
sg244
I1
sg245
I00
sg246
g219
(g220
(I0
tp3395
g222
tp3396
Rp3397
(I1
(I1
I0
tp3398
g229
I00
g10
tp3399
bsbsg252
(dp3400
g254
(lp3401
I0
aI0
aI0
asg256
(lp3402
F0.75
aF0.75
aI0
asg258
(lp3403
F0.5
aF0.5
aF0.5
asg260
(lp3404
F0.1
aF0.25
aF0.25
asg262
(lp3405
I1
aF0.25
aI0
asg264
(lp3406
I1
aI0
aI0
assg266
S'hf_ref21'
p3407
sg268
S'.out'
p3408
sg270
S'/home/samio/project/a02_alchemy_diatomic/reproduce/production_refs/hf_ref21'
p3409
sg272
F-24.62092577
sg273
I22
sg274
g275
sbag3
(g4
g5
Ntp3410
Rp3411
(dp3412
g9
g10
sg11
S'hf_ref22.out'
p3413
sg13
(dp3414
sg15
(dp3415
g17
(lp3416
(lp3417
g20
aS'2.821E-02'
p3418
aS'3.228E-03'
p3419
aS'-23.726880'
p3420
aS'0.000E+00'
p3421
aS'17.53\n'
p3422
aa(lp3423
g27
aS'2.110E-02'
p3424
aS'1.333E-03'
p3425
aS'-24.272221'
p3426
aS'-5.453E-01'
p3427
aS'16.95\n'
p3428
aa(lp3429
g34
aS'1.973E-02'
p3430
aS'9.672E-04'
p3431
aS'-24.397801'
p3432
aS'-1.256E-01'
p3433
aS'16.77\n'
p3434
aa(lp3435
g41
aS'2.294E-02'
p3436
aS'7.341E-04'
p3437
aS'-24.473438'
p3438
aS'-7.564E-02'
p3439
aS'16.61\n'
p3440
aa(lp3441
g48
aS'1.945E-02'
p3442
aS'5.933E-04'
p3443
aS'-24.521473'
p3444
aS'-4.804E-02'
p3445
aS'16.53\n'
p3446
aa(lp3447
g55
aS'9.148E-03'
p3448
aS'4.086E-04'
p3449
aS'-24.578647'
p3450
aS'-5.717E-02'
p3451
aS'16.54\n'
p3452
aa(lp3453
g62
aS'5.056E-03'
p3454
aS'2.280E-04'
p3455
aS'-24.606021'
p3456
aS'-2.737E-02'
p3457
aS'16.55\n'
p3458
aa(lp3459
g69
aS'3.067E-03'
p3460
aS'1.295E-04'
p3461
aS'-24.609122'
p3462
aS'-3.101E-03'
p3463
aS'16.57\n'
p3464
aa(lp3465
g76
aS'1.797E-03'
p3466
aS'7.292E-05'
p3467
aS'-24.610010'
p3468
aS'-8.877E-04'
p3469
aS'16.55\n'
p3470
aa(lp3471
S'10'
p3472
aS'6.567E-04'
p3473
aS'3.371E-05'
p3474
aS'-24.610573'
p3475
aS'-5.630E-04'
p3476
aS'16.63\n'
p3477
aa(lp3478
S'11'
p3479
aS'4.068E-04'
p3480
aS'1.309E-05'
p3481
aS'-24.610731'
p3482
aS'-1.585E-04'
p3483
aS'16.64\n'
p3484
aa(lp3485
S'12'
p3486
aS'2.509E-04'
p3487
aS'6.946E-06'
p3488
aS'-24.610748'
p3489
aS'-1.640E-05'
p3490
aS'16.65\n'
p3491
aa(lp3492
S'13'
p3493
aS'6.891E-05'
p3494
aS'2.903E-06'
p3495
aS'-24.610753'
p3496
aS'-4.756E-06'
p3497
aS'16.62\n'
p3498
aa(lp3499
S'14'
p3500
aS'4.438E-05'
p3501
aS'1.416E-06'
p3502
aS'-24.610753'
p3503
aS'-7.208E-07'
p3504
aS'16.65\n'
p3505
aa(lp3506
S'15'
p3507
aS'1.394E-05'
p3508
aS'8.255E-07'
p3509
aS'-24.610753'
p3510
aS'-1.552E-07'
p3511
aS'16.59\n'
p3512
aa(lp3513
S'16'
p3514
aS'7.009E-06'
p3515
aS'4.033E-07'
p3516
aS'-24.610753'
p3517
aS'-2.221E-08'
p3518
aS'16.57\n'
p3519
aa(lp3520
S'17'
p3521
aS'2.611E-06'
p3522
aS'2.023E-07'
p3523
aS'-24.610753'
p3524
aS'-5.305E-09'
p3525
aS'16.39\n'
p3526
aa(lp3527
S'18'
p3528
aS'1.353E-06'
p3529
aS'7.506E-08'
p3530
aS'-24.610753'
p3531
aS'-1.290E-09'
p3532
aS'15.78\n'
p3533
aa(lp3534
S'19'
p3535
aS'5.535E-07'
p3536
aS'2.082E-08'
p3537
aS'-24.610753'
p3538
aS'-2.347E-10'
p3539
aS'14.80\n'
p3540
aa(lp3541
S'20'
p3542
aS'3.192E-07'
p3543
aS'1.094E-08'
p3544
aS'-24.610753'
p3545
aS'-2.098E-11'
p3546
aS'14.55\n'
p3547
aa(lp3548
S'21'
p3549
aS'1.114E-07'
p3550
aS'4.751E-09'
p3551
aS'-24.610753'
p3552
aS'-7.319E-12'
p3553
aS'14.39\n'
p3554
aa(lp3555
S'22'
p3556
aS'5.073E-08'
p3557
aS'3.049E-09'
p3558
aS'-24.610753'
p3559
aS'2.412E-12'
p3560
aS'14.40\n'
p3561
aasS'ESR'
p3562
F0.00089444
sS'ELECTROSTATIC ENERGY'
p3563
F-15.48283804
sS'EXCHANGE-CORRELATION ENERGY'
p3564
F-4.74522434
sS'LOCAL PSEUDOPOTENTIAL ENERGY'
p3565
F-23.15750434
sS'ESELF'
p3566
F16.62259502
sS'GRADIENT CORRECTION ENERGY'
p3567
F-0.1532157
sS'KINETIC ENERGY'
p3568
F16.61785427
sS'TOTAL ENERGY'
p3569
F-23.72688022
sS'N-L PSEUDOPOTENTIAL ENERGY'
p3570
F3.04083224
ssg182
Fnan
sg183
g3
(g184
g5
Ntp3571
Rp3572
(dp3573
g188
I00
sg189
g190
(g191
g3572
g184
tp3574
Rp3575
sg194
I00
sg195
S'GEOMETRY FILE / created by CPMD\n'
p3576
sg197
g190
(g198
g3572
g184
tp3577
Rp3578
sg201
(dp3579
sg203
I0
sg204
I00
sg205
(lp3580
sg207
I00
sg208
I0
sg209
(lp3581
g10
ag10
asg211
(dp3582
sg213
I2
sg214
(lp3583
g216
ag217
asg218
g219
(g220
(I0
tp3584
g222
tp3585
Rp3586
(I1
(I2
I3
tp3587
g229
I00
S'\x00\x00\x00\x00\x00\x00\x00\x00\x00\x00\x00\x00\x00\x00\x00\x00\x00\x00\x00\x00\x00\x00\x00\x00\xd1\\\xeew\x99\x99\x01@\x00\x00\x00\x00\x00\x00\x00\x00\x00\x00\x00\x00\x00\x00\x00\x00'
p3588
tp3589
bsg234
I00
sg235
g219
(g220
(I0
tp3590
g222
tp3591
Rp3592
(I1
(I2
tp3593
g229
I00
S'\x00\x00\x00\x00\x00\x00\xf0?\x00\x00\x00\x00\x00\x00"@'
p3594
tp3595
bsg242
I00
sg11
S'H1F1'
p3596
sg244
I1
sg245
I00
sg246
g219
(g220
(I0
tp3597
g222
tp3598
Rp3599
(I1
(I1
I0
tp3600
g229
I00
g10
tp3601
bsbsg252
(dp3602
g254
(lp3603
I0
aI0
aI0
asg256
(lp3604
F0.75
aF0.75
aI0
asg258
(lp3605
F0.5
aF0.5
aF0.5
asg260
(lp3606
F0.1
aF0.25
aF0.25
asg262
(lp3607
I1
aF0.25
aI0
asg264
(lp3608
I1
aI0
aI0
assg266
S'hf_ref22'
p3609
sg268
S'.out'
p3610
sg270
S'/home/samio/project/a02_alchemy_diatomic/reproduce/production_refs/hf_ref22'
p3611
sg272
F-24.61075344
sg273
I22
sg274
g275
sbag3
(g4
g5
Ntp3612
Rp3613
(dp3614
g9
g10
sg11
S'hf_ref23.out'
p3615
sg13
(dp3616
sg15
(dp3617
g17
(lp3618
(lp3619
g20
aS'2.706E-02'
p3620
aS'3.224E-03'
p3621
aS'-23.676517'
p3622
aS'0.000E+00'
p3623
aS'18.41\n'
p3624
aa(lp3625
g27
aS'2.036E-02'
p3626
aS'1.322E-03'
p3627
aS'-24.223899'
p3628
aS'-5.474E-01'
p3629
aS'17.90\n'
p3630
aa(lp3631
g34
aS'1.932E-02'
p3632
aS'9.676E-04'
p3633
aS'-24.349963'
p3634
aS'-1.261E-01'
p3635
aS'17.31\n'
p3636
aa(lp3637
g41
aS'2.464E-02'
p3638
aS'7.498E-04'
p3639
aS'-24.429464'
p3640
aS'-7.950E-02'
p3641
aS'16.80\n'
p3642
aa(lp3643
g48
aS'2.260E-02'
p3644
aS'6.405E-04'
p3645
aS'-24.478930'
p3646
aS'-4.947E-02'
p3647
aS'16.50\n'
p3648
aa(lp3649
g55
aS'1.531E-02'
p3650
aS'5.067E-04'
p3651
aS'-24.540757'
p3652
aS'-6.183E-02'
p3653
aS'16.55\n'
p3654
aa(lp3655
g62
aS'5.544E-03'
p3656
aS'3.020E-04'
p3657
aS'-24.592277'
p3658
aS'-5.152E-02'
p3659
aS'16.59\n'
p3660
aa(lp3661
g69
aS'3.589E-03'
p3662
aS'1.617E-04'
p3663
aS'-24.599449'
p3664
aS'-7.172E-03'
p3665
aS'16.65\n'
p3666
aa(lp3667
g76
aS'2.157E-03'
p3668
aS'1.016E-04'
p3669
aS'-24.600356'
p3670
aS'-9.068E-04'
p3671
aS'16.70\n'
p3672
aa(lp3673
S'10'
p3674
aS'1.132E-03'
p3675
aS'5.234E-05'
p3676
aS'-24.601312'
p3677
aS'-9.564E-04'
p3678
aS'16.75\n'
p3679
aa(lp3680
S'11'
p3681
aS'3.652E-04'
p3682
aS'2.206E-05'
p3683
aS'-24.601776'
p3684
aS'-4.636E-04'
p3685
aS'16.75\n'
p3686
aa(lp3687
S'12'
p3688
aS'5.403E-04'
p3689
aS'1.185E-05'
p3690
aS'-24.601831'
p3691
aS'-5.543E-05'
p3692
aS'16.67\n'
p3693
aa(lp3694
S'13'
p3695
aS'2.016E-04'
p3696
aS'5.061E-06'
p3697
aS'-24.601853'
p3698
aS'-2.167E-05'
p3699
aS'16.67\n'
p3700
aa(lp3701
S'14'
p3702
aS'6.737E-05'
p3703
aS'2.112E-06'
p3704
aS'-24.601856'
p3705
aS'-2.823E-06'
p3706
aS'16.68\n'
p3707
aa(lp3708
S'15'
p3709
aS'2.972E-05'
p3710
aS'1.257E-06'
p3711
aS'-24.601856'
p3712
aS'-5.959E-07'
p3713
aS'16.60\n'
p3714
aa(lp3715
S'16'
p3716
aS'1.412E-05'
p3717
aS'6.894E-07'
p3718
aS'-24.601856'
p3719
aS'-7.534E-08'
p3720
aS'16.46\n'
p3721
aa(lp3722
S'17'
p3723
aS'6.334E-06'
p3724
aS'3.576E-07'
p3725
aS'-24.601856'
p3726
aS'-1.469E-08'
p3727
aS'16.43\n'
p3728
aa(lp3729
S'18'
p3730
aS'2.792E-06'
p3731
aS'1.645E-07'
p3732
aS'-24.601856'
p3733
aS'-3.945E-09'
p3734
aS'15.65\n'
p3735
aa(lp3736
S'19'
p3737
aS'1.648E-06'
p3738
aS'7.065E-08'
p3739
aS'-24.601856'
p3740
aS'-8.820E-10'
p3741
aS'15.30\n'
p3742
aa(lp3743
S'20'
p3744
aS'7.777E-07'
p3745
aS'2.675E-08'
p3746
aS'-24.601856'
p3747
aS'-2.164E-10'
p3748
aS'14.82\n'
p3749
aa(lp3750
S'21'
p3751
aS'4.645E-07'
p3752
aS'1.523E-08'
p3753
aS'-24.601856'
p3754
aS'-2.840E-11'
p3755
aS'14.56\n'
p3756
aa(lp3757
S'22'
p3758
aS'7.943E-08'
p3759
aS'3.695E-09'
p3760
aS'-24.601856'
p3761
aS'-1.113E-11'
p3762
aS'15.67\n'
p3763
aasS'ESR'
p3764
F0.00047086
sS'ELECTROSTATIC ENERGY'
p3765
F-15.48160108
sS'EXCHANGE-CORRELATION ENERGY'
p3766
F-4.72918319
sS'LOCAL PSEUDOPOTENTIAL ENERGY'
p3767
F-23.01667838
sS'ESELF'
p3768
F16.62259502
sS'GRADIENT CORRECTION ENERGY'
p3769
F-0.15442225
sS'KINETIC ENERGY'
p3770
F16.51103867
sS'TOTAL ENERGY'
p3771
F-23.67651722
sS'N-L PSEUDOPOTENTIAL ENERGY'
p3772
F3.03990676
ssg182
Fnan
sg183
g3
(g184
g5
Ntp3773
Rp3774
(dp3775
g188
I00
sg189
g190
(g191
g3774
g184
tp3776
Rp3777
sg194
I00
sg195
S'GEOMETRY FILE / created by CPMD\n'
p3778
sg197
g190
(g198
g3774
g184
tp3779
Rp3780
sg201
(dp3781
sg203
I0
sg204
I00
sg205
(lp3782
sg207
I00
sg208
I0
sg209
(lp3783
g10
ag10
asg211
(dp3784
sg213
I2
sg214
(lp3785
g216
ag217
asg218
g219
(g220
(I0
tp3786
g222
tp3787
Rp3788
(I1
(I2
I3
tp3789
g229
I00
S'\x00\x00\x00\x00\x00\x00\x00\x00\x00\x00\x00\x00\x00\x00\x00\x00\x00\x00\x00\x00\x00\x00\x00\x006\xa1A`ff\x02@\x00\x00\x00\x00\x00\x00\x00\x00\x00\x00\x00\x00\x00\x00\x00\x00'
p3790
tp3791
bsg234
I00
sg235
g219
(g220
(I0
tp3792
g222
tp3793
Rp3794
(I1
(I2
tp3795
g229
I00
S'\x00\x00\x00\x00\x00\x00\xf0?\x00\x00\x00\x00\x00\x00"@'
p3796
tp3797
bsg242
I00
sg11
S'H1F1'
p3798
sg244
I1
sg245
I00
sg246
g219
(g220
(I0
tp3799
g222
tp3800
Rp3801
(I1
(I1
I0
tp3802
g229
I00
g10
tp3803
bsbsg252
(dp3804
g254
(lp3805
I0
aI0
aI0
asg256
(lp3806
F0.75
aF0.75
aI0
asg258
(lp3807
F0.5
aF0.5
aF0.5
asg260
(lp3808
F0.1
aF0.25
aF0.25
asg262
(lp3809
I1
aF0.25
aI0
asg264
(lp3810
I1
aI0
aI0
assg266
S'hf_ref23'
p3811
sg268
S'.out'
p3812
sg270
S'/home/samio/project/a02_alchemy_diatomic/reproduce/production_refs/hf_ref23'
p3813
sg272
F-24.60185634
sg273
I22
sg274
g275
sbaa(lp3814
g3
(g4
g5
Ntp3815
Rp3816
(dp3817
g9
g10
sg11
S'hcl_ref05.out'
p3818
sg13
(dp3819
sg15
(dp3820
g17
(lp3821
(lp3822
g20
aS'2.700E-02'
p3823
aS'1.754E-03'
p3824
aS'-12.721332'
p3825
aS'0.000E+00'
p3826
aS'25.40\n'
p3827
aa(lp3828
g27
aS'1.650E-02'
p3829
aS'8.632E-04'
p3830
aS'-13.150213'
p3831
aS'-4.289E-01'
p3832
aS'24.87\n'
p3833
aa(lp3834
g34
aS'1.912E-02'
p3835
aS'5.380E-04'
p3836
aS'-13.228580'
p3837
aS'-7.837E-02'
p3838
aS'25.09\n'
p3839
aa(lp3840
g41
aS'1.005E-02'
p3841
aS'3.291E-04'
p3842
aS'-13.260964'
p3843
aS'-3.238E-02'
p3844
aS'25.00\n'
p3845
aa(lp3846
g48
aS'6.965E-03'
p3847
aS'1.872E-04'
p3848
aS'-13.273568'
p3849
aS'-1.260E-02'
p3850
aS'25.40\n'
p3851
aa(lp3852
g55
aS'3.133E-03'
p3853
aS'1.178E-04'
p3854
aS'-13.277028'
p3855
aS'-3.460E-03'
p3856
aS'25.29\n'
p3857
aa(lp3858
g62
aS'1.916E-03'
p3859
aS'6.500E-05'
p3860
aS'-13.278712'
p3861
aS'-1.685E-03'
p3862
aS'25.86\n'
p3863
aa(lp3864
g69
aS'6.965E-04'
p3865
aS'3.106E-05'
p3866
aS'-13.279359'
p3867
aS'-6.469E-04'
p3868
aS'24.22\n'
p3869
aa(lp3870
g76
aS'2.643E-04'
p3871
aS'1.745E-05'
p3872
aS'-13.279503'
p3873
aS'-1.442E-04'
p3874
aS'24.73\n'
p3875
aa(lp3876
S'10'
p3877
aS'1.680E-04'
p3878
aS'1.119E-05'
p3879
aS'-13.279542'
p3880
aS'-3.896E-05'
p3881
aS'24.94\n'
p3882
aa(lp3883
S'11'
p3884
aS'1.153E-04'
p3885
aS'6.354E-06'
p3886
aS'-13.279564'
p3887
aS'-2.149E-05'
p3888
aS'25.06\n'
p3889
aa(lp3890
S'12'
p3891
aS'5.691E-05'
p3892
aS'3.586E-06'
p3893
aS'-13.279571'
p3894
aS'-7.343E-06'
p3895
aS'23.99\n'
p3896
aa(lp3897
S'13'
p3898
aS'4.103E-05'
p3899
aS'1.724E-06'
p3900
aS'-13.279573'
p3901
aS'-1.681E-06'
p3902
aS'24.20\n'
p3903
aa(lp3904
S'14'
p3905
aS'1.701E-05'
p3906
aS'1.002E-06'
p3907
aS'-13.279573'
p3908
aS'-3.221E-07'
p3909
aS'24.46\n'
p3910
aa(lp3911
S'15'
p3912
aS'5.196E-06'
p3913
aS'3.822E-07'
p3914
aS'-13.279573'
p3915
aS'-9.534E-08'
p3916
aS'24.30\n'
p3917
aa(lp3918
S'16'
p3919
aS'4.067E-06'
p3920
aS'1.675E-07'
p3921
aS'-13.279573'
p3922
aS'-1.223E-08'
p3923
aS'23.48\n'
p3924
aa(lp3925
S'17'
p3926
aS'1.209E-06'
p3927
aS'9.768E-08'
p3928
aS'-13.279573'
p3929
aS'-2.364E-09'
p3930
aS'22.27\n'
p3931
aa(lp3932
S'18'
p3933
aS'9.408E-07'
p3934
aS'4.914E-08'
p3935
aS'-13.279573'
p3936
aS'-1.081E-09'
p3937
aS'21.26\n'
p3938
aa(lp3939
S'19'
p3940
aS'1.378E-06'
p3941
aS'2.736E-08'
p3942
aS'-13.279573'
p3943
aS'-2.802E-10'
p3944
aS'19.74\n'
p3945
aa(lp3946
S'20'
p3947
aS'6.339E-07'
p3948
aS'1.489E-08'
p3949
aS'-13.279573'
p3950
aS'-8.801E-11'
p3951
aS'19.42\n'
p3952
aa(lp3953
S'21'
p3954
aS'1.950E-07'
p3955
aS'8.509E-09'
p3956
aS'-13.279573'
p3957
aS'-2.461E-11'
p3958
aS'19.30\n'
p3959
aa(lp3960
S'22'
p3961
aS'7.992E-08'
p3962
aS'4.694E-09'
p3963
aS'-13.279573'
p3964
aS'-5.890E-12'
p3965
aS'19.28\n'
p3966
aasS'ESR'
p3967
F3.19347022
sS'ELECTROSTATIC ENERGY'
p3968
F-12.73822344
sS'EXCHANGE-CORRELATION ENERGY'
p3969
F-3.49674992
sS'LOCAL PSEUDOPOTENTIAL ENERGY'
p3970
F-7.91509179
sS'ESELF'
p3971
F16.62259502
sS'GRADIENT CORRECTION ENERGY'
p3972
F-0.07661172
sS'KINETIC ENERGY'
p3973
F6.9228971
sS'TOTAL ENERGY'
p3974
F-12.72133178
sS'N-L PSEUDOPOTENTIAL ENERGY'
p3975
F4.50583627
ssg182
Fnan
sg183
g3
(g184
g5
Ntp3976
Rp3977
(dp3978
g188
I00
sg189
g190
(g191
g3977
g184
tp3979
Rp3980
sg194
I00
sg195
S'GEOMETRY FILE / created by CPMD\n'
p3981
sg197
g190
(g198
g3977
g184
tp3982
Rp3983
sg201
(dp3984
sg203
I0
sg204
I00
sg205
(lp3985
sg207
I00
sg208
I0
sg209
(lp3986
g10
ag10
asg211
(dp3987
sg213
I2
sg214
(lp3988
g216
aS'Cl'
p3989
asg218
g219
(g220
(I0
tp3990
g222
tp3991
Rp3992
(I1
(I2
I3
tp3993
g229
I00
S'\x00\x00\x00\x00\x00\x00\x00\x00\x00\x00\x00\x00\x00\x00\x00\x00\x00\x00\x00\x00\x00\x00\x00\x00\x07p\x9c\xdc\xff\xff\xdf?\x00\x00\x00\x00\x00\x00\x00\x00\x00\x00\x00\x00\x00\x00\x00\x00'
p3994
tp3995
bsg234
I00
sg235
g219
(g220
(I0
tp3996
g222
tp3997
Rp3998
(I1
(I2
tp3999
g229
I00
S'\x00\x00\x00\x00\x00\x00\xf0?\x00\x00\x00\x00\x00\x001@'
p4000
tp4001
bsg242
I00
sg11
S'H1Cl1'
p4002
sg244
I1
sg245
I00
sg246
g219
(g220
(I0
tp4003
g222
tp4004
Rp4005
(I1
(I1
I0
tp4006
g229
I00
g10
tp4007
bsbsg252
(dp4008
g254
(lp4009
I0
aI0
aI0
asg256
(lp4010
F0.75
aF0.75
aI0
asg258
(lp4011
F0.5
aF0.5
aF0.5
asg260
(lp4012
F0.1
aF0.25
aF0.25
asg262
(lp4013
I1
aF0.25
aI0
asg264
(lp4014
I1
aI0
aI0
assg266
S'hcl_ref05'
p4015
sg268
S'.out'
p4016
sg270
S'/home/samio/project/a02_alchemy_diatomic/reproduce/production_refs/hcl_ref05'
p4017
sg272
F-13.27957329
sg273
I22
sg274
g275
sbag3
(g4
g5
Ntp4018
Rp4019
(dp4020
g9
g10
sg11
S'hcl_ref06.out'
p4021
sg13
(dp4022
sg15
(dp4023
g17
(lp4024
(lp4025
g20
aS'2.808E-02'
p4026
aS'1.728E-03'
p4027
aS'-13.763171'
p4028
aS'0.000E+00'
p4029
aS'30.39\n'
p4030
aa(lp4031
g27
aS'1.743E-02'
p4032
aS'8.003E-04'
p4033
aS'-14.184288'
p4034
aS'-4.211E-01'
p4035
aS'30.96\n'
p4036
aa(lp4037
g34
aS'1.705E-02'
p4038
aS'4.560E-04'
p4039
aS'-14.256754'
p4040
aS'-7.247E-02'
p4041
aS'29.60\n'
p4042
aa(lp4043
g41
aS'9.968E-03'
p4044
aS'2.583E-04'
p4045
aS'-14.281026'
p4046
aS'-2.427E-02'
p4047
aS'31.44\n'
p4048
aa(lp4049
g48
aS'5.837E-03'
p4050
aS'1.465E-04'
p4051
aS'-14.289047'
p4052
aS'-8.022E-03'
p4053
aS'30.57\n'
p4054
aa(lp4055
g55
aS'2.648E-03'
p4056
aS'9.324E-05'
p4057
aS'-14.291160'
p4058
aS'-2.113E-03'
p4059
aS'28.95\n'
p4060
aa(lp4061
g62
aS'1.603E-03'
p4062
aS'5.346E-05'
p4063
aS'-14.292180'
p4064
aS'-1.020E-03'
p4065
aS'28.28\n'
p4066
aa(lp4067
g69
aS'6.746E-04'
p4068
aS'2.599E-05'
p4069
aS'-14.292607'
p4070
aS'-4.272E-04'
p4071
aS'28.12\n'
p4072
aa(lp4073
g76
aS'3.168E-04'
p4074
aS'1.322E-05'
p4075
aS'-14.292712'
p4076
aS'-1.051E-04'
p4077
aS'28.40\n'
p4078
aa(lp4079
S'10'
p4080
aS'1.576E-04'
p4081
aS'8.258E-06'
p4082
aS'-14.292735'
p4083
aS'-2.283E-05'
p4084
aS'27.63\n'
p4085
aa(lp4086
S'11'
p4087
aS'8.107E-05'
p4088
aS'4.907E-06'
p4089
aS'-14.292745'
p4090
aS'-1.069E-05'
p4091
aS'26.26\n'
p4092
aa(lp4093
S'12'
p4094
aS'4.463E-05'
p4095
aS'2.792E-06'
p4096
aS'-14.292750'
p4097
aS'-4.175E-06'
p4098
aS'26.64\n'
p4099
aa(lp4100
S'13'
p4101
aS'2.878E-05'
p4102
aS'1.459E-06'
p4103
aS'-14.292751'
p4104
aS'-1.093E-06'
p4105
aS'26.37\n'
p4106
aa(lp4107
S'14'
p4108
aS'1.280E-05'
p4109
aS'8.232E-07'
p4110
aS'-14.292751'
p4111
aS'-2.590E-07'
p4112
aS'22.37\n'
p4113
aa(lp4114
S'15'
p4115
aS'5.518E-06'
p4116
aS'3.186E-07'
p4117
aS'-14.292751'
p4118
aS'-6.894E-08'
p4119
aS'21.73\n'
p4120
aa(lp4121
S'16'
p4122
aS'3.370E-06'
p4123
aS'1.368E-07'
p4124
aS'-14.292751'
p4125
aS'-9.109E-09'
p4126
aS'19.02\n'
p4127
aa(lp4128
S'17'
p4129
aS'8.462E-07'
p4130
aS'7.877E-08'
p4131
aS'-14.292751'
p4132
aS'-1.443E-09'
p4133
aS'17.87\n'
p4134
aa(lp4135
S'18'
p4136
aS'7.859E-07'
p4137
aS'3.757E-08'
p4138
aS'-14.292751'
p4139
aS'-6.451E-10'
p4140
aS'17.56\n'
p4141
aa(lp4142
S'19'
p4143
aS'8.719E-07'
p4144
aS'2.088E-08'
p4145
aS'-14.292751'
p4146
aS'-1.579E-10'
p4147
aS'17.89\n'
p4148
aa(lp4149
S'20'
p4150
aS'5.399E-07'
p4151
aS'1.136E-08'
p4152
aS'-14.292751'
p4153
aS'-5.121E-11'
p4154
aS'17.00\n'
p4155
aa(lp4156
S'21'
p4157
aS'2.053E-07'
p4158
aS'6.664E-09'
p4159
aS'-14.292751'
p4160
aS'-1.413E-11'
p4161
aS'16.34\n'
p4162
aa(lp4163
S'22'
p4164
aS'5.786E-08'
p4165
aS'3.993E-09'
p4166
aS'-14.292751'
p4167
aS'-2.487E-12'
p4168
aS'16.69\n'
p4169
aasS'ESR'
p4170
F2.1282639
sS'ELECTROSTATIC ENERGY'
p4171
F-13.81642587
sS'EXCHANGE-CORRELATION ENERGY'
p4172
F-3.47715304
sS'LOCAL PSEUDOPOTENTIAL ENERGY'
p4173
F-7.74578578
sS'ESELF'
p4174
F16.62259502
sS'GRADIENT CORRECTION ENERGY'
p4175
F-0.0758852
sS'KINETIC ENERGY'
p4176
F6.83709606
sS'TOTAL ENERGY'
p4177
F-13.76317122
sS'N-L PSEUDOPOTENTIAL ENERGY'
p4178
F4.43909741
ssg182
Fnan
sg183
g3
(g184
g5
Ntp4179
Rp4180
(dp4181
g188
I00
sg189
g190
(g191
g4180
g184
tp4182
Rp4183
sg194
I00
sg195
S'GEOMETRY FILE / created by CPMD\n'
p4184
sg197
g190
(g198
g4180
g184
tp4185
Rp4186
sg201
(dp4187
sg203
I0
sg204
I00
sg205
(lp4188
sg207
I00
sg208
I0
sg209
(lp4189
g10
ag10
asg211
(dp4190
sg213
I2
sg214
(lp4191
g216
ag3989
asg218
g219
(g220
(I0
tp4192
g222
tp4193
Rp4194
(I1
(I2
I3
tp4195
g229
I00
S'\x00\x00\x00\x00\x00\x00\x00\x00\x00\x00\x00\x00\x00\x00\x00\x00\x00\x00\x00\x00\x00\x00\x00\x00\x93I\x9b\x8f33\xe3?\x00\x00\x00\x00\x00\x00\x00\x00\x00\x00\x00\x00\x00\x00\x00\x00'
p4196
tp4197
bsg234
I00
sg235
g219
(g220
(I0
tp4198
g222
tp4199
Rp4200
(I1
(I2
tp4201
g229
I00
S'\x00\x00\x00\x00\x00\x00\xf0?\x00\x00\x00\x00\x00\x001@'
p4202
tp4203
bsg242
I00
sg11
S'H1Cl1'
p4204
sg244
I1
sg245
I00
sg246
g219
(g220
(I0
tp4205
g222
tp4206
Rp4207
(I1
(I1
I0
tp4208
g229
I00
g10
tp4209
bsbsg252
(dp4210
g254
(lp4211
I0
aI0
aI0
asg256
(lp4212
F0.75
aF0.75
aI0
asg258
(lp4213
F0.5
aF0.5
aF0.5
asg260
(lp4214
F0.1
aF0.25
aF0.25
asg262
(lp4215
I1
aF0.25
aI0
asg264
(lp4216
I1
aI0
aI0
assg266
S'hcl_ref06'
p4217
sg268
S'.out'
p4218
sg270
S'/home/samio/project/a02_alchemy_diatomic/reproduce/production_refs/hcl_ref06'
p4219
sg272
F-14.29275096
sg273
I22
sg274
g275
sbag3
(g4
g5
Ntp4220
Rp4221
(dp4222
g9
g10
sg11
S'hcl_ref07.out'
p4223
sg13
(dp4224
sg15
(dp4225
g17
(lp4226
(lp4227
g20
aS'2.784E-02'
p4228
aS'1.640E-03'
p4229
aS'-14.411030'
p4230
aS'0.000E+00'
p4231
aS'24.99\n'
p4232
aa(lp4233
g27
aS'1.626E-02'
p4234
aS'7.194E-04'
p4235
aS'-14.790249'
p4236
aS'-3.792E-01'
p4237
aS'25.00\n'
p4238
aa(lp4239
g34
aS'1.295E-02'
p4240
aS'3.754E-04'
p4241
aS'-14.852917'
p4242
aS'-6.267E-02'
p4243
aS'24.92\n'
p4244
aa(lp4245
g41
aS'8.575E-03'
p4246
aS'1.984E-04'
p4247
aS'-14.869649'
p4248
aS'-1.673E-02'
p4249
aS'24.73\n'
p4250
aa(lp4251
g48
aS'4.423E-03'
p4252
aS'1.149E-04'
p4253
aS'-14.874479'
p4254
aS'-4.830E-03'
p4255
aS'25.28\n'
p4256
aa(lp4257
g55
aS'1.949E-03'
p4258
aS'7.347E-05'
p4259
aS'-14.875795'
p4260
aS'-1.315E-03'
p4261
aS'26.32\n'
p4262
aa(lp4263
g62
aS'1.160E-03'
p4264
aS'4.310E-05'
p4265
aS'-14.876417'
p4266
aS'-6.222E-04'
p4267
aS'25.00\n'
p4268
aa(lp4269
g69
aS'4.892E-04'
p4270
aS'2.109E-05'
p4271
aS'-14.876691'
p4272
aS'-2.744E-04'
p4273
aS'24.36\n'
p4274
aa(lp4275
g76
aS'2.524E-04'
p4276
aS'9.932E-06'
p4277
aS'-14.876763'
p4278
aS'-7.186E-05'
p4279
aS'24.30\n'
p4280
aa(lp4281
S'10'
p4282
aS'1.171E-04'
p4283
aS'5.999E-06'
p4284
aS'-14.876777'
p4285
aS'-1.371E-05'
p4286
aS'24.96\n'
p4287
aa(lp4288
S'11'
p4289
aS'5.802E-05'
p4290
aS'3.635E-06'
p4291
aS'-14.876782'
p4292
aS'-5.373E-06'
p4293
aS'25.06\n'
p4294
aa(lp4295
S'12'
p4296
aS'3.825E-05'
p4297
aS'2.097E-06'
p4298
aS'-14.876785'
p4299
aS'-2.170E-06'
p4300
aS'23.66\n'
p4301
aa(lp4302
S'13'
p4303
aS'2.157E-05'
p4304
aS'1.117E-06'
p4305
aS'-14.876785'
p4306
aS'-6.627E-07'
p4307
aS'24.05\n'
p4308
aa(lp4309
S'14'
p4310
aS'1.186E-05'
p4311
aS'6.031E-07'
p4312
aS'-14.876785'
p4313
aS'-1.683E-07'
p4314
aS'24.14\n'
p4315
aa(lp4316
S'15'
p4317
aS'4.819E-06'
p4318
aS'2.321E-07'
p4319
aS'-14.876785'
p4320
aS'-4.089E-08'
p4321
aS'24.27\n'
p4322
aa(lp4323
S'16'
p4324
aS'2.331E-06'
p4325
aS'1.055E-07'
p4326
aS'-14.876785'
p4327
aS'-4.707E-09'
p4328
aS'22.23\n'
p4329
aa(lp4330
S'17'
p4331
aS'8.748E-07'
p4332
aS'5.667E-08'
p4333
aS'-14.876785'
p4334
aS'-8.040E-10'
p4335
aS'20.05\n'
p4336
aa(lp4337
S'18'
p4338
aS'9.833E-07'
p4339
aS'2.680E-08'
p4340
aS'-14.876785'
p4341
aS'-2.978E-10'
p4342
aS'19.85\n'
p4343
aa(lp4344
S'19'
p4345
aS'8.451E-07'
p4346
aS'1.466E-08'
p4347
aS'-14.876785'
p4348
aS'-7.669E-11'
p4349
aS'16.90\n'
p4350
aa(lp4351
S'20'
p4352
aS'3.157E-07'
p4353
aS'8.083E-09'
p4354
aS'-14.876785'
p4355
aS'-2.378E-11'
p4356
aS'16.59\n'
p4357
aa(lp4358
S'21'
p4359
aS'8.331E-08'
p4360
aS'4.803E-09'
p4361
aS'-14.876785'
p4362
aS'-7.075E-12'
p4363
aS'16.40\n'
p4364
aasS'ESR'
p4365
F1.43043893
sS'ELECTROSTATIC ENERGY'
p4366
F-14.51985714
sS'EXCHANGE-CORRELATION ENERGY'
p4367
F-3.45535037
sS'LOCAL PSEUDOPOTENTIAL ENERGY'
p4368
F-7.52257233
sS'ESELF'
p4369
F16.62259502
sS'GRADIENT CORRECTION ENERGY'
p4370
F-0.07534585
sS'KINETIC ENERGY'
p4371
F6.74773211
sS'TOTAL ENERGY'
p4372
F-14.41102982
sS'N-L PSEUDOPOTENTIAL ENERGY'
p4373
F4.33901792
ssg182
Fnan
sg183
g3
(g184
g5
Ntp4374
Rp4375
(dp4376
g188
I00
sg189
g190
(g191
g4375
g184
tp4377
Rp4378
sg194
I00
sg195
S'GEOMETRY FILE / created by CPMD\n'
p4379
sg197
g190
(g198
g4375
g184
tp4380
Rp4381
sg201
(dp4382
sg203
I0
sg204
I00
sg205
(lp4383
sg207
I00
sg208
I0
sg209
(lp4384
g10
ag10
asg211
(dp4385
sg213
I2
sg214
(lp4386
g216
ag3989
asg218
g219
(g220
(I0
tp4387
g222
tp4388
Rp4389
(I1
(I2
I3
tp4390
g229
I00
S'\x00\x00\x00\x00\x00\x00\x00\x00\x00\x00\x00\x00\x00\x00\x00\x00\x00\x00\x00\x00\x00\x00\x00\x00=\xcb\xce\x14ff\xe6?\x00\x00\x00\x00\x00\x00\x00\x00\x00\x00\x00\x00\x00\x00\x00\x00'
p4391
tp4392
bsg234
I00
sg235
g219
(g220
(I0
tp4393
g222
tp4394
Rp4395
(I1
(I2
tp4396
g229
I00
S'\x00\x00\x00\x00\x00\x00\xf0?\x00\x00\x00\x00\x00\x001@'
p4397
tp4398
bsg242
I00
sg11
S'H1Cl1'
p4399
sg244
I1
sg245
I00
sg246
g219
(g220
(I0
tp4400
g222
tp4401
Rp4402
(I1
(I1
I0
tp4403
g229
I00
g10
tp4404
bsbsg252
(dp4405
g254
(lp4406
I0
aI0
aI0
asg256
(lp4407
F0.75
aF0.75
aI0
asg258
(lp4408
F0.5
aF0.5
aF0.5
asg260
(lp4409
F0.1
aF0.25
aF0.25
asg262
(lp4410
I1
aF0.25
aI0
asg264
(lp4411
I1
aI0
aI0
assg266
S'hcl_ref07'
p4412
sg268
S'.out'
p4413
sg270
S'/home/samio/project/a02_alchemy_diatomic/reproduce/production_refs/hcl_ref07'
p4414
sg272
F-14.87678542
sg273
I21
sg274
g275
sbag3
(g4
g5
Ntp4415
Rp4416
(dp4417
g9
g10
sg11
S'hcl_ref08.out'
p4418
sg13
(dp4419
sg15
(dp4420
g17
(lp4421
(lp4422
g20
aS'2.707E-02'
p4423
aS'1.539E-03'
p4424
aS'-14.815621'
p4425
aS'0.000E+00'
p4426
aS'23.56\n'
p4427
aa(lp4428
g27
aS'1.533E-02'
p4429
aS'6.483E-04'
p4430
aS'-15.142891'
p4431
aS'-3.273E-01'
p4432
aS'23.44\n'
p4433
aa(lp4434
g34
aS'9.973E-03'
p4435
aS'3.140E-04'
p4436
aS'-15.195971'
p4437
aS'-5.308E-02'
p4438
aS'23.46\n'
p4439
aa(lp4440
g41
aS'7.375E-03'
p4441
aS'1.558E-04'
p4442
aS'-15.207457'
p4443
aS'-1.149E-02'
p4444
aS'23.24\n'
p4445
aa(lp4446
g48
aS'3.512E-03'
p4447
aS'9.253E-05'
p4448
aS'-15.210428'
p4449
aS'-2.971E-03'
p4450
aS'23.14\n'
p4451
aa(lp4452
g55
aS'1.474E-03'
p4453
aS'5.913E-05'
p4454
aS'-15.211280'
p4455
aS'-8.514E-04'
p4456
aS'22.76\n'
p4457
aa(lp4458
g62
aS'8.408E-04'
p4459
aS'3.509E-05'
p4460
aS'-15.211675'
p4461
aS'-3.952E-04'
p4462
aS'23.40\n'
p4463
aa(lp4464
g69
aS'3.596E-04'
p4465
aS'1.726E-05'
p4466
aS'-15.211854'
p4467
aS'-1.792E-04'
p4468
aS'23.15\n'
p4469
aa(lp4470
g76
aS'1.900E-04'
p4471
aS'7.609E-06'
p4472
aS'-15.211903'
p4473
aS'-4.925E-05'
p4474
aS'22.76\n'
p4475
aa(lp4476
S'10'
p4477
aS'7.538E-05'
p4478
aS'4.459E-06'
p4479
aS'-15.211911'
p4480
aS'-8.287E-06'
p4481
aS'22.91\n'
p4482
aa(lp4483
S'11'
p4484
aS'3.980E-05'
p4485
aS'2.714E-06'
p4486
aS'-15.211914'
p4487
aS'-2.802E-06'
p4488
aS'23.29\n'
p4489
aa(lp4490
S'12'
p4491
aS'1.973E-05'
p4492
aS'1.573E-06'
p4493
aS'-15.211915'
p4494
aS'-1.161E-06'
p4495
aS'23.69\n'
p4496
aa(lp4497
S'13'
p4498
aS'1.534E-05'
p4499
aS'8.341E-07'
p4500
aS'-15.211916'
p4501
aS'-3.902E-07'
p4502
aS'22.41\n'
p4503
aa(lp4504
S'14'
p4505
aS'6.063E-06'
p4506
aS'4.296E-07'
p4507
aS'-15.211916'
p4508
aS'-1.066E-07'
p4509
aS'22.51\n'
p4510
aa(lp4511
S'15'
p4512
aS'2.624E-06'
p4513
aS'1.758E-07'
p4514
aS'-15.211916'
p4515
aS'-2.207E-08'
p4516
aS'23.11\n'
p4517
aa(lp4518
S'16'
p4519
aS'1.477E-06'
p4520
aS'7.984E-08'
p4521
aS'-15.211916'
p4522
aS'-2.572E-09'
p4523
aS'22.41\n'
p4524
aa(lp4525
S'17'
p4526
aS'5.490E-07'
p4527
aS'4.106E-08'
p4528
aS'-15.211916'
p4529
aS'-4.425E-10'
p4530
aS'22.18\n'
p4531
aa(lp4532
S'18'
p4533
aS'5.844E-07'
p4534
aS'1.973E-08'
p4535
aS'-15.211916'
p4536
aS'-1.358E-10'
p4537
aS'21.64\n'
p4538
aa(lp4539
S'19'
p4540
aS'4.340E-07'
p4541
aS'9.890E-09'
p4542
aS'-15.211916'
p4543
aS'-3.873E-11'
p4544
aS'21.31\n'
p4545
aa(lp4546
S'20'
p4547
aS'1.703E-07'
p4548
aS'5.173E-09'
p4549
aS'-15.211916'
p4550
aS'-1.344E-11'
p4551
aS'19.63\n'
p4552
aa(lp4553
S'21'
p4554
aS'6.390E-08'
p4555
aS'3.175E-09'
p4556
aS'-15.211916'
p4557
aS'-2.736E-13'
p4558
aS'18.84\n'
p4559
aasS'ESR'
p4560
F0.96187658
sS'ELECTROSTATIC ENERGY'
p4561
F-14.99325447
sS'EXCHANGE-CORRELATION ENERGY'
p4562
F-3.43371641
sS'LOCAL PSEUDOPOTENTIAL ENERGY'
p4563
F-7.29927863
sS'ESELF'
p4564
F16.62259502
sS'GRADIENT CORRECTION ENERGY'
p4565
F-0.07497511
sS'KINETIC ENERGY'
p4566
F6.66619964
sS'TOTAL ENERGY'
p4567
F-14.81562074
sS'N-L PSEUDOPOTENTIAL ENERGY'
p4568
F4.24442912
ssg182
Fnan
sg183
g3
(g184
g5
Ntp4569
Rp4570
(dp4571
g188
I00
sg189
g190
(g191
g4570
g184
tp4572
Rp4573
sg194
I00
sg195
S'GEOMETRY FILE / created by CPMD\n'
p4574
sg197
g190
(g198
g4570
g184
tp4575
Rp4576
sg201
(dp4577
sg203
I0
sg204
I00
sg205
(lp4578
sg207
I00
sg208
I0
sg209
(lp4579
g10
ag10
asg211
(dp4580
sg213
I2
sg214
(lp4581
g216
ag3989
asg218
g219
(g220
(I0
tp4582
g222
tp4583
Rp4584
(I1
(I2
I3
tp4585
g229
I00
S'\x00\x00\x00\x00\x00\x00\x00\x00\x00\x00\x00\x00\x00\x00\x00\x00\x00\x00\x00\x00\x00\x00\x00\x00\xcd\xdc\x1b\xb6\x99\x99\xe9?\x00\x00\x00\x00\x00\x00\x00\x00\x00\x00\x00\x00\x00\x00\x00\x00'
p4586
tp4587
bsg234
I00
sg235
g219
(g220
(I0
tp4588
g222
tp4589
Rp4590
(I1
(I2
tp4591
g229
I00
S'\x00\x00\x00\x00\x00\x00\xf0?\x00\x00\x00\x00\x00\x001@'
p4592
tp4593
bsg242
I00
sg11
S'H1Cl1'
p4594
sg244
I1
sg245
I00
sg246
g219
(g220
(I0
tp4595
g222
tp4596
Rp4597
(I1
(I1
I0
tp4598
g229
I00
g10
tp4599
bsbsg252
(dp4600
g254
(lp4601
I0
aI0
aI0
asg256
(lp4602
F0.75
aF0.75
aI0
asg258
(lp4603
F0.5
aF0.5
aF0.5
asg260
(lp4604
F0.1
aF0.25
aF0.25
asg262
(lp4605
I1
aF0.25
aI0
asg264
(lp4606
I1
aI0
aI0
assg266
S'hcl_ref08'
p4607
sg268
S'.out'
p4608
sg270
S'/home/samio/project/a02_alchemy_diatomic/reproduce/production_refs/hcl_ref08'
p4609
sg272
F-15.21191596
sg273
I21
sg274
g275
sbag3
(g4
g5
Ntp4610
Rp4611
(dp4612
g9
g10
sg11
S'hcl_ref09.out'
p4613
sg13
(dp4614
sg15
(dp4615
g17
(lp4616
(lp4617
g20
aS'2.603E-02'
p4618
aS'1.448E-03'
p4619
aS'-15.066735'
p4620
aS'0.000E+00'
p4621
aS'21.41\n'
p4622
aa(lp4623
g27
aS'1.392E-02'
p4624
aS'5.940E-04'
p4625
aS'-15.344680'
p4626
aS'-2.779E-01'
p4627
aS'21.57\n'
p4628
aa(lp4629
g34
aS'6.832E-03'
p4630
aS'2.723E-04'
p4631
aS'-15.390447'
p4632
aS'-4.577E-02'
p4633
aS'21.46\n'
p4634
aa(lp4635
g41
aS'5.177E-03'
p4636
aS'1.271E-04'
p4637
aS'-15.398800'
p4638
aS'-8.353E-03'
p4639
aS'21.43\n'
p4640
aa(lp4641
g48
aS'2.455E-03'
p4642
aS'7.543E-05'
p4643
aS'-15.400769'
p4644
aS'-1.969E-03'
p4645
aS'21.32\n'
p4646
aa(lp4647
g55
aS'1.015E-03'
p4648
aS'4.822E-05'
p4649
aS'-15.401342'
p4650
aS'-5.730E-04'
p4651
aS'21.53\n'
p4652
aa(lp4653
g62
aS'5.802E-04'
p4654
aS'2.885E-05'
p4655
aS'-15.401603'
p4656
aS'-2.609E-04'
p4657
aS'21.44\n'
p4658
aa(lp4659
g69
aS'2.592E-04'
p4660
aS'1.432E-05'
p4661
aS'-15.401722'
p4662
aS'-1.196E-04'
p4663
aS'21.42\n'
p4664
aa(lp4665
g76
aS'1.451E-04'
p4666
aS'5.926E-06'
p4667
aS'-15.401757'
p4668
aS'-3.495E-05'
p4669
aS'21.35\n'
p4670
aa(lp4671
S'10'
p4672
aS'5.846E-05'
p4673
aS'3.343E-06'
p4674
aS'-15.401763'
p4675
aS'-5.283E-06'
p4676
aS'21.42\n'
p4677
aa(lp4678
S'11'
p4679
aS'2.460E-05'
p4680
aS'2.044E-06'
p4681
aS'-15.401764'
p4682
aS'-1.511E-06'
p4683
aS'21.44\n'
p4684
aa(lp4685
S'12'
p4686
aS'1.711E-05'
p4687
aS'1.176E-06'
p4688
aS'-15.401765'
p4689
aS'-6.481E-07'
p4690
aS'21.20\n'
p4691
aa(lp4692
S'13'
p4693
aS'1.112E-05'
p4694
aS'6.261E-07'
p4695
aS'-15.401765'
p4696
aS'-2.284E-07'
p4697
aS'21.24\n'
p4698
aa(lp4699
S'14'
p4700
aS'5.623E-06'
p4701
aS'3.089E-07'
p4702
aS'-15.401765'
p4703
aS'-6.617E-08'
p4704
aS'21.20\n'
p4705
aa(lp4706
S'15'
p4707
aS'2.882E-06'
p4708
aS'1.367E-07'
p4709
aS'-15.401765'
p4710
aS'-1.177E-08'
p4711
aS'21.08\n'
p4712
aa(lp4713
S'16'
p4714
aS'1.152E-06'
p4715
aS'6.606E-08'
p4716
aS'-15.401765'
p4717
aS'-1.471E-09'
p4718
aS'20.97\n'
p4719
aa(lp4720
S'17'
p4721
aS'6.593E-07'
p4722
aS'3.348E-08'
p4723
aS'-15.401765'
p4724
aS'-2.973E-10'
p4725
aS'21.01\n'
p4726
aa(lp4727
S'18'
p4728
aS'4.102E-07'
p4729
aS'1.527E-08'
p4730
aS'-15.401765'
p4731
aS'-8.677E-11'
p4732
aS'20.83\n'
p4733
aa(lp4734
S'19'
p4735
aS'2.251E-07'
p4736
aS'7.145E-09'
p4737
aS'-15.401765'
p4738
aS'-2.051E-11'
p4739
aS'20.89\n'
p4740
aa(lp4741
S'20'
p4742
aS'8.208E-08'
p4743
aS'3.545E-09'
p4744
aS'-15.401765'
p4745
aS'-5.505E-12'
p4746
aS'20.09\n'
p4747
aasS'ESR'
p4748
F0.64370157
sS'ELECTROSTATIC ENERGY'
p4749
F-15.31721415
sS'EXCHANGE-CORRELATION ENERGY'
p4750
F-3.41232562
sS'LOCAL PSEUDOPOTENTIAL ENERGY'
p4751
F-7.09879616
sS'ESELF'
p4752
F16.62259502
sS'GRADIENT CORRECTION ENERGY'
p4753
F-0.07469183
sS'KINETIC ENERGY'
p4754
F6.59214785
sS'TOTAL ENERGY'
p4755
F-15.0667355
sS'N-L PSEUDOPOTENTIAL ENERGY'
p4756
F4.16945257
ssg182
Fnan
sg183
g3
(g184
g5
Ntp4757
Rp4758
(dp4759
g188
I00
sg189
g190
(g191
g4758
g184
tp4760
Rp4761
sg194
I00
sg195
S'GEOMETRY FILE / created by CPMD\n'
p4762
sg197
g190
(g198
g4758
g184
tp4763
Rp4764
sg201
(dp4765
sg203
I0
sg204
I00
sg205
(lp4766
sg207
I00
sg208
I0
sg209
(lp4767
g10
ag10
asg211
(dp4768
sg213
I2
sg214
(lp4769
g216
ag3989
asg218
g219
(g220
(I0
tp4770
g222
tp4771
Rp4772
(I1
(I2
I3
tp4773
g229
I00
S'\x00\x00\x00\x00\x00\x00\x00\x00\x00\x00\x00\x00\x00\x00\x00\x00\x00\x00\x00\x00\x00\x00\x00\x00\\\xeehW\xcd\xcc\xec?\x00\x00\x00\x00\x00\x00\x00\x00\x00\x00\x00\x00\x00\x00\x00\x00'
p4774
tp4775
bsg234
I00
sg235
g219
(g220
(I0
tp4776
g222
tp4777
Rp4778
(I1
(I2
tp4779
g229
I00
S'\x00\x00\x00\x00\x00\x00\xf0?\x00\x00\x00\x00\x00\x001@'
p4780
tp4781
bsg242
I00
sg11
S'H1Cl1'
p4782
sg244
I1
sg245
I00
sg246
g219
(g220
(I0
tp4783
g222
tp4784
Rp4785
(I1
(I1
I0
tp4786
g229
I00
g10
tp4787
bsbsg252
(dp4788
g254
(lp4789
I0
aI0
aI0
asg256
(lp4790
F0.75
aF0.75
aI0
asg258
(lp4791
F0.5
aF0.5
aF0.5
asg260
(lp4792
F0.1
aF0.25
aF0.25
asg262
(lp4793
I1
aF0.25
aI0
asg264
(lp4794
I1
aI0
aI0
assg266
S'hcl_ref09'
p4795
sg268
S'.out'
p4796
sg270
S'/home/samio/project/a02_alchemy_diatomic/reproduce/production_refs/hcl_ref09'
p4797
sg272
F-15.40176498
sg273
I20
sg274
g275
sbag3
(g4
g5
Ntp4798
Rp4799
(dp4800
g9
g10
sg11
S'hcl_ref10.out'
p4801
sg13
(dp4802
sg15
(dp4803
g17
(lp4804
(lp4805
g20
aS'2.474E-02'
p4806
aS'1.374E-03'
p4807
aS'-15.220118'
p4808
aS'0.000E+00'
p4809
aS'21.34\n'
p4810
aa(lp4811
g27
aS'1.240E-02'
p4812
aS'5.555E-04'
p4813
aS'-15.456406'
p4814
aS'-2.363E-01'
p4815
aS'21.47\n'
p4816
aa(lp4817
g34
aS'4.463E-03'
p4818
aS'2.452E-04'
p4819
aS'-15.497282'
p4820
aS'-4.088E-02'
p4821
aS'21.51\n'
p4822
aa(lp4823
g41
aS'3.345E-03'
p4824
aS'1.082E-04'
p4825
aS'-15.503855'
p4826
aS'-6.573E-03'
p4827
aS'21.36\n'
p4828
aa(lp4829
g48
aS'1.669E-03'
p4830
aS'6.337E-05'
p4831
aS'-15.505267'
p4832
aS'-1.413E-03'
p4833
aS'21.33\n'
p4834
aa(lp4835
g55
aS'6.647E-04'
p4836
aS'4.037E-05'
p4837
aS'-15.505673'
p4838
aS'-4.053E-04'
p4839
aS'21.45\n'
p4840
aa(lp4841
g62
aS'3.901E-04'
p4842
aS'2.445E-05'
p4843
aS'-15.505851'
p4844
aS'-1.789E-04'
p4845
aS'21.47\n'
p4846
aa(lp4847
g69
aS'1.777E-04'
p4848
aS'1.247E-05'
p4849
aS'-15.505935'
p4850
aS'-8.319E-05'
p4851
aS'21.38\n'
p4852
aa(lp4853
g76
aS'9.845E-05'
p4854
aS'4.996E-06'
p4855
aS'-15.505961'
p4856
aS'-2.662E-05'
p4857
aS'21.25\n'
p4858
aa(lp4859
S'10'
p4860
aS'3.800E-05'
p4861
aS'2.621E-06'
p4862
aS'-15.505965'
p4863
aS'-3.937E-06'
p4864
aS'21.44\n'
p4865
aa(lp4866
S'11'
p4867
aS'1.681E-05'
p4868
aS'1.555E-06'
p4869
aS'-15.505966'
p4870
aS'-9.382E-07'
p4871
aS'21.24\n'
p4872
aa(lp4873
S'12'
p4874
aS'1.132E-05'
p4875
aS'8.967E-07'
p4876
aS'-15.505967'
p4877
aS'-3.689E-07'
p4878
aS'21.27\n'
p4879
aa(lp4880
S'13'
p4881
aS'7.721E-06'
p4882
aS'4.670E-07'
p4883
aS'-15.505967'
p4884
aS'-1.421E-07'
p4885
aS'21.23\n'
p4886
aa(lp4887
S'14'
p4888
aS'4.467E-06'
p4889
aS'2.327E-07'
p4890
aS'-15.505967'
p4891
aS'-4.083E-08'
p4892
aS'21.12\n'
p4893
aa(lp4894
S'15'
p4895
aS'2.365E-06'
p4896
aS'1.136E-07'
p4897
aS'-15.505967'
p4898
aS'-6.869E-09'
p4899
aS'21.04\n'
p4900
aa(lp4901
S'16'
p4902
aS'1.067E-06'
p4903
aS'5.633E-08'
p4904
aS'-15.505967'
p4905
aS'-1.075E-09'
p4906
aS'21.06\n'
p4907
aa(lp4908
S'17'
p4909
aS'5.656E-07'
p4910
aS'2.829E-08'
p4911
aS'-15.505967'
p4912
aS'-2.319E-10'
p4913
aS'21.02\n'
p4914
aa(lp4915
S'18'
p4916
aS'2.871E-07'
p4917
aS'1.182E-08'
p4918
aS'-15.505967'
p4919
aS'-6.757E-11'
p4920
aS'21.89\n'
p4921
aa(lp4922
S'19'
p4923
aS'1.348E-07'
p4924
aS'5.026E-09'
p4925
aS'-15.505967'
p4926
aS'-1.335E-11'
p4927
aS'20.44\n'
p4928
aa(lp4929
S'20'
p4930
aS'4.142E-08'
p4931
aS'2.557E-09'
p4932
aS'-15.505967'
p4933
aS'-4.661E-12'
p4934
aS'19.96\n'
p4935
aasS'ESR'
p4936
F0.42713276
sS'ELECTROSTATIC ENERGY'
p4937
F-15.54006727
sS'EXCHANGE-CORRELATION ENERGY'
p4938
F-3.39110425
sS'LOCAL PSEUDOPOTENTIAL ENERGY'
p4939
F-6.92781676
sS'ESELF'
p4940
F16.62259502
sS'GRADIENT CORRECTION ENERGY'
p4941
F-0.0744638
sS'KINETIC ENERGY'
p4942
F6.52456295
sS'TOTAL ENERGY'
p4943
F-15.22011821
sS'N-L PSEUDOPOTENTIAL ENERGY'
p4944
F4.11430713
ssg182
Fnan
sg183
g3
(g184
g5
Ntp4945
Rp4946
(dp4947
g188
I00
sg189
g190
(g191
g4946
g184
tp4948
Rp4949
sg194
I00
sg195
S'GEOMETRY FILE / created by CPMD\n'
p4950
sg197
g190
(g198
g4946
g184
tp4951
Rp4952
sg201
(dp4953
sg203
I0
sg204
I00
sg205
(lp4954
sg207
I00
sg208
I0
sg209
(lp4955
g10
ag10
asg211
(dp4956
sg213
I2
sg214
(lp4957
g216
ag3989
asg218
g219
(g220
(I0
tp4958
g222
tp4959
Rp4960
(I1
(I2
I3
tp4961
g229
I00
S'\x00\x00\x00\x00\x00\x00\x00\x00\x00\x00\x00\x00\x00\x00\x00\x00\x00\x00\x00\x00\x00\x00\x00\x00\x07p\x9c\xdc\xff\xff\xef?\x00\x00\x00\x00\x00\x00\x00\x00\x00\x00\x00\x00\x00\x00\x00\x00'
p4962
tp4963
bsg234
I00
sg235
g219
(g220
(I0
tp4964
g222
tp4965
Rp4966
(I1
(I2
tp4967
g229
I00
S'\x00\x00\x00\x00\x00\x00\xf0?\x00\x00\x00\x00\x00\x001@'
p4968
tp4969
bsg242
I00
sg11
S'H1Cl1'
p4970
sg244
I1
sg245
I00
sg246
g219
(g220
(I0
tp4971
g222
tp4972
Rp4973
(I1
(I1
I0
tp4974
g229
I00
g10
tp4975
bsbsg252
(dp4976
g254
(lp4977
I0
aI0
aI0
asg256
(lp4978
F0.75
aF0.75
aI0
asg258
(lp4979
F0.5
aF0.5
aF0.5
asg260
(lp4980
F0.1
aF0.25
aF0.25
asg262
(lp4981
I1
aF0.25
aI0
asg264
(lp4982
I1
aI0
aI0
assg266
S'hcl_ref10'
p4983
sg268
S'.out'
p4984
sg270
S'/home/samio/project/a02_alchemy_diatomic/reproduce/production_refs/hcl_ref10'
p4985
sg272
F-15.50596672
sg273
I20
sg274
g275
sbag3
(g4
g5
Ntp4986
Rp4987
(dp4988
g9
g10
sg11
S'hcl_ref11.out'
p4989
sg13
(dp4990
sg15
(dp4991
g17
(lp4992
(lp4993
g20
aS'2.319E-02'
p4994
aS'1.317E-03'
p4995
aS'-15.311078'
p4996
aS'0.000E+00'
p4997
aS'21.04\n'
p4998
aa(lp4999
g27
aS'1.157E-02'
p5000
aS'5.294E-04'
p5001
aS'-15.514094'
p5002
aS'-2.030E-01'
p5003
aS'21.18\n'
p5004
aa(lp5005
g34
aS'4.356E-03'
p5006
aS'2.277E-04'
p5007
aS'-15.552050'
p5008
aS'-3.796E-02'
p5009
aS'21.13\n'
p5010
aa(lp5011
g41
aS'2.258E-03'
p5012
aS'9.601E-05'
p5013
aS'-15.557599'
p5014
aS'-5.549E-03'
p5015
aS'20.93\n'
p5016
aa(lp5017
g48
aS'1.107E-03'
p5018
aS'5.460E-05'
p5019
aS'-15.558710'
p5020
aS'-1.111E-03'
p5021
aS'20.95\n'
p5022
aa(lp5023
g55
aS'4.501E-04'
p5024
aS'3.436E-05'
p5025
aS'-15.559017'
p5026
aS'-3.068E-04'
p5027
aS'21.08\n'
p5028
aa(lp5029
g62
aS'2.392E-04'
p5030
aS'2.103E-05'
p5031
aS'-15.559145'
p5032
aS'-1.283E-04'
p5033
aS'21.16\n'
p5034
aa(lp5035
g69
aS'1.288E-04'
p5036
aS'1.110E-05'
p5037
aS'-15.559205'
p5038
aS'-5.971E-05'
p5039
aS'21.16\n'
p5040
aa(lp5041
g76
aS'5.785E-05'
p5042
aS'4.397E-06'
p5043
aS'-15.559226'
p5044
aS'-2.106E-05'
p5045
aS'20.97\n'
p5046
aa(lp5047
S'10'
p5048
aS'2.320E-05'
p5049
aS'2.142E-06'
p5050
aS'-15.559229'
p5051
aS'-3.208E-06'
p5052
aS'21.10\n'
p5053
aa(lp5054
S'11'
p5055
aS'1.221E-05'
p5056
aS'1.205E-06'
p5057
aS'-15.559230'
p5058
aS'-6.566E-07'
p5059
aS'20.96\n'
p5060
aa(lp5061
S'12'
p5062
aS'7.717E-06'
p5063
aS'6.777E-07'
p5064
aS'-15.559230'
p5065
aS'-2.292E-07'
p5066
aS'20.93\n'
p5067
aa(lp5068
S'13'
p5069
aS'5.624E-06'
p5070
aS'3.504E-07'
p5071
aS'-15.559230'
p5072
aS'-8.928E-08'
p5073
aS'21.08\n'
p5074
aa(lp5075
S'14'
p5076
aS'2.922E-06'
p5077
aS'1.844E-07'
p5078
aS'-15.559230'
p5079
aS'-2.587E-08'
p5080
aS'21.09\n'
p5081
aa(lp5082
S'15'
p5083
aS'1.399E-06'
p5084
aS'9.723E-08'
p5085
aS'-15.559230'
p5086
aS'-4.660E-09'
p5087
aS'21.18\n'
p5088
aa(lp5089
S'16'
p5090
aS'5.060E-07'
p5091
aS'4.965E-08'
p5092
aS'-15.559230'
p5093
aS'-8.809E-10'
p5094
aS'21.15\n'
p5095
aa(lp5096
S'17'
p5097
aS'3.418E-07'
p5098
aS'2.389E-08'
p5099
aS'-15.559230'
p5100
aS'-2.119E-10'
p5101
aS'20.99\n'
p5102
aa(lp5103
S'18'
p5104
aS'1.414E-07'
p5105
aS'9.529E-09'
p5106
aS'-15.559230'
p5107
aS'-6.008E-11'
p5108
aS'20.93\n'
p5109
aa(lp5110
S'19'
p5111
aS'7.804E-08'
p5112
aS'4.122E-09'
p5113
aS'-15.559230'
p5114
aS'-9.308E-12'
p5115
aS'20.81\n'
p5116
aasS'ESR'
p5117
F0.28027377
sS'ELECTROSTATIC ENERGY'
p5118
F-15.69294934
sS'EXCHANGE-CORRELATION ENERGY'
p5119
F-3.37021963
sS'LOCAL PSEUDOPOTENTIAL ENERGY'
p5120
F-6.78673683
sS'ESELF'
p5121
F16.62259502
sS'GRADIENT CORRECTION ENERGY'
p5122
F-0.07429742
sS'KINETIC ENERGY'
p5123
F6.46350345
sS'TOTAL ENERGY'
p5124
F-15.31107755
sS'N-L PSEUDOPOTENTIAL ENERGY'
p5125
F4.07532481
ssg182
Fnan
sg183
g3
(g184
g5
Ntp5126
Rp5127
(dp5128
g188
I00
sg189
g190
(g191
g5127
g184
tp5129
Rp5130
sg194
I00
sg195
S'GEOMETRY FILE / created by CPMD\n'
p5131
sg197
g190
(g198
g5127
g184
tp5132
Rp5133
sg201
(dp5134
sg203
I0
sg204
I00
sg205
(lp5135
sg207
I00
sg208
I0
sg209
(lp5136
g10
ag10
asg211
(dp5137
sg213
I2
sg214
(lp5138
g216
ag3989
asg218
g219
(g220
(I0
tp5139
g222
tp5140
Rp5141
(I1
(I2
I3
tp5142
g229
I00
S'\x00\x00\x00\x00\x00\x00\x00\x00\x00\x00\x00\x00\x00\x00\x00\x00\x00\x00\x00\x00\x00\x00\x00\x00\xca\xc0\xf4\xbe\x99\x99\xf1?\x00\x00\x00\x00\x00\x00\x00\x00\x00\x00\x00\x00\x00\x00\x00\x00'
p5143
tp5144
bsg234
I00
sg235
g219
(g220
(I0
tp5145
g222
tp5146
Rp5147
(I1
(I2
tp5148
g229
I00
S'\x00\x00\x00\x00\x00\x00\xf0?\x00\x00\x00\x00\x00\x001@'
p5149
tp5150
bsg242
I00
sg11
S'H1Cl1'
p5151
sg244
I1
sg245
I00
sg246
g219
(g220
(I0
tp5152
g222
tp5153
Rp5154
(I1
(I1
I0
tp5155
g229
I00
g10
tp5156
bsbsg252
(dp5157
g254
(lp5158
I0
aI0
aI0
asg256
(lp5159
F0.75
aF0.75
aI0
asg258
(lp5160
F0.5
aF0.5
aF0.5
asg260
(lp5161
F0.1
aF0.25
aF0.25
asg262
(lp5162
I1
aF0.25
aI0
asg264
(lp5163
I1
aI0
aI0
assg266
S'hcl_ref11'
p5164
sg268
S'.out'
p5165
sg270
S'/home/samio/project/a02_alchemy_diatomic/reproduce/production_refs/hcl_ref11'
p5166
sg272
F-15.55922986
sg273
I19
sg274
g275
sbag3
(g4
g5
Ntp5167
Rp5168
(dp5169
g9
g10
sg11
S'hcl_ref12.out'
p5170
sg13
(dp5171
sg15
(dp5172
g17
(lp5173
(lp5174
g20
aS'2.141E-02'
p5175
aS'1.276E-03'
p5176
aS'-15.362152'
p5177
aS'0.000E+00'
p5178
aS'33.38\n'
p5179
aa(lp5180
g27
aS'1.104E-02'
p5181
aS'5.120E-04'
p5182
aS'-15.539180'
p5183
aS'-1.770E-01'
p5184
aS'32.64\n'
p5185
aa(lp5186
g34
aS'4.530E-03'
p5187
aS'2.156E-04'
p5188
aS'-15.575797'
p5189
aS'-3.662E-02'
p5190
aS'33.54\n'
p5191
aa(lp5192
g41
aS'2.094E-03'
p5193
aS'8.792E-05'
p5194
aS'-15.580722'
p5195
aS'-4.925E-03'
p5196
aS'32.57\n'
p5197
aa(lp5198
g48
aS'9.473E-04'
p5199
aS'4.833E-05'
p5200
aS'-15.581684'
p5201
aS'-9.625E-04'
p5202
aS'31.83\n'
p5203
aa(lp5204
g55
aS'3.946E-04'
p5205
aS'2.989E-05'
p5206
aS'-15.581931'
p5207
aS'-2.466E-04'
p5208
aS'23.38\n'
p5209
aa(lp5210
g62
aS'2.079E-04'
p5211
aS'1.831E-05'
p5212
aS'-15.582029'
p5213
aS'-9.767E-05'
p5214
aS'22.34\n'
p5215
aa(lp5216
g69
aS'1.169E-04'
p5217
aS'9.970E-06'
p5218
aS'-15.582073'
p5219
aS'-4.457E-05'
p5220
aS'22.72\n'
p5221
aa(lp5222
g76
aS'4.790E-05'
p5223
aS'4.138E-06'
p5224
aS'-15.582090'
p5225
aS'-1.675E-05'
p5226
aS'22.27\n'
p5227
aa(lp5228
S'10'
p5229
aS'1.927E-05'
p5230
aS'1.896E-06'
p5231
aS'-15.582093'
p5232
aS'-2.896E-06'
p5233
aS'21.84\n'
p5234
aa(lp5235
S'11'
p5236
aS'9.948E-06'
p5237
aS'9.708E-07'
p5238
aS'-15.582093'
p5239
aS'-5.527E-07'
p5240
aS'21.32\n'
p5241
aa(lp5242
S'12'
p5243
aS'5.128E-06'
p5244
aS'5.262E-07'
p5245
aS'-15.582093'
p5246
aS'-1.545E-07'
p5247
aS'21.71\n'
p5248
aa(lp5249
S'13'
p5250
aS'3.668E-06'
p5251
aS'2.649E-07'
p5252
aS'-15.582094'
p5253
aS'-5.988E-08'
p5254
aS'21.88\n'
p5255
aa(lp5256
S'14'
p5257
aS'2.193E-06'
p5258
aS'1.518E-07'
p5259
aS'-15.582094'
p5260
aS'-1.664E-08'
p5261
aS'21.72\n'
p5262
aa(lp5263
S'15'
p5264
aS'1.083E-06'
p5265
aS'8.396E-08'
p5266
aS'-15.582094'
p5267
aS'-3.553E-09'
p5268
aS'20.81\n'
p5269
aa(lp5270
S'16'
p5271
aS'5.378E-07'
p5272
aS'4.457E-08'
p5273
aS'-15.582094'
p5274
aS'-7.513E-10'
p5275
aS'19.92\n'
p5276
aa(lp5277
S'17'
p5278
aS'2.510E-07'
p5279
aS'2.112E-08'
p5280
aS'-15.582094'
p5281
aS'-2.070E-10'
p5282
aS'19.85\n'
p5283
aa(lp5284
S'18'
p5285
aS'1.379E-07'
p5286
aS'8.361E-09'
p5287
aS'-15.582094'
p5288
aS'-5.486E-11'
p5289
aS'18.69\n'
p5290
aa(lp5291
S'19'
p5292
aS'5.802E-08'
p5293
aS'4.397E-09'
p5294
aS'-15.582094'
p5295
aS'-8.718E-12'
p5296
aS'17.61\n'
p5297
aasS'ESR'
p5298
F0.18149111
sS'ELECTROSTATIC ENERGY'
p5299
F-15.79688906
sS'EXCHANGE-CORRELATION ENERGY'
p5300
F-3.34995535
sS'LOCAL PSEUDOPOTENTIAL ENERGY'
p5301
F-6.67330848
sS'ESELF'
p5302
F16.62259502
sS'GRADIENT CORRECTION ENERGY'
p5303
F-0.07420871
sS'KINETIC ENERGY'
p5304
F6.40950374
sS'TOTAL ENERGY'
p5305
F-15.36215174
sS'N-L PSEUDOPOTENTIAL ENERGY'
p5306
F4.04849741
ssg182
Fnan
sg183
g3
(g184
g5
Ntp5307
Rp5308
(dp5309
g188
I00
sg189
g190
(g191
g5308
g184
tp5310
Rp5311
sg194
I00
sg195
S'GEOMETRY FILE / created by CPMD\n'
p5312
sg197
g190
(g198
g5308
g184
tp5313
Rp5314
sg201
(dp5315
sg203
I0
sg204
I00
sg205
(lp5316
sg207
I00
sg208
I0
sg209
(lp5317
g10
ag10
asg211
(dp5318
sg213
I2
sg214
(lp5319
g216
ag3989
asg218
g219
(g220
(I0
tp5320
g222
tp5321
Rp5322
(I1
(I2
I3
tp5323
g229
I00
S'\x00\x00\x00\x00\x00\x00\x00\x00\x00\x00\x00\x00\x00\x00\x00\x00\x00\x00\x00\x00\x00\x00\x00\x00\xa0\x81\x8e\x0133\xf3?\x00\x00\x00\x00\x00\x00\x00\x00\x00\x00\x00\x00\x00\x00\x00\x00'
p5324
tp5325
bsg234
I00
sg235
g219
(g220
(I0
tp5326
g222
tp5327
Rp5328
(I1
(I2
tp5329
g229
I00
S'\x00\x00\x00\x00\x00\x00\xf0?\x00\x00\x00\x00\x00\x001@'
p5330
tp5331
bsg242
I00
sg11
S'H1Cl1'
p5332
sg244
I1
sg245
I00
sg246
g219
(g220
(I0
tp5333
g222
tp5334
Rp5335
(I1
(I1
I0
tp5336
g229
I00
g10
tp5337
bsbsg252
(dp5338
g254
(lp5339
I0
aI0
aI0
asg256
(lp5340
F0.75
aF0.75
aI0
asg258
(lp5341
F0.5
aF0.5
aF0.5
asg260
(lp5342
F0.1
aF0.25
aF0.25
asg262
(lp5343
I1
aF0.25
aI0
asg264
(lp5344
I1
aI0
aI0
assg266
S'hcl_ref12'
p5345
sg268
S'.out'
p5346
sg270
S'/home/samio/project/a02_alchemy_diatomic/reproduce/production_refs/hcl_ref12'
p5347
sg272
F-15.58209355
sg273
I19
sg274
g275
sbag3
(g4
g5
Ntp5348
Rp5349
(dp5350
g9
g10
sg11
S'hcl_ref13.out'
p5351
sg13
(dp5352
sg15
(dp5353
g17
(lp5354
(lp5355
g20
aS'1.947E-02'
p5356
aS'1.246E-03'
p5357
aS'-15.387823'
p5358
aS'0.000E+00'
p5359
aS'21.17\n'
p5360
aa(lp5361
g27
aS'1.108E-02'
p5362
aS'5.009E-04'
p5363
aS'-15.544993'
p5364
aS'-1.572E-01'
p5365
aS'21.14\n'
p5366
aa(lp5367
g34
aS'4.666E-03'
p5368
aS'2.072E-04'
p5369
aS'-15.581136'
p5370
aS'-3.614E-02'
p5371
aS'21.08\n'
p5372
aa(lp5373
g41
aS'2.365E-03'
p5374
aS'8.250E-05'
p5375
aS'-15.585667'
p5376
aS'-4.531E-03'
p5377
aS'21.02\n'
p5378
aa(lp5379
g48
aS'1.069E-03'
p5380
aS'4.384E-05'
p5381
aS'-15.586559'
p5382
aS'-8.918E-04'
p5383
aS'21.01\n'
p5384
aa(lp5385
g55
aS'4.654E-04'
p5386
aS'2.649E-05'
p5387
aS'-15.586773'
p5388
aS'-2.141E-04'
p5389
aS'21.14\n'
p5390
aa(lp5391
g62
aS'2.096E-04'
p5392
aS'1.611E-05'
p5393
aS'-15.586852'
p5394
aS'-7.960E-05'
p5395
aS'21.16\n'
p5396
aa(lp5397
g69
aS'1.104E-04'
p5398
aS'8.869E-06'
p5399
aS'-15.586888'
p5400
aS'-3.533E-05'
p5401
aS'21.20\n'
p5402
aa(lp5403
g76
aS'4.633E-05'
p5404
aS'3.938E-06'
p5405
aS'-15.586901'
p5406
aS'-1.320E-05'
p5407
aS'21.07\n'
p5408
aa(lp5409
S'10'
p5410
aS'1.894E-05'
p5411
aS'1.784E-06'
p5412
aS'-15.586904'
p5413
aS'-2.662E-06'
p5414
aS'21.17\n'
p5415
aa(lp5416
S'11'
p5417
aS'9.406E-06'
p5418
aS'8.577E-07'
p5419
aS'-15.586904'
p5420
aS'-5.094E-07'
p5421
aS'21.09\n'
p5422
aa(lp5423
S'12'
p5424
aS'4.652E-06'
p5425
aS'4.396E-07'
p5426
aS'-15.586904'
p5427
aS'-1.231E-07'
p5428
aS'21.19\n'
p5429
aa(lp5430
S'13'
p5431
aS'3.020E-06'
p5432
aS'2.159E-07'
p5433
aS'-15.586904'
p5434
aS'-4.374E-08'
p5435
aS'21.13\n'
p5436
aa(lp5437
S'14'
p5438
aS'2.065E-06'
p5439
aS'1.288E-07'
p5440
aS'-15.586904'
p5441
aS'-1.170E-08'
p5442
aS'21.04\n'
p5443
aa(lp5444
S'15'
p5445
aS'1.005E-06'
p5446
aS'7.385E-08'
p5447
aS'-15.586904'
p5448
aS'-2.946E-09'
p5449
aS'21.06\n'
p5450
aa(lp5451
S'16'
p5452
aS'5.379E-07'
p5453
aS'4.007E-08'
p5454
aS'-15.586904'
p5455
aS'-6.713E-10'
p5456
aS'21.20\n'
p5457
aa(lp5458
S'17'
p5459
aS'2.674E-07'
p5460
aS'1.922E-08'
p5461
aS'-15.586904'
p5462
aS'-1.976E-10'
p5463
aS'21.17\n'
p5464
aa(lp5465
S'18'
p5466
aS'1.390E-07'
p5467
aS'8.397E-09'
p5468
aS'-15.586904'
p5469
aS'-5.329E-11'
p5470
aS'20.89\n'
p5471
aa(lp5472
S'19'
p5473
aS'5.504E-08'
p5474
aS'4.833E-09'
p5475
aS'-15.586904'
p5476
aS'-8.601E-12'
p5477
aS'20.82\n'
p5478
aasS'ESR'
p5479
F0.11579492
sS'ELECTROSTATIC ENERGY'
p5480
F-15.86647771
sS'EXCHANGE-CORRELATION ENERGY'
p5481
F-3.33059621
sS'LOCAL PSEUDOPOTENTIAL ENERGY'
p5482
F-6.58406891
sS'ESELF'
p5483
F16.62259502
sS'GRADIENT CORRECTION ENERGY'
p5484
F-0.07421588
sS'KINETIC ENERGY'
p5485
F6.36295081
sS'TOTAL ENERGY'
p5486
F-15.38782292
sS'N-L PSEUDOPOTENTIAL ENERGY'
p5487
F4.03036909
ssg182
Fnan
sg183
g3
(g184
g5
Ntp5488
Rp5489
(dp5490
g188
I00
sg189
g190
(g191
g5489
g184
tp5491
Rp5492
sg194
I00
sg195
S'GEOMETRY FILE / created by CPMD\n'
p5493
sg197
g190
(g198
g5489
g184
tp5494
Rp5495
sg201
(dp5496
sg203
I0
sg204
I00
sg205
(lp5497
sg207
I00
sg208
I0
sg209
(lp5498
g10
ag10
asg211
(dp5499
sg213
I2
sg214
(lp5500
g216
ag3989
asg218
g219
(g220
(I0
tp5501
g222
tp5502
Rp5503
(I1
(I2
I3
tp5504
g229
I00
S'\x00\x00\x00\x00\x00\x00\x00\x00\x00\x00\x00\x00\x00\x00\x00\x00\x00\x00\x00\x00\x00\x00\x00\x00g\n5\xd2\xcc\xcc\xf4?\x00\x00\x00\x00\x00\x00\x00\x00\x00\x00\x00\x00\x00\x00\x00\x00'
p5505
tp5506
bsg234
I00
sg235
g219
(g220
(I0
tp5507
g222
tp5508
Rp5509
(I1
(I2
tp5510
g229
I00
S'\x00\x00\x00\x00\x00\x00\xf0?\x00\x00\x00\x00\x00\x001@'
p5511
tp5512
bsg242
I00
sg11
S'H1Cl1'
p5513
sg244
I1
sg245
I00
sg246
g219
(g220
(I0
tp5514
g222
tp5515
Rp5516
(I1
(I1
I0
tp5517
g229
I00
g10
tp5518
bsbsg252
(dp5519
g254
(lp5520
I0
aI0
aI0
asg256
(lp5521
F0.75
aF0.75
aI0
asg258
(lp5522
F0.5
aF0.5
aF0.5
asg260
(lp5523
F0.1
aF0.25
aF0.25
asg262
(lp5524
I1
aF0.25
aI0
asg264
(lp5525
I1
aI0
aI0
assg266
S'hcl_ref13'
p5526
sg268
S'.out'
p5527
sg270
S'/home/samio/project/a02_alchemy_diatomic/reproduce/production_refs/hcl_ref13'
p5528
sg272
F-15.58690432
sg273
I19
sg274
g275
sbag3
(g4
g5
Ntp5529
Rp5530
(dp5531
g9
g10
sg11
S'hcl_ref14.out'
p5532
sg13
(dp5533
sg15
(dp5534
g17
(lp5535
(lp5536
g20
aS'1.989E-02'
p5537
aS'1.225E-03'
p5538
aS'-15.397401'
p5539
aS'0.000E+00'
p5540
aS'28.08\n'
p5541
aa(lp5542
g27
aS'1.106E-02'
p5543
aS'4.928E-04'
p5544
aS'-15.539831'
p5545
aS'-1.424E-01'
p5546
aS'28.18\n'
p5547
aa(lp5548
g34
aS'4.733E-03'
p5549
aS'2.006E-04'
p5550
aS'-15.575751'
p5551
aS'-3.592E-02'
p5552
aS'28.80\n'
p5553
aa(lp5554
g41
aS'2.464E-03'
p5555
aS'7.842E-05'
p5556
aS'-15.580015'
p5557
aS'-4.264E-03'
p5558
aS'28.63\n'
p5559
aa(lp5560
g48
aS'1.058E-03'
p5561
aS'4.051E-05'
p5562
aS'-15.580875'
p5563
aS'-8.602E-04'
p5564
aS'27.82\n'
p5565
aa(lp5566
g55
aS'4.710E-04'
p5567
aS'2.387E-05'
p5568
aS'-15.581069'
p5569
aS'-1.940E-04'
p5570
aS'28.94\n'
p5571
aa(lp5572
g62
aS'2.107E-04'
p5573
aS'1.422E-05'
p5574
aS'-15.581138'
p5575
aS'-6.889E-05'
p5576
aS'27.67\n'
p5577
aa(lp5578
g69
aS'1.097E-04'
p5579
aS'7.763E-06'
p5580
aS'-15.581167'
p5581
aS'-2.912E-05'
p5582
aS'27.46\n'
p5583
aa(lp5584
g76
aS'4.533E-05'
p5585
aS'3.629E-06'
p5586
aS'-15.581177'
p5587
aS'-1.028E-05'
p5588
aS'27.92\n'
p5589
aa(lp5590
S'10'
p5591
aS'1.858E-05'
p5592
aS'1.696E-06'
p5593
aS'-15.581180'
p5594
aS'-2.268E-06'
p5595
aS'27.87\n'
p5596
aa(lp5597
S'11'
p5598
aS'9.003E-06'
p5599
aS'7.973E-07'
p5600
aS'-15.581180'
p5601
aS'-4.680E-07'
p5602
aS'26.82\n'
p5603
aa(lp5604
S'12'
p5605
aS'4.589E-06'
p5606
aS'3.996E-07'
p5607
aS'-15.581180'
p5608
aS'-1.046E-07'
p5609
aS'27.33\n'
p5610
aa(lp5611
S'13'
p5612
aS'2.989E-06'
p5613
aS'1.907E-07'
p5614
aS'-15.581180'
p5615
aS'-3.465E-08'
p5616
aS'27.26\n'
p5617
aa(lp5618
S'14'
p5619
aS'1.916E-06'
p5620
aS'1.114E-07'
p5621
aS'-15.581180'
p5622
aS'-8.953E-09'
p5623
aS'25.46\n'
p5624
aa(lp5625
S'15'
p5626
aS'8.774E-07'
p5627
aS'6.582E-08'
p5628
aS'-15.581180'
p5629
aS'-2.335E-09'
p5630
aS'22.40\n'
p5631
aa(lp5632
S'16'
p5633
aS'4.272E-07'
p5634
aS'3.671E-08'
p5635
aS'-15.581180'
p5636
aS'-6.158E-10'
p5637
aS'21.14\n'
p5638
aa(lp5639
S'17'
p5640
aS'2.357E-07'
p5641
aS'1.793E-08'
p5642
aS'-15.581180'
p5643
aS'-1.964E-10'
p5644
aS'21.05\n'
p5645
aa(lp5646
S'18'
p5647
aS'1.145E-07'
p5648
aS'8.659E-09'
p5649
aS'-15.581180'
p5650
aS'-5.201E-11'
p5651
aS'19.87\n'
p5652
aa(lp5653
S'19'
p5654
aS'5.624E-08'
p5655
aS'5.134E-09'
p5656
aS'-15.581180'
p5657
aS'-8.709E-12'
p5658
aS'20.01\n'
p5659
aasS'ESR'
p5660
F0.07269975
sS'ELECTROSTATIC ENERGY'
p5661
F-15.91200709
sS'EXCHANGE-CORRELATION ENERGY'
p5662
F-3.31238596
sS'LOCAL PSEUDOPOTENTIAL ENERGY'
p5663
F-6.51521445
sS'ESELF'
p5664
F16.62259502
sS'GRADIENT CORRECTION ENERGY'
p5665
F-0.07433159
sS'KINETIC ENERGY'
p5666
F6.32397826
sS'TOTAL ENERGY'
p5667
F-15.39740135
sS'N-L PSEUDOPOTENTIAL ENERGY'
p5668
F4.0182279
ssg182
Fnan
sg183
g3
(g184
g5
Ntp5669
Rp5670
(dp5671
g188
I00
sg189
g190
(g191
g5670
g184
tp5672
Rp5673
sg194
I00
sg195
S'GEOMETRY FILE / created by CPMD\n'
p5674
sg197
g190
(g198
g5670
g184
tp5675
Rp5676
sg201
(dp5677
sg203
I0
sg204
I00
sg205
(lp5678
sg207
I00
sg208
I0
sg209
(lp5679
g10
ag10
asg211
(dp5680
sg213
I2
sg214
(lp5681
g216
ag3989
asg218
g219
(g220
(I0
tp5682
g222
tp5683
Rp5684
(I1
(I2
I3
tp5685
g229
I00
S'\x00\x00\x00\x00\x00\x00\x00\x00\x00\x00\x00\x00\x00\x00\x00\x00\x00\x00\x00\x00\x00\x00\x00\x000\x93\xdb\xa2ff\xf6?\x00\x00\x00\x00\x00\x00\x00\x00\x00\x00\x00\x00\x00\x00\x00\x00'
p5686
tp5687
bsg234
I00
sg235
g219
(g220
(I0
tp5688
g222
tp5689
Rp5690
(I1
(I2
tp5691
g229
I00
S'\x00\x00\x00\x00\x00\x00\xf0?\x00\x00\x00\x00\x00\x001@'
p5692
tp5693
bsg242
I00
sg11
S'H1Cl1'
p5694
sg244
I1
sg245
I00
sg246
g219
(g220
(I0
tp5695
g222
tp5696
Rp5697
(I1
(I1
I0
tp5698
g229
I00
g10
tp5699
bsbsg252
(dp5700
g254
(lp5701
I0
aI0
aI0
asg256
(lp5702
F0.75
aF0.75
aI0
asg258
(lp5703
F0.5
aF0.5
aF0.5
asg260
(lp5704
F0.1
aF0.25
aF0.25
asg262
(lp5705
I1
aF0.25
aI0
asg264
(lp5706
I1
aI0
aI0
assg266
S'hcl_ref14'
p5707
sg268
S'.out'
p5708
sg270
S'/home/samio/project/a02_alchemy_diatomic/reproduce/production_refs/hcl_ref14'
p5709
sg272
F-15.58118029
sg273
I19
sg274
g275
sbag3
(g4
g5
Ntp5710
Rp5711
(dp5712
g9
g10
sg11
S'hcl_ref15.out'
p5713
sg13
(dp5714
sg15
(dp5715
g17
(lp5716
(lp5717
g20
aS'1.992E-02'
p5718
aS'1.211E-03'
p5719
aS'-15.396892'
p5720
aS'0.000E+00'
p5721
aS'30.88\n'
p5722
aa(lp5723
g27
aS'1.108E-02'
p5724
aS'4.886E-04'
p5725
aS'-15.528117'
p5726
aS'-1.312E-01'
p5727
aS'28.71\n'
p5728
aa(lp5729
g34
aS'4.812E-03'
p5730
aS'1.961E-04'
p5731
aS'-15.564280'
p5732
aS'-3.616E-02'
p5733
aS'28.05\n'
p5734
aa(lp5735
g41
aS'2.545E-03'
p5736
aS'7.590E-05'
p5737
aS'-15.568390'
p5738
aS'-4.110E-03'
p5739
aS'28.91\n'
p5740
aa(lp5741
g48
aS'1.086E-03'
p5742
aS'3.824E-05'
p5743
aS'-15.569252'
p5744
aS'-8.627E-04'
p5745
aS'28.93\n'
p5746
aa(lp5747
g55
aS'4.967E-04'
p5748
aS'2.201E-05'
p5749
aS'-15.569438'
p5750
aS'-1.861E-04'
p5751
aS'27.67\n'
p5752
aa(lp5753
g62
aS'2.339E-04'
p5754
aS'1.281E-05'
p5755
aS'-15.569502'
p5756
aS'-6.344E-05'
p5757
aS'27.61\n'
p5758
aa(lp5759
g69
aS'1.208E-04'
p5760
aS'6.871E-06'
p5761
aS'-15.569528'
p5762
aS'-2.567E-05'
p5763
aS'28.32\n'
p5764
aa(lp5765
g76
aS'4.662E-05'
p5766
aS'3.344E-06'
p5767
aS'-15.569536'
p5768
aS'-8.316E-06'
p5769
aS'27.99\n'
p5770
aa(lp5771
S'10'
p5772
aS'1.835E-05'
p5773
aS'1.620E-06'
p5774
aS'-15.569538'
p5775
aS'-1.945E-06'
p5776
aS'27.44\n'
p5777
aa(lp5778
S'11'
p5779
aS'9.395E-06'
p5780
aS'7.687E-07'
p5781
aS'-15.569538'
p5782
aS'-4.355E-07'
p5783
aS'27.31\n'
p5784
aa(lp5785
S'12'
p5786
aS'4.995E-06'
p5787
aS'3.888E-07'
p5788
aS'-15.569538'
p5789
aS'-9.562E-08'
p5790
aS'27.01\n'
p5791
aa(lp5792
S'13'
p5793
aS'2.547E-06'
p5794
aS'1.796E-07'
p5795
aS'-15.569538'
p5796
aS'-3.123E-08'
p5797
aS'26.63\n'
p5798
aa(lp5799
S'14'
p5800
aS'1.742E-06'
p5801
aS'1.015E-07'
p5802
aS'-15.569538'
p5803
aS'-7.192E-09'
p5804
aS'20.65\n'
p5805
aa(lp5806
S'15'
p5807
aS'9.164E-07'
p5808
aS'5.937E-08'
p5809
aS'-15.569538'
p5810
aS'-1.933E-09'
p5811
aS'19.66\n'
p5812
aa(lp5813
S'16'
p5814
aS'4.838E-07'
p5815
aS'3.360E-08'
p5816
aS'-15.569538'
p5817
aS'-5.444E-10'
p5818
aS'19.22\n'
p5819
aa(lp5820
S'17'
p5821
aS'2.465E-07'
p5822
aS'1.696E-08'
p5823
aS'-15.569538'
p5824
aS'-1.820E-10'
p5825
aS'18.06\n'
p5826
aa(lp5827
S'18'
p5828
aS'1.256E-07'
p5829
aS'8.829E-09'
p5830
aS'-15.569538'
p5831
aS'-5.144E-11'
p5832
aS'17.40\n'
p5833
aa(lp5834
S'19'
p5835
aS'5.553E-08'
p5836
aS'5.264E-09'
p5837
aS'-15.569538'
p5838
aS'-8.773E-12'
p5839
aS'18.00\n'
p5840
aasS'ESR'
p5841
F0.04486802
sS'ELECTROSTATIC ENERGY'
p5842
F-15.94078838
sS'EXCHANGE-CORRELATION ENERGY'
p5843
F-3.2955112
sS'LOCAL PSEUDOPOTENTIAL ENERGY'
p5844
F-6.46305745
sS'ESELF'
p5845
F16.62259502
sS'GRADIENT CORRECTION ENERGY'
p5846
F-0.07456208
sS'KINETIC ENERGY'
p5847
F6.29242377
sS'TOTAL ENERGY'
p5848
F-15.39689196
sS'N-L PSEUDOPOTENTIAL ENERGY'
p5849
F4.0100413
ssg182
Fnan
sg183
g3
(g184
g5
Ntp5850
Rp5851
(dp5852
g188
I00
sg189
g190
(g191
g5851
g184
tp5853
Rp5854
sg194
I00
sg195
S'GEOMETRY FILE / created by CPMD\n'
p5855
sg197
g190
(g198
g5851
g184
tp5856
Rp5857
sg201
(dp5858
sg203
I0
sg204
I00
sg205
(lp5859
sg207
I00
sg208
I0
sg209
(lp5860
g10
ag10
asg211
(dp5861
sg213
I2
sg214
(lp5862
g216
ag3989
asg218
g219
(g220
(I0
tp5863
g222
tp5864
Rp5865
(I1
(I2
I3
tp5866
g229
I00
S'\x00\x00\x00\x00\x00\x00\x00\x00\x00\x00\x00\x00\x00\x00\x00\x00\x00\x00\x00\x00\x00\x00\x00\x00\x04Tu\xe5\xff\xff\xf7?\x00\x00\x00\x00\x00\x00\x00\x00\x00\x00\x00\x00\x00\x00\x00\x00'
p5867
tp5868
bsg234
I00
sg235
g219
(g220
(I0
tp5869
g222
tp5870
Rp5871
(I1
(I2
tp5872
g229
I00
S'\x00\x00\x00\x00\x00\x00\xf0?\x00\x00\x00\x00\x00\x001@'
p5873
tp5874
bsg242
I00
sg11
S'H1Cl1'
p5875
sg244
I1
sg245
I00
sg246
g219
(g220
(I0
tp5876
g222
tp5877
Rp5878
(I1
(I1
I0
tp5879
g229
I00
g10
tp5880
bsbsg252
(dp5881
g254
(lp5882
I0
aI0
aI0
asg256
(lp5883
F0.75
aF0.75
aI0
asg258
(lp5884
F0.5
aF0.5
aF0.5
asg260
(lp5885
F0.1
aF0.25
aF0.25
asg262
(lp5886
I1
aF0.25
aI0
asg264
(lp5887
I1
aI0
aI0
assg266
S'hcl_ref15'
p5888
sg268
S'.out'
p5889
sg270
S'/home/samio/project/a02_alchemy_diatomic/reproduce/production_refs/hcl_ref15'
p5890
sg272
F-15.56953836
sg273
I19
sg274
g275
sbag3
(g4
g5
Ntp5891
Rp5892
(dp5893
g9
g10
sg11
S'hcl_ref16.out'
p5894
sg13
(dp5895
sg15
(dp5896
g17
(lp5897
(lp5898
g20
aS'1.987E-02'
p5899
aS'1.201E-03'
p5900
aS'-15.390180'
p5901
aS'0.000E+00'
p5902
aS'20.57\n'
p5903
aa(lp5904
g27
aS'1.098E-02'
p5905
aS'4.846E-04'
p5906
aS'-15.513615'
p5907
aS'-1.234E-01'
p5908
aS'20.69\n'
p5909
aa(lp5910
g34
aS'4.842E-03'
p5911
aS'1.933E-04'
p5912
aS'-15.549648'
p5913
aS'-3.603E-02'
p5914
aS'20.75\n'
p5915
aa(lp5916
g41
aS'2.503E-03'
p5917
aS'7.416E-05'
p5918
aS'-15.553675'
p5919
aS'-4.027E-03'
p5920
aS'20.83\n'
p5921
aa(lp5922
g48
aS'1.029E-03'
p5923
aS'3.678E-05'
p5924
aS'-15.554550'
p5925
aS'-8.753E-04'
p5926
aS'20.73\n'
p5927
aa(lp5928
g55
aS'4.711E-04'
p5929
aS'2.076E-05'
p5930
aS'-15.554735'
p5931
aS'-1.841E-04'
p5932
aS'20.97\n'
p5933
aa(lp5934
g62
aS'2.304E-04'
p5935
aS'1.164E-05'
p5936
aS'-15.554796'
p5937
aS'-6.159E-05'
p5938
aS'21.08\n'
p5939
aa(lp5940
g69
aS'1.179E-04'
p5941
aS'6.075E-06'
p5942
aS'-15.554819'
p5943
aS'-2.309E-05'
p5944
aS'21.19\n'
p5945
aa(lp5946
g76
aS'4.228E-05'
p5947
aS'3.098E-06'
p5948
aS'-15.554826'
p5949
aS'-6.590E-06'
p5950
aS'21.04\n'
p5951
aa(lp5952
S'10'
p5953
aS'1.726E-05'
p5954
aS'1.534E-06'
p5955
aS'-15.554827'
p5956
aS'-1.692E-06'
p5957
aS'21.04\n'
p5958
aa(lp5959
S'11'
p5960
aS'9.148E-06'
p5961
aS'7.357E-07'
p5962
aS'-15.554828'
p5963
aS'-4.032E-07'
p5964
aS'21.12\n'
p5965
aa(lp5966
S'12'
p5967
aS'5.029E-06'
p5968
aS'3.786E-07'
p5969
aS'-15.554828'
p5970
aS'-8.697E-08'
p5971
aS'21.06\n'
p5972
aa(lp5973
S'13'
p5974
aS'3.361E-06'
p5975
aS'1.762E-07'
p5976
aS'-15.554828'
p5977
aS'-2.818E-08'
p5978
aS'21.17\n'
p5979
aa(lp5980
S'14'
p5981
aS'1.793E-06'
p5982
aS'9.530E-08'
p5983
aS'-15.554828'
p5984
aS'-6.393E-09'
p5985
aS'21.02\n'
p5986
aa(lp5987
S'15'
p5988
aS'6.099E-07'
p5989
aS'5.394E-08'
p5990
aS'-15.554828'
p5991
aS'-1.625E-09'
p5992
aS'20.87\n'
p5993
aa(lp5994
S'16'
p5995
aS'2.940E-07'
p5996
aS'3.061E-08'
p5997
aS'-15.554828'
p5998
aS'-4.538E-10'
p5999
aS'20.70\n'
p6000
aa(lp6001
S'17'
p6002
aS'1.523E-07'
p6003
aS'1.593E-08'
p6004
aS'-15.554828'
p6005
aS'-1.610E-10'
p6006
aS'20.72\n'
p6007
aa(lp6008
S'18'
p6009
aS'7.474E-08'
p6010
aS'8.587E-09'
p6011
aS'-15.554828'
p6012
aS'-4.773E-11'
p6013
aS'20.79\n'
p6014
aasS'ESR'
p6015
F0.02719761
sS'ELECTROSTATIC ENERGY'
p6016
F-15.95801645
sS'EXCHANGE-CORRELATION ENERGY'
p6017
F-3.28009812
sS'LOCAL PSEUDOPOTENTIAL ENERGY'
p6018
F-6.424265
sS'ESELF'
p6019
F16.62259502
sS'GRADIENT CORRECTION ENERGY'
p6020
F-0.07490864
sS'KINETIC ENERGY'
p6021
F6.26785766
sS'TOTAL ENERGY'
p6022
F-15.39017953
sS'N-L PSEUDOPOTENTIAL ENERGY'
p6023
F4.00434238
ssg182
Fnan
sg183
g3
(g184
g5
Ntp6024
Rp6025
(dp6026
g188
I00
sg189
g190
(g191
g6025
g184
tp6027
Rp6028
sg194
I00
sg195
S'GEOMETRY FILE / created by CPMD\n'
p6029
sg197
g190
(g198
g6025
g184
tp6030
Rp6031
sg201
(dp6032
sg203
I0
sg204
I00
sg205
(lp6033
sg207
I00
sg208
I0
sg209
(lp6034
g10
ag10
asg211
(dp6035
sg213
I2
sg214
(lp6036
g216
ag3989
asg218
g219
(g220
(I0
tp6037
g222
tp6038
Rp6039
(I1
(I2
I3
tp6040
g229
I00
S'\x00\x00\x00\x00\x00\x00\x00\x00\x00\x00\x00\x00\x00\x00\x00\x00\x00\x00\x00\x00\x00\x00\x00\x00\xcd\xdc\x1b\xb6\x99\x99\xf9?\x00\x00\x00\x00\x00\x00\x00\x00\x00\x00\x00\x00\x00\x00\x00\x00'
p6041
tp6042
bsg234
I00
sg235
g219
(g220
(I0
tp6043
g222
tp6044
Rp6045
(I1
(I2
tp6046
g229
I00
S'\x00\x00\x00\x00\x00\x00\xf0?\x00\x00\x00\x00\x00\x001@'
p6047
tp6048
bsg242
I00
sg11
S'H1Cl1'
p6049
sg244
I1
sg245
I00
sg246
g219
(g220
(I0
tp6050
g222
tp6051
Rp6052
(I1
(I1
I0
tp6053
g229
I00
g10
tp6054
bsbsg252
(dp6055
g254
(lp6056
I0
aI0
aI0
asg256
(lp6057
F0.75
aF0.75
aI0
asg258
(lp6058
F0.5
aF0.5
aF0.5
asg260
(lp6059
F0.1
aF0.25
aF0.25
asg262
(lp6060
I1
aF0.25
aI0
asg264
(lp6061
I1
aI0
aI0
assg266
S'hcl_ref16'
p6062
sg268
S'.out'
p6063
sg270
S'/home/samio/project/a02_alchemy_diatomic/reproduce/production_refs/hcl_ref16'
p6064
sg272
F-15.55482802
sg273
I18
sg274
g275
sbag3
(g4
g5
Ntp6065
Rp6066
(dp6067
g9
g10
sg11
S'hcl_ref17.out'
p6068
sg13
(dp6069
sg15
(dp6070
g17
(lp6071
(lp6072
g20
aS'1.976E-02'
p6073
aS'1.195E-03'
p6074
aS'-15.379770'
p6075
aS'0.000E+00'
p6076
aS'17.38\n'
p6077
aa(lp6078
g27
aS'1.108E-02'
p6079
aS'4.825E-04'
p6080
aS'-15.497638'
p6081
aS'-1.179E-01'
p6082
aS'18.03\n'
p6083
aa(lp6084
g34
aS'4.836E-03'
p6085
aS'1.913E-04'
p6086
aS'-15.533643'
p6087
aS'-3.600E-02'
p6088
aS'17.86\n'
p6089
aa(lp6090
g41
aS'2.637E-03'
p6091
aS'7.322E-05'
p6092
aS'-15.537626'
p6093
aS'-3.984E-03'
p6094
aS'17.92\n'
p6095
aa(lp6096
g48
aS'1.092E-03'
p6097
aS'3.582E-05'
p6098
aS'-15.538529'
p6099
aS'-9.026E-04'
p6100
aS'19.80\n'
p6101
aa(lp6102
g55
aS'5.405E-04'
p6103
aS'1.990E-05'
p6104
aS'-15.538717'
p6105
aS'-1.880E-04'
p6106
aS'17.67\n'
p6107
aa(lp6108
g62
aS'2.800E-04'
p6109
aS'1.086E-05'
p6110
aS'-15.538779'
p6111
aS'-6.178E-05'
p6112
aS'16.41\n'
p6113
aa(lp6114
g69
aS'1.354E-04'
p6115
aS'5.588E-06'
p6116
aS'-15.538800'
p6117
aS'-2.155E-05'
p6118
aS'16.48\n'
p6119
aa(lp6120
g76
aS'4.685E-05'
p6121
aS'2.939E-06'
p6122
aS'-15.538806'
p6123
aS'-5.615E-06'
p6124
aS'16.50\n'
p6125
aa(lp6126
S'10'
p6127
aS'1.947E-05'
p6128
aS'1.475E-06'
p6129
aS'-15.538808'
p6130
aS'-1.533E-06'
p6131
aS'16.55\n'
p6132
aa(lp6133
S'11'
p6134
aS'8.870E-06'
p6135
aS'7.223E-07'
p6136
aS'-15.538808'
p6137
aS'-3.783E-07'
p6138
aS'16.58\n'
p6139
aa(lp6140
S'12'
p6141
aS'5.034E-06'
p6142
aS'3.773E-07'
p6143
aS'-15.538808'
p6144
aS'-8.445E-08'
p6145
aS'16.54\n'
p6146
aa(lp6147
S'13'
p6148
aS'3.142E-06'
p6149
aS'1.758E-07'
p6150
aS'-15.538808'
p6151
aS'-2.759E-08'
p6152
aS'16.60\n'
p6153
aa(lp6154
S'14'
p6155
aS'1.683E-06'
p6156
aS'9.116E-08'
p6157
aS'-15.538808'
p6158
aS'-6.116E-09'
p6159
aS'16.61\n'
p6160
aa(lp6161
S'15'
p6162
aS'6.297E-07'
p6163
aS'5.031E-08'
p6164
aS'-15.538808'
p6165
aS'-1.406E-09'
p6166
aS'16.61\n'
p6167
aa(lp6168
S'16'
p6169
aS'3.010E-07'
p6170
aS'2.837E-08'
p6171
aS'-15.538808'
p6172
aS'-3.839E-10'
p6173
aS'16.62\n'
p6174
aa(lp6175
S'17'
p6176
aS'1.918E-07'
p6177
aS'1.501E-08'
p6178
aS'-15.538808'
p6179
aS'-1.382E-10'
p6180
aS'16.57\n'
p6181
aa(lp6182
S'18'
p6183
aS'8.655E-08'
p6184
aS'8.277E-09'
p6185
aS'-15.538808'
p6186
aS'-4.596E-11'
p6187
aS'16.59\n'
p6188
aasS'ESR'
p6189
F0.01618095
sS'ELECTROSTATIC ENERGY'
p6190
F-15.96735848
sS'EXCHANGE-CORRELATION ENERGY'
p6191
F-3.2662134
sS'LOCAL PSEUDOPOTENTIAL ENERGY'
p6192
F-6.39596793
sS'ESELF'
p6193
F16.62259502
sS'GRADIENT CORRECTION ENERGY'
p6194
F-0.07536548
sS'KINETIC ENERGY'
p6195
F6.2496694
sS'TOTAL ENERGY'
p6196
F-15.37976973
sS'N-L PSEUDOPOTENTIAL ENERGY'
p6197
F4.00010069
ssg182
Fnan
sg183
g3
(g184
g5
Ntp6198
Rp6199
(dp6200
g188
I00
sg189
g190
(g191
g6199
g184
tp6201
Rp6202
sg194
I00
sg195
S'GEOMETRY FILE / created by CPMD\n'
p6203
sg197
g190
(g198
g6199
g184
tp6204
Rp6205
sg201
(dp6206
sg203
I0
sg204
I00
sg205
(lp6207
sg207
I00
sg208
I0
sg209
(lp6208
g10
ag10
asg211
(dp6209
sg213
I2
sg214
(lp6210
g216
ag3989
asg218
g219
(g220
(I0
tp6211
g222
tp6212
Rp6213
(I1
(I2
I3
tp6214
g229
I00
S'\x00\x00\x00\x00\x00\x00\x00\x00\x00\x00\x00\x00\x00\x00\x00\x00\x00\x00\x00\x00\x00\x00\x00\x00\xa1\x9d\xb5\xf823\xfb?\x00\x00\x00\x00\x00\x00\x00\x00\x00\x00\x00\x00\x00\x00\x00\x00'
p6215
tp6216
bsg234
I00
sg235
g219
(g220
(I0
tp6217
g222
tp6218
Rp6219
(I1
(I2
tp6220
g229
I00
S'\x00\x00\x00\x00\x00\x00\xf0?\x00\x00\x00\x00\x00\x001@'
p6221
tp6222
bsg242
I00
sg11
S'H1Cl1'
p6223
sg244
I1
sg245
I00
sg246
g219
(g220
(I0
tp6224
g222
tp6225
Rp6226
(I1
(I1
I0
tp6227
g229
I00
g10
tp6228
bsbsg252
(dp6229
g254
(lp6230
I0
aI0
aI0
asg256
(lp6231
F0.75
aF0.75
aI0
asg258
(lp6232
F0.5
aF0.5
aF0.5
asg260
(lp6233
F0.1
aF0.25
aF0.25
asg262
(lp6234
I1
aF0.25
aI0
asg264
(lp6235
I1
aI0
aI0
assg266
S'hcl_ref17'
p6236
sg268
S'.out'
p6237
sg270
S'/home/samio/project/a02_alchemy_diatomic/reproduce/production_refs/hcl_ref17'
p6238
sg272
F-15.53880803
sg273
I18
sg274
g275
sbag3
(g4
g5
Ntp6239
Rp6240
(dp6241
g9
g10
sg11
S'hcl_ref18.out'
p6242
sg13
(dp6243
sg15
(dp6244
g17
(lp6245
(lp6246
g20
aS'1.962E-02'
p6247
aS'1.190E-03'
p6248
aS'-15.367293'
p6249
aS'0.000E+00'
p6250
aS'17.90\n'
p6251
aa(lp6252
g27
aS'1.065E-02'
p6253
aS'4.815E-04'
p6254
aS'-15.481461'
p6255
aS'-1.142E-01'
p6256
aS'17.78\n'
p6257
aa(lp6258
g34
aS'4.843E-03'
p6259
aS'1.904E-04'
p6260
aS'-15.517344'
p6261
aS'-3.588E-02'
p6262
aS'17.27\n'
p6263
aa(lp6264
g41
aS'2.537E-03'
p6265
aS'7.287E-05'
p6266
aS'-15.521343'
p6267
aS'-3.999E-03'
p6268
aS'16.75\n'
p6269
aa(lp6270
g48
aS'1.031E-03'
p6271
aS'3.551E-05'
p6272
aS'-15.522273'
p6273
aS'-9.302E-04'
p6274
aS'16.64\n'
p6275
aa(lp6276
g55
aS'5.226E-04'
p6277
aS'1.940E-05'
p6278
aS'-15.522468'
p6279
aS'-1.953E-04'
p6280
aS'16.52\n'
p6281
aa(lp6282
g62
aS'2.773E-04'
p6283
aS'1.029E-05'
p6284
aS'-15.522530'
p6285
aS'-6.234E-05'
p6286
aS'16.49\n'
p6287
aa(lp6288
g69
aS'1.301E-04'
p6289
aS'5.206E-06'
p6290
aS'-15.522551'
p6291
aS'-2.021E-05'
p6292
aS'16.46\n'
p6293
aa(lp6294
g76
aS'4.397E-05'
p6295
aS'2.781E-06'
p6296
aS'-15.522555'
p6297
aS'-4.794E-06'
p6298
aS'16.48\n'
p6299
aa(lp6300
S'10'
p6301
aS'1.828E-05'
p6302
aS'1.416E-06'
p6303
aS'-15.522557'
p6304
aS'-1.351E-06'
p6305
aS'16.58\n'
p6306
aa(lp6307
S'11'
p6308
aS'8.459E-06'
p6309
aS'7.008E-07'
p6310
aS'-15.522557'
p6311
aS'-3.545E-07'
p6312
aS'16.55\n'
p6313
aa(lp6314
S'12'
p6315
aS'4.965E-06'
p6316
aS'3.730E-07'
p6317
aS'-15.522557'
p6318
aS'-7.936E-08'
p6319
aS'16.58\n'
p6320
aa(lp6321
S'13'
p6322
aS'3.310E-06'
p6323
aS'1.750E-07'
p6324
aS'-15.522557'
p6325
aS'-2.684E-08'
p6326
aS'16.58\n'
p6327
aa(lp6328
S'14'
p6329
aS'1.770E-06'
p6330
aS'8.897E-08'
p6331
aS'-15.522557'
p6332
aS'-5.825E-09'
p6333
aS'16.58\n'
p6334
aa(lp6335
S'15'
p6336
aS'6.171E-07'
p6337
aS'4.712E-08'
p6338
aS'-15.522557'
p6339
aS'-1.283E-09'
p6340
aS'16.57\n'
p6341
aa(lp6342
S'16'
p6343
aS'2.746E-07'
p6344
aS'2.645E-08'
p6345
aS'-15.522557'
p6346
aS'-3.251E-10'
p6347
aS'16.54\n'
p6348
aa(lp6349
S'17'
p6350
aS'1.632E-07'
p6351
aS'1.427E-08'
p6352
aS'-15.522557'
p6353
aS'-1.156E-10'
p6354
aS'16.53\n'
p6355
aa(lp6356
S'18'
p6357
aS'8.905E-08'
p6358
aS'7.761E-09'
p6359
aS'-15.522557'
p6360
aS'-4.216E-11'
p6361
aS'16.49\n'
p6362
aasS'ESR'
p6363
F0.00944265
sS'ELECTROSTATIC ENERGY'
p6364
F-15.97135793
sS'EXCHANGE-CORRELATION ENERGY'
p6365
F-3.25386574
sS'LOCAL PSEUDOPOTENTIAL ENERGY'
p6366
F-6.37573877
sS'ESELF'
p6367
F16.62259502
sS'GRADIENT CORRECTION ENERGY'
p6368
F-0.07592391
sS'KINETIC ENERGY'
p6369
F6.23707266
sS'TOTAL ENERGY'
p6370
F-15.36729267
sS'N-L PSEUDOPOTENTIAL ENERGY'
p6371
F3.9965971
ssg182
Fnan
sg183
g3
(g184
g5
Ntp6372
Rp6373
(dp6374
g188
I00
sg189
g190
(g191
g6373
g184
tp6375
Rp6376
sg194
I00
sg195
S'GEOMETRY FILE / created by CPMD\n'
p6377
sg197
g190
(g198
g6373
g184
tp6378
Rp6379
sg201
(dp6380
sg203
I0
sg204
I00
sg205
(lp6381
sg207
I00
sg208
I0
sg209
(lp6382
g10
ag10
asg211
(dp6383
sg213
I2
sg214
(lp6384
g216
ag3989
asg218
g219
(g220
(I0
tp6385
g222
tp6386
Rp6387
(I1
(I2
I3
tp6388
g229
I00
S'\x00\x00\x00\x00\x00\x00\x00\x00\x00\x00\x00\x00\x00\x00\x00\x00\x00\x00\x00\x00\x00\x00\x00\x00j&\\\xc9\xcc\xcc\xfc?\x00\x00\x00\x00\x00\x00\x00\x00\x00\x00\x00\x00\x00\x00\x00\x00'
p6389
tp6390
bsg234
I00
sg235
g219
(g220
(I0
tp6391
g222
tp6392
Rp6393
(I1
(I2
tp6394
g229
I00
S'\x00\x00\x00\x00\x00\x00\xf0?\x00\x00\x00\x00\x00\x001@'
p6395
tp6396
bsg242
I00
sg11
S'H1Cl1'
p6397
sg244
I1
sg245
I00
sg246
g219
(g220
(I0
tp6398
g222
tp6399
Rp6400
(I1
(I1
I0
tp6401
g229
I00
g10
tp6402
bsbsg252
(dp6403
g254
(lp6404
I0
aI0
aI0
asg256
(lp6405
F0.75
aF0.75
aI0
asg258
(lp6406
F0.5
aF0.5
aF0.5
asg260
(lp6407
F0.1
aF0.25
aF0.25
asg262
(lp6408
I1
aF0.25
aI0
asg264
(lp6409
I1
aI0
aI0
assg266
S'hcl_ref18'
p6410
sg268
S'.out'
p6411
sg270
S'/home/samio/project/a02_alchemy_diatomic/reproduce/production_refs/hcl_ref18'
p6412
sg272
F-15.52255731
sg273
I18
sg274
g275
sbag3
(g4
g5
Ntp6413
Rp6414
(dp6415
g9
g10
sg11
S'hcl_ref19.out'
p6416
sg13
(dp6417
sg15
(dp6418
g17
(lp6419
(lp6420
g20
aS'1.943E-02'
p6421
aS'1.188E-03'
p6422
aS'-15.353786'
p6423
aS'0.000E+00'
p6424
aS'17.78\n'
p6425
aa(lp6426
g27
aS'1.083E-02'
p6427
aS'4.800E-04'
p6428
aS'-15.465904'
p6429
aS'-1.121E-01'
p6430
aS'17.50\n'
p6431
aa(lp6432
g34
aS'4.865E-03'
p6433
aS'1.900E-04'
p6434
aS'-15.501441'
p6435
aS'-3.554E-02'
p6436
aS'17.00\n'
p6437
aa(lp6438
g41
aS'2.581E-03'
p6439
aS'7.289E-05'
p6440
aS'-15.505475'
p6441
aS'-4.034E-03'
p6442
aS'16.66\n'
p6443
aa(lp6444
g48
aS'1.050E-03'
p6445
aS'3.531E-05'
p6446
aS'-15.506433'
p6447
aS'-9.582E-04'
p6448
aS'16.55\n'
p6449
aa(lp6450
g55
aS'5.367E-04'
p6451
aS'1.908E-05'
p6452
aS'-15.506640'
p6453
aS'-2.067E-04'
p6454
aS'16.45\n'
p6455
aa(lp6456
g62
aS'2.893E-04'
p6457
aS'9.848E-06'
p6458
aS'-15.506703'
p6459
aS'-6.367E-05'
p6460
aS'16.35\n'
p6461
aa(lp6462
g69
aS'1.303E-04'
p6463
aS'4.926E-06'
p6464
aS'-15.506722'
p6465
aS'-1.889E-05'
p6466
aS'16.40\n'
p6467
aa(lp6468
g76
aS'4.141E-05'
p6469
aS'2.640E-06'
p6470
aS'-15.506726'
p6471
aS'-4.204E-06'
p6472
aS'16.42\n'
p6473
aa(lp6474
S'10'
p6475
aS'1.686E-05'
p6476
aS'1.361E-06'
p6477
aS'-15.506727'
p6478
aS'-1.183E-06'
p6479
aS'16.48\n'
p6480
aa(lp6481
S'11'
p6482
aS'8.177E-06'
p6483
aS'6.822E-07'
p6484
aS'-15.506728'
p6485
aS'-3.290E-07'
p6486
aS'16.43\n'
p6487
aa(lp6488
S'12'
p6489
aS'4.819E-06'
p6490
aS'3.680E-07'
p6491
aS'-15.506728'
p6492
aS'-7.577E-08'
p6493
aS'16.46\n'
p6494
aa(lp6495
S'13'
p6496
aS'3.001E-06'
p6497
aS'1.767E-07'
p6498
aS'-15.506728'
p6499
aS'-2.596E-08'
p6500
aS'16.46\n'
p6501
aa(lp6502
S'14'
p6503
aS'1.583E-06'
p6504
aS'8.741E-08'
p6505
aS'-15.506728'
p6506
aS'-5.931E-09'
p6507
aS'16.45\n'
p6508
aa(lp6509
S'15'
p6510
aS'6.107E-07'
p6511
aS'4.504E-08'
p6512
aS'-15.506728'
p6513
aS'-1.228E-09'
p6514
aS'16.48\n'
p6515
aa(lp6516
S'16'
p6517
aS'2.881E-07'
p6518
aS'2.456E-08'
p6519
aS'-15.506728'
p6520
aS'-2.923E-10'
p6521
aS'16.43\n'
p6522
aa(lp6523
S'17'
p6524
aS'1.344E-07'
p6525
aS'1.341E-08'
p6526
aS'-15.506728'
p6527
aS'-9.640E-11'
p6528
aS'16.48\n'
p6529
aa(lp6530
S'18'
p6531
aS'8.181E-08'
p6532
aS'7.255E-09'
p6533
aS'-15.506728'
p6534
aS'-3.660E-11'
p6535
aS'16.36\n'
p6536
aasS'ESR'
p6537
F0.00540226
sS'ELECTROSTATIC ENERGY'
p6538
F-15.97172881
sS'EXCHANGE-CORRELATION ENERGY'
p6539
F-3.24300801
sS'LOCAL PSEUDOPOTENTIAL ENERGY'
p6540
F-6.36156927
sS'ESELF'
p6541
F16.62259502
sS'GRADIENT CORRECTION ENERGY'
p6542
F-0.07657045
sS'KINETIC ENERGY'
p6543
F6.22919648
sS'TOTAL ENERGY'
p6544
F-15.3537856
sS'N-L PSEUDOPOTENTIAL ENERGY'
p6545
F3.99332401
ssg182
Fnan
sg183
g3
(g184
g5
Ntp6546
Rp6547
(dp6548
g188
I00
sg189
g190
(g191
g6547
g184
tp6549
Rp6550
sg194
I00
sg195
S'GEOMETRY FILE / created by CPMD\n'
p6551
sg197
g190
(g198
g6547
g184
tp6552
Rp6553
sg201
(dp6554
sg203
I0
sg204
I00
sg205
(lp6555
sg207
I00
sg208
I0
sg209
(lp6556
g10
ag10
asg211
(dp6557
sg213
I2
sg214
(lp6558
g216
ag3989
asg218
g219
(g220
(I0
tp6559
g222
tp6560
Rp6561
(I1
(I2
I3
tp6562
g229
I00
S'\x00\x00\x00\x00\x00\x00\x00\x00\x00\x00\x00\x00\x00\x00\x00\x00\x00\x00\x00\x00\x00\x00\x00\x001\xaf\x02\x9aff\xfe?\x00\x00\x00\x00\x00\x00\x00\x00\x00\x00\x00\x00\x00\x00\x00\x00'
p6563
tp6564
bsg234
I00
sg235
g219
(g220
(I0
tp6565
g222
tp6566
Rp6567
(I1
(I2
tp6568
g229
I00
S'\x00\x00\x00\x00\x00\x00\xf0?\x00\x00\x00\x00\x00\x001@'
p6569
tp6570
bsg242
I00
sg11
S'H1Cl1'
p6571
sg244
I1
sg245
I00
sg246
g219
(g220
(I0
tp6572
g222
tp6573
Rp6574
(I1
(I1
I0
tp6575
g229
I00
g10
tp6576
bsbsg252
(dp6577
g254
(lp6578
I0
aI0
aI0
asg256
(lp6579
F0.75
aF0.75
aI0
asg258
(lp6580
F0.5
aF0.5
aF0.5
asg260
(lp6581
F0.1
aF0.25
aF0.25
asg262
(lp6582
I1
aF0.25
aI0
asg264
(lp6583
I1
aI0
aI0
assg266
S'hcl_ref19'
p6584
sg268
S'.out'
p6585
sg270
S'/home/samio/project/a02_alchemy_diatomic/reproduce/production_refs/hcl_ref19'
p6586
sg272
F-15.50672793
sg273
I18
sg274
g275
sbag3
(g4
g5
Ntp6587
Rp6588
(dp6589
g9
g10
sg11
S'hcl_ref20.out'
p6590
sg13
(dp6591
sg15
(dp6592
g17
(lp6593
(lp6594
g20
aS'1.922E-02'
p6595
aS'1.186E-03'
p6596
aS'-15.339907'
p6597
aS'0.000E+00'
p6598
aS'19.97\n'
p6599
aa(lp6600
g27
aS'1.092E-02'
p6601
aS'4.789E-04'
p6602
aS'-15.451083'
p6603
aS'-1.112E-01'
p6604
aS'17.24\n'
p6605
aa(lp6606
g34
aS'4.930E-03'
p6607
aS'1.900E-04'
p6608
aS'-15.486308'
p6609
aS'-3.522E-02'
p6610
aS'16.60\n'
p6611
aa(lp6612
g41
aS'2.609E-03'
p6613
aS'7.323E-05'
p6614
aS'-15.490400'
p6615
aS'-4.092E-03'
p6616
aS'16.42\n'
p6617
aa(lp6618
g48
aS'1.027E-03'
p6619
aS'3.526E-05'
p6620
aS'-15.491391'
p6621
aS'-9.911E-04'
p6622
aS'16.40\n'
p6623
aa(lp6624
g55
aS'5.303E-04'
p6625
aS'1.898E-05'
p6626
aS'-15.491612'
p6627
aS'-2.204E-04'
p6628
aS'16.46\n'
p6629
aa(lp6630
g62
aS'2.920E-04'
p6631
aS'9.597E-06'
p6632
aS'-15.491678'
p6633
aS'-6.586E-05'
p6634
aS'16.48\n'
p6635
aa(lp6636
g69
aS'1.234E-04'
p6637
aS'4.729E-06'
p6638
aS'-15.491696'
p6639
aS'-1.824E-05'
p6640
aS'16.47\n'
p6641
aa(lp6642
g76
aS'4.058E-05'
p6643
aS'2.537E-06'
p6644
aS'-15.491700'
p6645
aS'-3.716E-06'
p6646
aS'16.57\n'
p6647
aa(lp6648
S'10'
p6649
aS'1.627E-05'
p6650
aS'1.316E-06'
p6651
aS'-15.491701'
p6652
aS'-1.058E-06'
p6653
aS'16.61\n'
p6654
aa(lp6655
S'11'
p6656
aS'7.510E-06'
p6657
aS'6.593E-07'
p6658
aS'-15.491701'
p6659
aS'-3.109E-07'
p6660
aS'16.59\n'
p6661
aa(lp6662
S'12'
p6663
aS'4.457E-06'
p6664
aS'3.612E-07'
p6665
aS'-15.491701'
p6666
aS'-7.118E-08'
p6667
aS'16.62\n'
p6668
aa(lp6669
S'13'
p6670
aS'2.872E-06'
p6671
aS'1.769E-07'
p6672
aS'-15.491701'
p6673
aS'-2.467E-08'
p6674
aS'16.61\n'
p6675
aa(lp6676
S'14'
p6677
aS'1.365E-06'
p6678
aS'8.685E-08'
p6679
aS'-15.491701'
p6680
aS'-5.942E-09'
p6681
aS'16.59\n'
p6682
aa(lp6683
S'15'
p6684
aS'6.881E-07'
p6685
aS'4.292E-08'
p6686
aS'-15.491701'
p6687
aS'-1.228E-09'
p6688
aS'16.57\n'
p6689
aa(lp6690
S'16'
p6691
aS'3.821E-07'
p6692
aS'2.322E-08'
p6693
aS'-15.491701'
p6694
aS'-2.557E-10'
p6695
aS'16.51\n'
p6696
aa(lp6697
S'17'
p6698
aS'1.765E-07'
p6699
aS'1.282E-08'
p6700
aS'-15.491701'
p6701
aS'-8.151E-11'
p6702
aS'16.43\n'
p6703
aa(lp6704
S'18'
p6705
aS'9.567E-08'
p6706
aS'6.880E-09'
p6707
aS'-15.491701'
p6708
aS'-3.395E-11'
p6709
aS'16.37\n'
p6710
aasS'ESR'
p6711
F0.00302869
sS'ELECTROSTATIC ENERGY'
p6712
F-15.96956707
sS'EXCHANGE-CORRELATION ENERGY'
p6713
F-3.23354389
sS'LOCAL PSEUDOPOTENTIAL ENERGY'
p6714
F-6.35179116
sS'ESELF'
p6715
F16.62259502
sS'GRADIENT CORRECTION ENERGY'
p6716
F-0.07729048
sS'KINETIC ENERGY'
p6717
F6.22509144
sS'TOTAL ENERGY'
p6718
F-15.3399068
sS'N-L PSEUDOPOTENTIAL ENERGY'
p6719
F3.98990388
ssg182
Fnan
sg183
g3
(g184
g5
Ntp6720
Rp6721
(dp6722
g188
I00
sg189
g190
(g191
g6721
g184
tp6723
Rp6724
sg194
I00
sg195
S'GEOMETRY FILE / created by CPMD\n'
p6725
sg197
g190
(g198
g6721
g184
tp6726
Rp6727
sg201
(dp6728
sg203
I0
sg204
I00
sg205
(lp6729
sg207
I00
sg208
I0
sg209
(lp6730
g10
ag10
asg211
(dp6731
sg213
I2
sg214
(lp6732
g216
ag3989
asg218
g219
(g220
(I0
tp6733
g222
tp6734
Rp6735
(I1
(I2
I3
tp6736
g229
I00
S'\x00\x00\x00\x00\x00\x00\x00\x00\x00\x00\x00\x00\x00\x00\x00\x00\x00\x00\x00\x00\x00\x00\x00\x00\x07p\x9c\xdc\xff\xff\xff?\x00\x00\x00\x00\x00\x00\x00\x00\x00\x00\x00\x00\x00\x00\x00\x00'
p6737
tp6738
bsg234
I00
sg235
g219
(g220
(I0
tp6739
g222
tp6740
Rp6741
(I1
(I2
tp6742
g229
I00
S'\x00\x00\x00\x00\x00\x00\xf0?\x00\x00\x00\x00\x00\x001@'
p6743
tp6744
bsg242
I00
sg11
S'H1Cl1'
p6745
sg244
I1
sg245
I00
sg246
g219
(g220
(I0
tp6746
g222
tp6747
Rp6748
(I1
(I1
I0
tp6749
g229
I00
g10
tp6750
bsbsg252
(dp6751
g254
(lp6752
I0
aI0
aI0
asg256
(lp6753
F0.75
aF0.75
aI0
asg258
(lp6754
F0.5
aF0.5
aF0.5
asg260
(lp6755
F0.1
aF0.25
aF0.25
asg262
(lp6756
I1
aF0.25
aI0
asg264
(lp6757
I1
aI0
aI0
assg266
S'hcl_ref20'
p6758
sg268
S'.out'
p6759
sg270
S'/home/samio/project/a02_alchemy_diatomic/reproduce/production_refs/hcl_ref20'
p6760
sg272
F-15.49170103
sg273
I18
sg274
g275
sbag3
(g4
g5
Ntp6761
Rp6762
(dp6763
g9
g10
sg11
S'hcl_ref21.out'
p6764
sg13
(dp6765
sg15
(dp6766
g17
(lp6767
(lp6768
g20
aS'1.898E-02'
p6769
aS'1.185E-03'
p6770
aS'-15.326044'
p6771
aS'0.000E+00'
p6772
aS'17.77\n'
p6773
aa(lp6774
g27
aS'1.117E-02'
p6775
aS'4.780E-04'
p6776
aS'-15.437552'
p6777
aS'-1.115E-01'
p6778
aS'17.76\n'
p6779
aa(lp6780
g34
aS'4.969E-03'
p6781
aS'1.907E-04'
p6782
aS'-15.472156'
p6783
aS'-3.460E-02'
p6784
aS'16.81\n'
p6785
aa(lp6786
g41
aS'2.556E-03'
p6787
aS'7.393E-05'
p6788
aS'-15.476344'
p6789
aS'-4.189E-03'
p6790
aS'16.60\n'
p6791
aa(lp6792
g48
aS'1.050E-03'
p6793
aS'3.541E-05'
p6794
aS'-15.477361'
p6795
aS'-1.016E-03'
p6796
aS'16.56\n'
p6797
aa(lp6798
g55
aS'5.348E-04'
p6799
aS'1.895E-05'
p6800
aS'-15.477596'
p6801
aS'-2.353E-04'
p6802
aS'16.49\n'
p6803
aa(lp6804
g62
aS'2.949E-04'
p6805
aS'9.402E-06'
p6806
aS'-15.477664'
p6807
aS'-6.752E-05'
p6808
aS'16.50\n'
p6809
aa(lp6810
g69
aS'1.210E-04'
p6811
aS'4.561E-06'
p6812
aS'-15.477681'
p6813
aS'-1.729E-05'
p6814
aS'16.52\n'
p6815
aa(lp6816
g76
aS'3.765E-05'
p6817
aS'2.429E-06'
p6818
aS'-15.477684'
p6819
aS'-3.290E-06'
p6820
aS'16.52\n'
p6821
aa(lp6822
S'10'
p6823
aS'1.557E-05'
p6824
aS'1.267E-06'
p6825
aS'-15.477685'
p6826
aS'-9.192E-07'
p6827
aS'16.57\n'
p6828
aa(lp6829
S'11'
p6830
aS'7.349E-06'
p6831
aS'6.405E-07'
p6832
aS'-15.477685'
p6833
aS'-2.812E-07'
p6834
aS'16.59\n'
p6835
aa(lp6836
S'12'
p6837
aS'4.327E-06'
p6838
aS'3.507E-07'
p6839
aS'-15.477685'
p6840
aS'-6.861E-08'
p6841
aS'16.58\n'
p6842
aa(lp6843
S'13'
p6844
aS'2.814E-06'
p6845
aS'1.746E-07'
p6846
aS'-15.477685'
p6847
aS'-2.322E-08'
p6848
aS'16.57\n'
p6849
aa(lp6850
S'14'
p6851
aS'1.523E-06'
p6852
aS'8.569E-08'
p6853
aS'-15.477685'
p6854
aS'-5.804E-09'
p6855
aS'16.58\n'
p6856
aa(lp6857
S'15'
p6858
aS'6.158E-07'
p6859
aS'4.184E-08'
p6860
aS'-15.477685'
p6861
aS'-1.192E-09'
p6862
aS'16.53\n'
p6863
aa(lp6864
S'16'
p6865
aS'2.828E-07'
p6866
aS'2.181E-08'
p6867
aS'-15.477685'
p6868
aS'-2.479E-10'
p6869
aS'16.53\n'
p6870
aa(lp6871
S'17'
p6872
aS'1.386E-07'
p6873
aS'1.195E-08'
p6874
aS'-15.477685'
p6875
aS'-7.024E-11'
p6876
aS'16.38\n'
p6877
aa(lp6878
S'18'
p6879
aS'7.200E-08'
p6880
aS'6.612E-09'
p6881
aS'-15.477685'
p6882
aS'-2.718E-11'
p6883
aS'15.81\n'
p6884
aasS'ESR'
p6885
F0.00166327
sS'ELECTROSTATIC ENERGY'
p6886
F-15.96550811
sS'EXCHANGE-CORRELATION ENERGY'
p6887
F-3.22533382
sS'LOCAL PSEUDOPOTENTIAL ENERGY'
p6888
F-6.34502464
sS'ESELF'
p6889
F16.62259502
sS'GRADIENT CORRECTION ENERGY'
p6890
F-0.07806792
sS'KINETIC ENERGY'
p6891
F6.22378917
sS'TOTAL ENERGY'
p6892
F-15.32604362
sS'N-L PSEUDOPOTENTIAL ENERGY'
p6893
F3.98603379
ssg182
Fnan
sg183
g3
(g184
g5
Ntp6894
Rp6895
(dp6896
g188
I00
sg189
g190
(g191
g6895
g184
tp6897
Rp6898
sg194
I00
sg195
S'GEOMETRY FILE / created by CPMD\n'
p6899
sg197
g190
(g198
g6895
g184
tp6900
Rp6901
sg201
(dp6902
sg203
I0
sg204
I00
sg205
(lp6903
sg207
I00
sg208
I0
sg209
(lp6904
g10
ag10
asg211
(dp6905
sg213
I2
sg214
(lp6906
g216
ag3989
asg218
g219
(g220
(I0
tp6907
g222
tp6908
Rp6909
(I1
(I2
I3
tp6910
g229
I00
S'\x00\x00\x00\x00\x00\x00\x00\x00\x00\x00\x00\x00\x00\x00\x00\x00\x00\x00\x00\x00\x00\x00\x00\x00g|\xa1\xd6\xcc\xcc\x00@\x00\x00\x00\x00\x00\x00\x00\x00\x00\x00\x00\x00\x00\x00\x00\x00'
p6911
tp6912
bsg234
I00
sg235
g219
(g220
(I0
tp6913
g222
tp6914
Rp6915
(I1
(I2
tp6916
g229
I00
S'\x00\x00\x00\x00\x00\x00\xf0?\x00\x00\x00\x00\x00\x001@'
p6917
tp6918
bsg242
I00
sg11
S'H1Cl1'
p6919
sg244
I1
sg245
I00
sg246
g219
(g220
(I0
tp6920
g222
tp6921
Rp6922
(I1
(I1
I0
tp6923
g229
I00
g10
tp6924
bsbsg252
(dp6925
g254
(lp6926
I0
aI0
aI0
asg256
(lp6927
F0.75
aF0.75
aI0
asg258
(lp6928
F0.5
aF0.5
aF0.5
asg260
(lp6929
F0.1
aF0.25
aF0.25
asg262
(lp6930
I1
aF0.25
aI0
asg264
(lp6931
I1
aI0
aI0
assg266
S'hcl_ref21'
p6932
sg268
S'.out'
p6933
sg270
S'/home/samio/project/a02_alchemy_diatomic/reproduce/production_refs/hcl_ref21'
p6934
sg272
F-15.47768543
sg273
I18
sg274
g275
sbag3
(g4
g5
Ntp6935
Rp6936
(dp6937
g9
g10
sg11
S'hcl_ref22.out'
p6938
sg13
(dp6939
sg15
(dp6940
g17
(lp6941
(lp6942
g20
aS'1.873E-02'
p6943
aS'1.184E-03'
p6944
aS'-15.312393'
p6945
aS'0.000E+00'
p6946
aS'16.52\n'
p6947
aa(lp6948
g27
aS'1.100E-02'
p6949
aS'4.768E-04'
p6950
aS'-15.425138'
p6951
aS'-1.127E-01'
p6952
aS'16.36\n'
p6953
aa(lp6954
g34
aS'4.980E-03'
p6955
aS'1.916E-04'
p6956
aS'-15.459088'
p6957
aS'-3.395E-02'
p6958
aS'16.61\n'
p6959
aa(lp6960
g41
aS'2.498E-03'
p6961
aS'7.453E-05'
p6962
aS'-15.463400'
p6963
aS'-4.312E-03'
p6964
aS'16.52\n'
p6965
aa(lp6966
g48
aS'1.007E-03'
p6967
aS'3.558E-05'
p6968
aS'-15.464438'
p6969
aS'-1.037E-03'
p6970
aS'16.51\n'
p6971
aa(lp6972
g55
aS'5.698E-04'
p6973
aS'1.898E-05'
p6974
aS'-15.464690'
p6975
aS'-2.521E-04'
p6976
aS'16.49\n'
p6977
aa(lp6978
g62
aS'3.279E-04'
p6979
aS'9.250E-06'
p6980
aS'-15.464759'
p6981
aS'-6.907E-05'
p6982
aS'16.54\n'
p6983
aa(lp6984
g69
aS'1.109E-04'
p6985
aS'4.482E-06'
p6986
aS'-15.464775'
p6987
aS'-1.628E-05'
p6988
aS'16.58\n'
p6989
aa(lp6990
g76
aS'3.871E-05'
p6991
aS'2.359E-06'
p6992
aS'-15.464778'
p6993
aS'-2.961E-06'
p6994
aS'16.71\n'
p6995
aa(lp6996
S'10'
p6997
aS'1.395E-05'
p6998
aS'1.219E-06'
p6999
aS'-15.464779'
p7000
aS'-8.106E-07'
p7001
aS'16.64\n'
p7002
aa(lp7003
S'11'
p7004
aS'6.954E-06'
p7005
aS'6.208E-07'
p7006
aS'-15.464779'
p7007
aS'-2.547E-07'
p7008
aS'16.65\n'
p7009
aa(lp7010
S'12'
p7011
aS'4.028E-06'
p7012
aS'3.394E-07'
p7013
aS'-15.464779'
p7014
aS'-6.406E-08'
p7015
aS'16.65\n'
p7016
aa(lp7017
S'13'
p7018
aS'2.647E-06'
p7019
aS'1.715E-07'
p7020
aS'-15.464779'
p7021
aS'-2.161E-08'
p7022
aS'16.64\n'
p7023
aa(lp7024
S'14'
p7025
aS'1.447E-06'
p7026
aS'8.383E-08'
p7027
aS'-15.464779'
p7028
aS'-5.597E-09'
p7029
aS'16.62\n'
p7030
aa(lp7031
S'15'
p7032
aS'6.163E-07'
p7033
aS'4.048E-08'
p7034
aS'-15.464779'
p7035
aS'-1.144E-09'
p7036
aS'16.61\n'
p7037
aa(lp7038
S'16'
p7039
aS'3.280E-07'
p7040
aS'2.049E-08'
p7041
aS'-15.464779'
p7042
aS'-2.303E-10'
p7043
aS'16.55\n'
p7044
aa(lp7045
S'17'
p7046
aS'1.710E-07'
p7047
aS'1.120E-08'
p7048
aS'-15.464779'
p7049
aS'-5.872E-11'
p7050
aS'16.47\n'
p7051
aa(lp7052
S'18'
p7053
aS'9.316E-08'
p7054
aS'6.314E-09'
p7055
aS'-15.464779'
p7056
aS'-2.376E-11'
p7057
aS'16.38\n'
p7058
aasS'ESR'
p7059
F0.00089444
sS'ELECTROSTATIC ENERGY'
p7060
F-15.95984718
sS'EXCHANGE-CORRELATION ENERGY'
p7061
F-3.21820705
sS'LOCAL PSEUDOPOTENTIAL ENERGY'
p7062
F-6.34012573
sS'ESELF'
p7063
F16.62259502
sS'GRADIENT CORRECTION ENERGY'
p7064
F-0.07888659
sS'KINETIC ENERGY'
p7065
F6.22433553
sS'TOTAL ENERGY'
p7066
F-15.31239284
sS'N-L PSEUDOPOTENTIAL ENERGY'
p7067
F3.98145158
ssg182
Fnan
sg183
g3
(g184
g5
Ntp7068
Rp7069
(dp7070
g188
I00
sg189
g190
(g191
g7069
g184
tp7071
Rp7072
sg194
I00
sg195
S'GEOMETRY FILE / created by CPMD\n'
p7073
sg197
g190
(g198
g7069
g184
tp7074
Rp7075
sg201
(dp7076
sg203
I0
sg204
I00
sg205
(lp7077
sg207
I00
sg208
I0
sg209
(lp7078
g10
ag10
asg211
(dp7079
sg213
I2
sg214
(lp7080
g216
ag3989
asg218
g219
(g220
(I0
tp7081
g222
tp7082
Rp7083
(I1
(I2
I3
tp7084
g229
I00
S'\x00\x00\x00\x00\x00\x00\x00\x00\x00\x00\x00\x00\x00\x00\x00\x00\x00\x00\x00\x00\x00\x00\x00\x00\xd1\\\xeew\x99\x99\x01@\x00\x00\x00\x00\x00\x00\x00\x00\x00\x00\x00\x00\x00\x00\x00\x00'
p7085
tp7086
bsg234
I00
sg235
g219
(g220
(I0
tp7087
g222
tp7088
Rp7089
(I1
(I2
tp7090
g229
I00
S'\x00\x00\x00\x00\x00\x00\xf0?\x00\x00\x00\x00\x00\x001@'
p7091
tp7092
bsg242
I00
sg11
S'H1Cl1'
p7093
sg244
I1
sg245
I00
sg246
g219
(g220
(I0
tp7094
g222
tp7095
Rp7096
(I1
(I1
I0
tp7097
g229
I00
g10
tp7098
bsbsg252
(dp7099
g254
(lp7100
I0
aI0
aI0
asg256
(lp7101
F0.75
aF0.75
aI0
asg258
(lp7102
F0.5
aF0.5
aF0.5
asg260
(lp7103
F0.1
aF0.25
aF0.25
asg262
(lp7104
I1
aF0.25
aI0
asg264
(lp7105
I1
aI0
aI0
assg266
S'hcl_ref22'
p7106
sg268
S'.out'
p7107
sg270
S'/home/samio/project/a02_alchemy_diatomic/reproduce/production_refs/hcl_ref22'
p7108
sg272
F-15.46477926
sg273
I18
sg274
g275
sbag3
(g4
g5
Ntp7109
Rp7110
(dp7111
g9
g10
sg11
S'hcl_ref23.out'
p7112
sg13
(dp7113
sg15
(dp7114
g17
(lp7115
(lp7116
g20
aS'1.846E-02'
p7117
aS'1.184E-03'
p7118
aS'-15.299010'
p7119
aS'0.000E+00'
p7120
aS'16.24\n'
p7121
aa(lp7122
g27
aS'1.095E-02'
p7123
aS'4.744E-04'
p7124
aS'-15.413996'
p7125
aS'-1.150E-01'
p7126
aS'16.51\n'
p7127
aa(lp7128
g34
aS'5.053E-03'
p7129
aS'1.927E-04'
p7130
aS'-15.447098'
p7131
aS'-3.310E-02'
p7132
aS'16.38\n'
p7133
aa(lp7134
g41
aS'2.447E-03'
p7135
aS'7.537E-05'
p7136
aS'-15.451587'
p7137
aS'-4.488E-03'
p7138
aS'16.21\n'
p7139
aa(lp7140
g48
aS'1.050E-03'
p7141
aS'3.591E-05'
p7142
aS'-15.452647'
p7143
aS'-1.061E-03'
p7144
aS'16.30\n'
p7145
aa(lp7146
g55
aS'5.577E-04'
p7147
aS'1.902E-05'
p7148
aS'-15.452920'
p7149
aS'-2.728E-04'
p7150
aS'16.38\n'
p7151
aa(lp7152
g62
aS'3.234E-04'
p7153
aS'9.114E-06'
p7154
aS'-15.452991'
p7155
aS'-7.038E-05'
p7156
aS'16.39\n'
p7157
aa(lp7158
g69
aS'1.205E-04'
p7159
aS'4.390E-06'
p7160
aS'-15.453006'
p7161
aS'-1.549E-05'
p7162
aS'16.41\n'
p7163
aa(lp7164
g76
aS'3.475E-05'
p7165
aS'2.268E-06'
p7166
aS'-15.453009'
p7167
aS'-2.691E-06'
p7168
aS'16.41\n'
p7169
aa(lp7170
S'10'
p7171
aS'1.307E-05'
p7172
aS'1.172E-06'
p7173
aS'-15.453009'
p7174
aS'-7.015E-07'
p7175
aS'16.50\n'
p7176
aa(lp7177
S'11'
p7178
aS'6.417E-06'
p7179
aS'5.956E-07'
p7180
aS'-15.453010'
p7181
aS'-2.267E-07'
p7182
aS'16.51\n'
p7183
aa(lp7184
S'12'
p7185
aS'3.810E-06'
p7186
aS'3.241E-07'
p7187
aS'-15.453010'
p7188
aS'-5.919E-08'
p7189
aS'16.45\n'
p7190
aa(lp7191
S'13'
p7192
aS'2.653E-06'
p7193
aS'1.660E-07'
p7194
aS'-15.453010'
p7195
aS'-1.959E-08'
p7196
aS'16.47\n'
p7197
aa(lp7198
S'14'
p7199
aS'1.409E-06'
p7200
aS'8.205E-08'
p7201
aS'-15.453010'
p7202
aS'-5.250E-09'
p7203
aS'16.43\n'
p7204
aa(lp7205
S'15'
p7206
aS'6.714E-07'
p7207
aS'3.887E-08'
p7208
aS'-15.453010'
p7209
aS'-1.107E-09'
p7210
aS'16.48\n'
p7211
aa(lp7212
S'16'
p7213
aS'2.991E-07'
p7214
aS'1.903E-08'
p7215
aS'-15.453010'
p7216
aS'-2.170E-10'
p7217
aS'16.23\n'
p7218
aa(lp7219
S'17'
p7220
aS'1.072E-07'
p7221
aS'1.016E-08'
p7222
aS'-15.453010'
p7223
aS'-5.008E-11'
p7224
aS'16.26\n'
p7225
aa(lp7226
S'18'
p7227
aS'7.049E-08'
p7228
aS'5.853E-09'
p7229
aS'-15.453010'
p7230
aS'-1.672E-11'
p7231
aS'15.86\n'
p7232
aasS'ESR'
p7233
F0.00047086
sS'ELECTROSTATIC ENERGY'
p7234
F-15.95262201
sS'EXCHANGE-CORRELATION ENERGY'
p7235
F-3.21197196
sS'LOCAL PSEUDOPOTENTIAL ENERGY'
p7236
F-6.33613567
sS'ESELF'
p7237
F16.62259502
sS'GRADIENT CORRECTION ENERGY'
p7238
F-0.07973179
sS'KINETIC ENERGY'
p7239
F6.22580701
sS'TOTAL ENERGY'
p7240
F-15.29901027
sS'N-L PSEUDOPOTENTIAL ENERGY'
p7241
F3.97591235
ssg182
Fnan
sg183
g3
(g184
g5
Ntp7242
Rp7243
(dp7244
g188
I00
sg189
g190
(g191
g7243
g184
tp7245
Rp7246
sg194
I00
sg195
S'GEOMETRY FILE / created by CPMD\n'
p7247
sg197
g190
(g198
g7243
g184
tp7248
Rp7249
sg201
(dp7250
sg203
I0
sg204
I00
sg205
(lp7251
sg207
I00
sg208
I0
sg209
(lp7252
g10
ag10
asg211
(dp7253
sg213
I2
sg214
(lp7254
g216
ag3989
asg218
g219
(g220
(I0
tp7255
g222
tp7256
Rp7257
(I1
(I2
I3
tp7258
g229
I00
S'\x00\x00\x00\x00\x00\x00\x00\x00\x00\x00\x00\x00\x00\x00\x00\x00\x00\x00\x00\x00\x00\x00\x00\x006\xa1A`ff\x02@\x00\x00\x00\x00\x00\x00\x00\x00\x00\x00\x00\x00\x00\x00\x00\x00'
p7259
tp7260
bsg234
I00
sg235
g219
(g220
(I0
tp7261
g222
tp7262
Rp7263
(I1
(I2
tp7264
g229
I00
S'\x00\x00\x00\x00\x00\x00\xf0?\x00\x00\x00\x00\x00\x001@'
p7265
tp7266
bsg242
I00
sg11
S'H1Cl1'
p7267
sg244
I1
sg245
I00
sg246
g219
(g220
(I0
tp7268
g222
tp7269
Rp7270
(I1
(I1
I0
tp7271
g229
I00
g10
tp7272
bsbsg252
(dp7273
g254
(lp7274
I0
aI0
aI0
asg256
(lp7275
F0.75
aF0.75
aI0
asg258
(lp7276
F0.5
aF0.5
aF0.5
asg260
(lp7277
F0.1
aF0.25
aF0.25
asg262
(lp7278
I1
aF0.25
aI0
asg264
(lp7279
I1
aI0
aI0
assg266
S'hcl_ref23'
p7280
sg268
S'.out'
p7281
sg270
S'/home/samio/project/a02_alchemy_diatomic/reproduce/production_refs/hcl_ref23'
p7282
sg272
F-15.45300977
sg273
I18
sg274
g275
sbaa(lp7283
g3
(g4
g5
Ntp7284
Rp7285
(dp7286
g9
g10
sg11
S'hcl_prd05.out'
p7287
sg13
(dp7288
sg15
(dp7289
g17
(lp7290
(lp7291
g20
aS'2.079E-01'
p7292
aS'1.232E-02'
p7293
aS'-1.617217'
p7294
aS'0.000E+00'
p7295
aS'18.69\n'
p7296
aasS'ESR'
p7297
F3.19347022
sS'ELECTROSTATIC ENERGY'
p7298
F-11.62341607
sS'EXCHANGE-CORRELATION ENERGY'
p7299
F-5.36643324
sS'LOCAL PSEUDOPOTENTIAL ENERGY'
p7300
F-28.46510635
sS'ESELF'
p7301
F16.62259502
sS'GRADIENT CORRECTION ENERGY'
p7302
F-0.13811823
sS'KINETIC ENERGY'
p7303
F21.98057011
sS'TOTAL ENERGY'
p7304
F-1.6172169
sS'N-L PSEUDOPOTENTIAL ENERGY'
p7305
F21.85716865
ssg182
Fnan
sg183
g3
(g184
g5
Ntp7306
Rp7307
(dp7308
g188
I00
sg189
g190
(g191
g7307
g184
tp7309
Rp7310
sg194
I00
sg195
S'GEOMETRY FILE / created by CPMD\n'
p7311
sg197
g190
(g198
g7307
g184
tp7312
Rp7313
sg201
(dp7314
sg203
I0
sg204
I00
sg205
(lp7315
sg207
I00
sg208
I0
sg209
(lp7316
g10
ag10
asg211
(dp7317
sg213
I2
sg214
(lp7318
g216
ag3989
asg218
g219
(g220
(I0
tp7319
g222
tp7320
Rp7321
(I1
(I2
I3
tp7322
g229
I00
S'\x00\x00\x00\x00\x00\x00\x00\x00\x00\x00\x00\x00\x00\x00\x00\x00\x00\x00\x00\x00\x00\x00\x00\x00\x07p\x9c\xdc\xff\xff\xdf?\x00\x00\x00\x00\x00\x00\x00\x00\x00\x00\x00\x00\x00\x00\x00\x00'
p7323
tp7324
bsg234
I00
sg235
g219
(g220
(I0
tp7325
g222
tp7326
Rp7327
(I1
(I2
tp7328
g229
I00
S'\x00\x00\x00\x00\x00\x00\xf0?\x00\x00\x00\x00\x00\x001@'
p7329
tp7330
bsg242
I00
sg11
S'H1Cl1'
p7331
sg244
I1
sg245
I00
sg246
g219
(g220
(I0
tp7332
g222
tp7333
Rp7334
(I1
(I1
I0
tp7335
g229
I00
g10
tp7336
bsbsg252
(dp7337
g254
(lp7338
I0
aI0
aI0
asg256
(lp7339
F0.75
aF0.75
aI0
asg258
(lp7340
F0.5
aF0.5
aF0.5
asg260
(lp7341
F0.1
aF0.25
aF0.25
asg262
(lp7342
I1
aF0.25
aI0
asg264
(lp7343
I1
aI0
aI0
assg266
S'hcl_prd05'
p7344
sg268
S'.out'
p7345
sg270
S'/home/samio/project/a02_alchemy_diatomic/reproduce/production_prds/hcl_prd05'
p7346
sg272
F-1.6172169
sg273
I1
sg274
g275
sbag3
(g4
g5
Ntp7347
Rp7348
(dp7349
g9
g10
sg11
S'hcl_prd06.out'
p7350
sg13
(dp7351
sg15
(dp7352
g17
(lp7353
(lp7354
g20
aS'1.757E-01'
p7355
aS'1.223E-02'
p7356
aS'-2.798841'
p7357
aS'0.000E+00'
p7358
aS'19.79\n'
p7359
aasS'ESR'
p7360
F2.1282639
sS'ELECTROSTATIC ENERGY'
p7361
F-12.87926865
sS'EXCHANGE-CORRELATION ENERGY'
p7362
F-5.248465
sS'LOCAL PSEUDOPOTENTIAL ENERGY'
p7363
F-26.96386123
sS'ESELF'
p7364
F16.62259502
sS'GRADIENT CORRECTION ENERGY'
p7365
F-0.13314014
sS'KINETIC ENERGY'
p7366
F21.12776368
sS'TOTAL ENERGY'
p7367
F-2.79884055
sS'N-L PSEUDOPOTENTIAL ENERGY'
p7368
F21.16499066
ssg182
Fnan
sg183
g3
(g184
g5
Ntp7369
Rp7370
(dp7371
g188
I00
sg189
g190
(g191
g7370
g184
tp7372
Rp7373
sg194
I00
sg195
S'GEOMETRY FILE / created by CPMD\n'
p7374
sg197
g190
(g198
g7370
g184
tp7375
Rp7376
sg201
(dp7377
sg203
I0
sg204
I00
sg205
(lp7378
sg207
I00
sg208
I0
sg209
(lp7379
g10
ag10
asg211
(dp7380
sg213
I2
sg214
(lp7381
g216
ag3989
asg218
g219
(g220
(I0
tp7382
g222
tp7383
Rp7384
(I1
(I2
I3
tp7385
g229
I00
S'\x00\x00\x00\x00\x00\x00\x00\x00\x00\x00\x00\x00\x00\x00\x00\x00\x00\x00\x00\x00\x00\x00\x00\x00\x93I\x9b\x8f33\xe3?\x00\x00\x00\x00\x00\x00\x00\x00\x00\x00\x00\x00\x00\x00\x00\x00'
p7386
tp7387
bsg234
I00
sg235
g219
(g220
(I0
tp7388
g222
tp7389
Rp7390
(I1
(I2
tp7391
g229
I00
S'\x00\x00\x00\x00\x00\x00\xf0?\x00\x00\x00\x00\x00\x001@'
p7392
tp7393
bsg242
I00
sg11
S'H1Cl1'
p7394
sg244
I1
sg245
I00
sg246
g219
(g220
(I0
tp7395
g222
tp7396
Rp7397
(I1
(I1
I0
tp7398
g229
I00
g10
tp7399
bsbsg252
(dp7400
g254
(lp7401
I0
aI0
aI0
asg256
(lp7402
F0.75
aF0.75
aI0
asg258
(lp7403
F0.5
aF0.5
aF0.5
asg260
(lp7404
F0.1
aF0.25
aF0.25
asg262
(lp7405
I1
aF0.25
aI0
asg264
(lp7406
I1
aI0
aI0
assg266
S'hcl_prd06'
p7407
sg268
S'.out'
p7408
sg270
S'/home/samio/project/a02_alchemy_diatomic/reproduce/production_prds/hcl_prd06'
p7409
sg272
F-2.79884055
sg273
I1
sg274
g275
sbag3
(g4
g5
Ntp7410
Rp7411
(dp7412
g9
g10
sg11
S'hcl_prd07.out'
p7413
sg13
(dp7414
sg15
(dp7415
g17
(lp7416
(lp7417
g20
aS'1.866E-01'
p7418
aS'1.216E-02'
p7419
aS'-3.503004'
p7420
aS'0.000E+00'
p7421
aS'18.62\n'
p7422
aasS'ESR'
p7423
F1.43043893
sS'ELECTROSTATIC ENERGY'
p7424
F-13.69824749
sS'EXCHANGE-CORRELATION ENERGY'
p7425
F-5.15448572
sS'LOCAL PSEUDOPOTENTIAL ENERGY'
p7426
F-25.877883
sS'ESELF'
p7427
F16.62259502
sS'GRADIENT CORRECTION ENERGY'
p7428
F-0.12948949
sS'KINETIC ENERGY'
p7429
F20.53132659
sS'TOTAL ENERGY'
p7430
F-3.50300419
sS'N-L PSEUDOPOTENTIAL ENERGY'
p7431
F20.69628544
ssg182
Fnan
sg183
g3
(g184
g5
Ntp7432
Rp7433
(dp7434
g188
I00
sg189
g190
(g191
g7433
g184
tp7435
Rp7436
sg194
I00
sg195
S'GEOMETRY FILE / created by CPMD\n'
p7437
sg197
g190
(g198
g7433
g184
tp7438
Rp7439
sg201
(dp7440
sg203
I0
sg204
I00
sg205
(lp7441
sg207
I00
sg208
I0
sg209
(lp7442
g10
ag10
asg211
(dp7443
sg213
I2
sg214
(lp7444
g216
ag3989
asg218
g219
(g220
(I0
tp7445
g222
tp7446
Rp7447
(I1
(I2
I3
tp7448
g229
I00
S'\x00\x00\x00\x00\x00\x00\x00\x00\x00\x00\x00\x00\x00\x00\x00\x00\x00\x00\x00\x00\x00\x00\x00\x00=\xcb\xce\x14ff\xe6?\x00\x00\x00\x00\x00\x00\x00\x00\x00\x00\x00\x00\x00\x00\x00\x00'
p7449
tp7450
bsg234
I00
sg235
g219
(g220
(I0
tp7451
g222
tp7452
Rp7453
(I1
(I2
tp7454
g229
I00
S'\x00\x00\x00\x00\x00\x00\xf0?\x00\x00\x00\x00\x00\x001@'
p7455
tp7456
bsg242
I00
sg11
S'H1Cl1'
p7457
sg244
I1
sg245
I00
sg246
g219
(g220
(I0
tp7458
g222
tp7459
Rp7460
(I1
(I1
I0
tp7461
g229
I00
g10
tp7462
bsbsg252
(dp7463
g254
(lp7464
I0
aI0
aI0
asg256
(lp7465
F0.75
aF0.75
aI0
asg258
(lp7466
F0.5
aF0.5
aF0.5
asg260
(lp7467
F0.1
aF0.25
aF0.25
asg262
(lp7468
I1
aF0.25
aI0
asg264
(lp7469
I1
aI0
aI0
assg266
S'hcl_prd07'
p7470
sg268
S'.out'
p7471
sg270
S'/home/samio/project/a02_alchemy_diatomic/reproduce/production_prds/hcl_prd07'
p7472
sg272
F-3.50300419
sg273
I1
sg274
g275
sbag3
(g4
g5
Ntp7473
Rp7474
(dp7475
g9
g10
sg11
S'hcl_prd08.out'
p7476
sg13
(dp7477
sg15
(dp7478
g17
(lp7479
(lp7480
g20
aS'1.890E-01'
p7481
aS'1.210E-02'
p7482
aS'-3.924722'
p7483
aS'0.000E+00'
p7484
aS'19.11\n'
p7485
aasS'ESR'
p7486
F0.96187658
sS'ELECTROSTATIC ENERGY'
p7487
F-14.24003944
sS'EXCHANGE-CORRELATION ENERGY'
p7488
F-5.07991511
sS'LOCAL PSEUDOPOTENTIAL ENERGY'
p7489
F-25.10348102
sS'ESELF'
p7490
F16.62259502
sS'GRADIENT CORRECTION ENERGY'
p7491
F-0.12695051
sS'KINETIC ENERGY'
p7492
F20.10913899
sS'TOTAL ENERGY'
p7493
F-3.9247225
sS'N-L PSEUDOPOTENTIAL ENERGY'
p7494
F20.38957408
ssg182
Fnan
sg183
g3
(g184
g5
Ntp7495
Rp7496
(dp7497
g188
I00
sg189
g190
(g191
g7496
g184
tp7498
Rp7499
sg194
I00
sg195
S'GEOMETRY FILE / created by CPMD\n'
p7500
sg197
g190
(g198
g7496
g184
tp7501
Rp7502
sg201
(dp7503
sg203
I0
sg204
I00
sg205
(lp7504
sg207
I00
sg208
I0
sg209
(lp7505
g10
ag10
asg211
(dp7506
sg213
I2
sg214
(lp7507
g216
ag3989
asg218
g219
(g220
(I0
tp7508
g222
tp7509
Rp7510
(I1
(I2
I3
tp7511
g229
I00
S'\x00\x00\x00\x00\x00\x00\x00\x00\x00\x00\x00\x00\x00\x00\x00\x00\x00\x00\x00\x00\x00\x00\x00\x00\xcd\xdc\x1b\xb6\x99\x99\xe9?\x00\x00\x00\x00\x00\x00\x00\x00\x00\x00\x00\x00\x00\x00\x00\x00'
p7512
tp7513
bsg234
I00
sg235
g219
(g220
(I0
tp7514
g222
tp7515
Rp7516
(I1
(I2
tp7517
g229
I00
S'\x00\x00\x00\x00\x00\x00\xf0?\x00\x00\x00\x00\x00\x001@'
p7518
tp7519
bsg242
I00
sg11
S'H1Cl1'
p7520
sg244
I1
sg245
I00
sg246
g219
(g220
(I0
tp7521
g222
tp7522
Rp7523
(I1
(I1
I0
tp7524
g229
I00
g10
tp7525
bsbsg252
(dp7526
g254
(lp7527
I0
aI0
aI0
asg256
(lp7528
F0.75
aF0.75
aI0
asg258
(lp7529
F0.5
aF0.5
aF0.5
asg260
(lp7530
F0.1
aF0.25
aF0.25
asg262
(lp7531
I1
aF0.25
aI0
asg264
(lp7532
I1
aI0
aI0
assg266
S'hcl_prd08'
p7533
sg268
S'.out'
p7534
sg270
S'/home/samio/project/a02_alchemy_diatomic/reproduce/production_prds/hcl_prd08'
p7535
sg272
F-3.9247225
sg273
I1
sg274
g275
sbag3
(g4
g5
Ntp7536
Rp7537
(dp7538
g9
g10
sg11
S'hcl_prd09.out'
p7539
sg13
(dp7540
sg15
(dp7541
g17
(lp7542
(lp7543
g20
aS'1.913E-01'
p7544
aS'1.205E-02'
p7545
aS'-4.177123'
p7546
aS'0.000E+00'
p7547
aS'18.75\n'
p7548
aasS'ESR'
p7549
F0.64370157
sS'ELECTROSTATIC ENERGY'
p7550
F-14.60042053
sS'EXCHANGE-CORRELATION ENERGY'
p7551
F-5.02063724
sS'LOCAL PSEUDOPOTENTIAL ENERGY'
p7552
F-24.55582493
sS'ESELF'
p7553
F16.62259502
sS'GRADIENT CORRECTION ENERGY'
p7554
F-0.12529113
sS'KINETIC ENERGY'
p7555
F19.80877483
sS'TOTAL ENERGY'
p7556
F-4.17712291
sS'N-L PSEUDOPOTENTIAL ENERGY'
p7557
F20.19098496
ssg182
Fnan
sg183
g3
(g184
g5
Ntp7558
Rp7559
(dp7560
g188
I00
sg189
g190
(g191
g7559
g184
tp7561
Rp7562
sg194
I00
sg195
S'GEOMETRY FILE / created by CPMD\n'
p7563
sg197
g190
(g198
g7559
g184
tp7564
Rp7565
sg201
(dp7566
sg203
I0
sg204
I00
sg205
(lp7567
sg207
I00
sg208
I0
sg209
(lp7568
g10
ag10
asg211
(dp7569
sg213
I2
sg214
(lp7570
g216
ag3989
asg218
g219
(g220
(I0
tp7571
g222
tp7572
Rp7573
(I1
(I2
I3
tp7574
g229
I00
S'\x00\x00\x00\x00\x00\x00\x00\x00\x00\x00\x00\x00\x00\x00\x00\x00\x00\x00\x00\x00\x00\x00\x00\x00\\\xeehW\xcd\xcc\xec?\x00\x00\x00\x00\x00\x00\x00\x00\x00\x00\x00\x00\x00\x00\x00\x00'
p7575
tp7576
bsg234
I00
sg235
g219
(g220
(I0
tp7577
g222
tp7578
Rp7579
(I1
(I2
tp7580
g229
I00
S'\x00\x00\x00\x00\x00\x00\xf0?\x00\x00\x00\x00\x00\x001@'
p7581
tp7582
bsg242
I00
sg11
S'H1Cl1'
p7583
sg244
I1
sg245
I00
sg246
g219
(g220
(I0
tp7584
g222
tp7585
Rp7586
(I1
(I1
I0
tp7587
g229
I00
g10
tp7588
bsbsg252
(dp7589
g254
(lp7590
I0
aI0
aI0
asg256
(lp7591
F0.75
aF0.75
aI0
asg258
(lp7592
F0.5
aF0.5
aF0.5
asg260
(lp7593
F0.1
aF0.25
aF0.25
asg262
(lp7594
I1
aF0.25
aI0
asg264
(lp7595
I1
aI0
aI0
assg266
S'hcl_prd09'
p7596
sg268
S'.out'
p7597
sg270
S'/home/samio/project/a02_alchemy_diatomic/reproduce/production_prds/hcl_prd09'
p7598
sg272
F-4.17712291
sg273
I1
sg274
g275
sbag3
(g4
g5
Ntp7599
Rp7600
(dp7601
g9
g10
sg11
S'hcl_prd10.out'
p7602
sg13
(dp7603
sg15
(dp7604
g17
(lp7605
(lp7606
g20
aS'1.960E-01'
p7607
aS'1.202E-02'
p7608
aS'-4.327210'
p7609
aS'0.000E+00'
p7610
aS'18.70\n'
p7611
aasS'ESR'
p7612
F0.42713276
sS'ELECTROSTATIC ENERGY'
p7613
F-14.84026512
sS'EXCHANGE-CORRELATION ENERGY'
p7614
F-4.97323292
sS'LOCAL PSEUDOPOTENTIAL ENERGY'
p7615
F-24.16967633
sS'ESELF'
p7616
F16.62259502
sS'GRADIENT CORRECTION ENERGY'
p7617
F-0.12429086
sS'KINETIC ENERGY'
p7618
F19.59398812
sS'TOTAL ENERGY'
p7619
F-4.32721
sS'N-L PSEUDOPOTENTIAL ENERGY'
p7620
F20.06197625
ssg182
Fnan
sg183
g3
(g184
g5
Ntp7621
Rp7622
(dp7623
g188
I00
sg189
g190
(g191
g7622
g184
tp7624
Rp7625
sg194
I00
sg195
S'GEOMETRY FILE / created by CPMD\n'
p7626
sg197
g190
(g198
g7622
g184
tp7627
Rp7628
sg201
(dp7629
sg203
I0
sg204
I00
sg205
(lp7630
sg207
I00
sg208
I0
sg209
(lp7631
g10
ag10
asg211
(dp7632
sg213
I2
sg214
(lp7633
g216
ag3989
asg218
g219
(g220
(I0
tp7634
g222
tp7635
Rp7636
(I1
(I2
I3
tp7637
g229
I00
S'\x00\x00\x00\x00\x00\x00\x00\x00\x00\x00\x00\x00\x00\x00\x00\x00\x00\x00\x00\x00\x00\x00\x00\x00\x07p\x9c\xdc\xff\xff\xef?\x00\x00\x00\x00\x00\x00\x00\x00\x00\x00\x00\x00\x00\x00\x00\x00'
p7638
tp7639
bsg234
I00
sg235
g219
(g220
(I0
tp7640
g222
tp7641
Rp7642
(I1
(I2
tp7643
g229
I00
S'\x00\x00\x00\x00\x00\x00\xf0?\x00\x00\x00\x00\x00\x001@'
p7644
tp7645
bsg242
I00
sg11
S'H1Cl1'
p7646
sg244
I1
sg245
I00
sg246
g219
(g220
(I0
tp7647
g222
tp7648
Rp7649
(I1
(I1
I0
tp7650
g229
I00
g10
tp7651
bsbsg252
(dp7652
g254
(lp7653
I0
aI0
aI0
asg256
(lp7654
F0.75
aF0.75
aI0
asg258
(lp7655
F0.5
aF0.5
aF0.5
asg260
(lp7656
F0.1
aF0.25
aF0.25
asg262
(lp7657
I1
aF0.25
aI0
asg264
(lp7658
I1
aI0
aI0
assg266
S'hcl_prd10'
p7659
sg268
S'.out'
p7660
sg270
S'/home/samio/project/a02_alchemy_diatomic/reproduce/production_prds/hcl_prd10'
p7661
sg272
F-4.32721
sg273
I1
sg274
g275
sbag3
(g4
g5
Ntp7662
Rp7663
(dp7664
g9
g10
sg11
S'hcl_prd11.out'
p7665
sg13
(dp7666
sg15
(dp7667
g17
(lp7668
(lp7669
g20
aS'2.187E-01'
p7670
aS'1.200E-02'
p7671
aS'-4.414581'
p7672
aS'0.000E+00'
p7673
aS'19.95\n'
p7674
aasS'ESR'
p7675
F0.28027377
sS'ELECTROSTATIC ENERGY'
p7676
F-14.99943986
sS'EXCHANGE-CORRELATION ENERGY'
p7677
F-4.93509569
sS'LOCAL PSEUDOPOTENTIAL ENERGY'
p7678
F-23.89823838
sS'ESELF'
p7679
F16.62259502
sS'GRADIENT CORRECTION ENERGY'
p7680
F-0.12378105
sS'KINETIC ENERGY'
p7681
F19.44090171
sS'TOTAL ENERGY'
p7682
F-4.41458062
sS'N-L PSEUDOPOTENTIAL ENERGY'
p7683
F19.9772916
ssg182
Fnan
sg183
g3
(g184
g5
Ntp7684
Rp7685
(dp7686
g188
I00
sg189
g190
(g191
g7685
g184
tp7687
Rp7688
sg194
I00
sg195
S'GEOMETRY FILE / created by CPMD\n'
p7689
sg197
g190
(g198
g7685
g184
tp7690
Rp7691
sg201
(dp7692
sg203
I0
sg204
I00
sg205
(lp7693
sg207
I00
sg208
I0
sg209
(lp7694
g10
ag10
asg211
(dp7695
sg213
I2
sg214
(lp7696
g216
ag3989
asg218
g219
(g220
(I0
tp7697
g222
tp7698
Rp7699
(I1
(I2
I3
tp7700
g229
I00
S'\x00\x00\x00\x00\x00\x00\x00\x00\x00\x00\x00\x00\x00\x00\x00\x00\x00\x00\x00\x00\x00\x00\x00\x00\xca\xc0\xf4\xbe\x99\x99\xf1?\x00\x00\x00\x00\x00\x00\x00\x00\x00\x00\x00\x00\x00\x00\x00\x00'
p7701
tp7702
bsg234
I00
sg235
g219
(g220
(I0
tp7703
g222
tp7704
Rp7705
(I1
(I2
tp7706
g229
I00
S'\x00\x00\x00\x00\x00\x00\xf0?\x00\x00\x00\x00\x00\x001@'
p7707
tp7708
bsg242
I00
sg11
S'H1Cl1'
p7709
sg244
I1
sg245
I00
sg246
g219
(g220
(I0
tp7710
g222
tp7711
Rp7712
(I1
(I1
I0
tp7713
g229
I00
g10
tp7714
bsbsg252
(dp7715
g254
(lp7716
I0
aI0
aI0
asg256
(lp7717
F0.75
aF0.75
aI0
asg258
(lp7718
F0.5
aF0.5
aF0.5
asg260
(lp7719
F0.1
aF0.25
aF0.25
asg262
(lp7720
I1
aF0.25
aI0
asg264
(lp7721
I1
aI0
aI0
assg266
S'hcl_prd11'
p7722
sg268
S'.out'
p7723
sg270
S'/home/samio/project/a02_alchemy_diatomic/reproduce/production_prds/hcl_prd11'
p7724
sg272
F-4.41458062
sg273
I1
sg274
g275
sbag3
(g4
g5
Ntp7725
Rp7726
(dp7727
g9
g10
sg11
S'hcl_prd12.out'
p7728
sg13
(dp7729
sg15
(dp7730
g17
(lp7731
(lp7732
g20
aS'2.200E-01'
p7733
aS'1.198E-02'
p7734
aS'-4.463082'
p7735
aS'0.000E+00'
p7736
aS'19.17\n'
p7737
aasS'ESR'
p7738
F0.18149111
sS'ELECTROSTATIC ENERGY'
p7739
F-15.10453927
sS'EXCHANGE-CORRELATION ENERGY'
p7740
F-4.90424842
sS'LOCAL PSEUDOPOTENTIAL ENERGY'
p7741
F-23.70768953
sS'ESELF'
p7742
F16.62259502
sS'GRADIENT CORRECTION ENERGY'
p7743
F-0.12363523
sS'KINETIC ENERGY'
p7744
F19.33250384
sS'TOTAL ENERGY'
p7745
F-4.46308159
sS'N-L PSEUDOPOTENTIAL ENERGY'
p7746
F19.92089179
ssg182
Fnan
sg183
g3
(g184
g5
Ntp7747
Rp7748
(dp7749
g188
I00
sg189
g190
(g191
g7748
g184
tp7750
Rp7751
sg194
I00
sg195
S'GEOMETRY FILE / created by CPMD\n'
p7752
sg197
g190
(g198
g7748
g184
tp7753
Rp7754
sg201
(dp7755
sg203
I0
sg204
I00
sg205
(lp7756
sg207
I00
sg208
I0
sg209
(lp7757
g10
ag10
asg211
(dp7758
sg213
I2
sg214
(lp7759
g216
ag3989
asg218
g219
(g220
(I0
tp7760
g222
tp7761
Rp7762
(I1
(I2
I3
tp7763
g229
I00
S'\x00\x00\x00\x00\x00\x00\x00\x00\x00\x00\x00\x00\x00\x00\x00\x00\x00\x00\x00\x00\x00\x00\x00\x00\xa0\x81\x8e\x0133\xf3?\x00\x00\x00\x00\x00\x00\x00\x00\x00\x00\x00\x00\x00\x00\x00\x00'
p7764
tp7765
bsg234
I00
sg235
g219
(g220
(I0
tp7766
g222
tp7767
Rp7768
(I1
(I2
tp7769
g229
I00
S'\x00\x00\x00\x00\x00\x00\xf0?\x00\x00\x00\x00\x00\x001@'
p7770
tp7771
bsg242
I00
sg11
S'H1Cl1'
p7772
sg244
I1
sg245
I00
sg246
g219
(g220
(I0
tp7773
g222
tp7774
Rp7775
(I1
(I1
I0
tp7776
g229
I00
g10
tp7777
bsbsg252
(dp7778
g254
(lp7779
I0
aI0
aI0
asg256
(lp7780
F0.75
aF0.75
aI0
asg258
(lp7781
F0.5
aF0.5
aF0.5
asg260
(lp7782
F0.1
aF0.25
aF0.25
asg262
(lp7783
I1
aF0.25
aI0
asg264
(lp7784
I1
aI0
aI0
assg266
S'hcl_prd12'
p7785
sg268
S'.out'
p7786
sg270
S'/home/samio/project/a02_alchemy_diatomic/reproduce/production_prds/hcl_prd12'
p7787
sg272
F-4.46308159
sg273
I1
sg274
g275
sbag3
(g4
g5
Ntp7788
Rp7789
(dp7790
g9
g10
sg11
S'hcl_prd13.out'
p7791
sg13
(dp7792
sg15
(dp7793
g17
(lp7794
(lp7795
g20
aS'2.210E-01'
p7796
aS'1.197E-02'
p7797
aS'-4.487168'
p7798
aS'0.000E+00'
p7799
aS'21.40\n'
p7800
aasS'ESR'
p7801
F0.11579492
sS'ELECTROSTATIC ENERGY'
p7802
F-15.1734653
sS'EXCHANGE-CORRELATION ENERGY'
p7803
F-4.87920697
sS'LOCAL PSEUDOPOTENTIAL ENERGY'
p7804
F-23.57432469
sS'ESELF'
p7805
F16.62259502
sS'GRADIENT CORRECTION ENERGY'
p7806
F-0.1237624
sS'KINETIC ENERGY'
p7807
F19.2569694
sS'TOTAL ENERGY'
p7808
F-4.48716829
sS'N-L PSEUDOPOTENTIAL ENERGY'
p7809
F19.88285928
ssg182
Fnan
sg183
g3
(g184
g5
Ntp7810
Rp7811
(dp7812
g188
I00
sg189
g190
(g191
g7811
g184
tp7813
Rp7814
sg194
I00
sg195
S'GEOMETRY FILE / created by CPMD\n'
p7815
sg197
g190
(g198
g7811
g184
tp7816
Rp7817
sg201
(dp7818
sg203
I0
sg204
I00
sg205
(lp7819
sg207
I00
sg208
I0
sg209
(lp7820
g10
ag10
asg211
(dp7821
sg213
I2
sg214
(lp7822
g216
ag3989
asg218
g219
(g220
(I0
tp7823
g222
tp7824
Rp7825
(I1
(I2
I3
tp7826
g229
I00
S'\x00\x00\x00\x00\x00\x00\x00\x00\x00\x00\x00\x00\x00\x00\x00\x00\x00\x00\x00\x00\x00\x00\x00\x00g\n5\xd2\xcc\xcc\xf4?\x00\x00\x00\x00\x00\x00\x00\x00\x00\x00\x00\x00\x00\x00\x00\x00'
p7827
tp7828
bsg234
I00
sg235
g219
(g220
(I0
tp7829
g222
tp7830
Rp7831
(I1
(I2
tp7832
g229
I00
S'\x00\x00\x00\x00\x00\x00\xf0?\x00\x00\x00\x00\x00\x001@'
p7833
tp7834
bsg242
I00
sg11
S'H1Cl1'
p7835
sg244
I1
sg245
I00
sg246
g219
(g220
(I0
tp7836
g222
tp7837
Rp7838
(I1
(I1
I0
tp7839
g229
I00
g10
tp7840
bsbsg252
(dp7841
g254
(lp7842
I0
aI0
aI0
asg256
(lp7843
F0.75
aF0.75
aI0
asg258
(lp7844
F0.5
aF0.5
aF0.5
asg260
(lp7845
F0.1
aF0.25
aF0.25
asg262
(lp7846
I1
aF0.25
aI0
asg264
(lp7847
I1
aI0
aI0
assg266
S'hcl_prd13'
p7848
sg268
S'.out'
p7849
sg270
S'/home/samio/project/a02_alchemy_diatomic/reproduce/production_prds/hcl_prd13'
p7850
sg272
F-4.48716829
sg273
I1
sg274
g275
sbag3
(g4
g5
Ntp7851
Rp7852
(dp7853
g9
g10
sg11
S'hcl_prd14.out'
p7854
sg13
(dp7855
sg15
(dp7856
g17
(lp7857
(lp7858
g20
aS'2.218E-01'
p7859
aS'1.196E-02'
p7860
aS'-4.495923'
p7861
aS'0.000E+00'
p7862
aS'18.34\n'
p7863
aasS'ESR'
p7864
F0.07269975
sS'ELECTROSTATIC ENERGY'
p7865
F-15.2183179
sS'EXCHANGE-CORRELATION ENERGY'
p7866
F-4.85881854
sS'LOCAL PSEUDOPOTENTIAL ENERGY'
p7867
F-23.4813136
sS'ESELF'
p7868
F16.62259502
sS'GRADIENT CORRECTION ENERGY'
p7869
F-0.1240824
sS'KINETIC ENERGY'
p7870
F19.20555869
sS'TOTAL ENERGY'
p7871
F-4.49592267
sS'N-L PSEUDOPOTENTIAL ENERGY'
p7872
F19.85696867
ssg182
Fnan
sg183
g3
(g184
g5
Ntp7873
Rp7874
(dp7875
g188
I00
sg189
g190
(g191
g7874
g184
tp7876
Rp7877
sg194
I00
sg195
S'GEOMETRY FILE / created by CPMD\n'
p7878
sg197
g190
(g198
g7874
g184
tp7879
Rp7880
sg201
(dp7881
sg203
I0
sg204
I00
sg205
(lp7882
sg207
I00
sg208
I0
sg209
(lp7883
g10
ag10
asg211
(dp7884
sg213
I2
sg214
(lp7885
g216
ag3989
asg218
g219
(g220
(I0
tp7886
g222
tp7887
Rp7888
(I1
(I2
I3
tp7889
g229
I00
S'\x00\x00\x00\x00\x00\x00\x00\x00\x00\x00\x00\x00\x00\x00\x00\x00\x00\x00\x00\x00\x00\x00\x00\x000\x93\xdb\xa2ff\xf6?\x00\x00\x00\x00\x00\x00\x00\x00\x00\x00\x00\x00\x00\x00\x00\x00'
p7890
tp7891
bsg234
I00
sg235
g219
(g220
(I0
tp7892
g222
tp7893
Rp7894
(I1
(I2
tp7895
g229
I00
S'\x00\x00\x00\x00\x00\x00\xf0?\x00\x00\x00\x00\x00\x001@'
p7896
tp7897
bsg242
I00
sg11
S'H1Cl1'
p7898
sg244
I1
sg245
I00
sg246
g219
(g220
(I0
tp7899
g222
tp7900
Rp7901
(I1
(I1
I0
tp7902
g229
I00
g10
tp7903
bsbsg252
(dp7904
g254
(lp7905
I0
aI0
aI0
asg256
(lp7906
F0.75
aF0.75
aI0
asg258
(lp7907
F0.5
aF0.5
aF0.5
asg260
(lp7908
F0.1
aF0.25
aF0.25
asg262
(lp7909
I1
aF0.25
aI0
asg264
(lp7910
I1
aI0
aI0
assg266
S'hcl_prd14'
p7911
sg268
S'.out'
p7912
sg270
S'/home/samio/project/a02_alchemy_diatomic/reproduce/production_prds/hcl_prd14'
p7913
sg272
F-4.49592267
sg273
I1
sg274
g275
sbag3
(g4
g5
Ntp7914
Rp7915
(dp7916
g9
g10
sg11
S'hcl_prd15.out'
p7917
sg13
(dp7918
sg15
(dp7919
g17
(lp7920
(lp7921
g20
aS'2.221E-01'
p7922
aS'1.195E-02'
p7923
aS'-4.495210'
p7924
aS'0.000E+00'
p7925
aS'19.32\n'
p7926
aasS'ESR'
p7927
F0.04486802
sS'ELECTROSTATIC ENERGY'
p7928
F-15.24728915
sS'EXCHANGE-CORRELATION ENERGY'
p7929
F-4.84217422
sS'LOCAL PSEUDOPOTENTIAL ENERGY'
p7930
F-23.41669244
sS'ESELF'
p7931
F16.62259502
sS'GRADIENT CORRECTION ENERGY'
p7932
F-0.12453015
sS'KINETIC ENERGY'
p7933
F19.17168037
sS'TOTAL ENERGY'
p7934
F-4.49520979
sS'N-L PSEUDOPOTENTIAL ENERGY'
p7935
F19.83926564
ssg182
Fnan
sg183
g3
(g184
g5
Ntp7936
Rp7937
(dp7938
g188
I00
sg189
g190
(g191
g7937
g184
tp7939
Rp7940
sg194
I00
sg195
S'GEOMETRY FILE / created by CPMD\n'
p7941
sg197
g190
(g198
g7937
g184
tp7942
Rp7943
sg201
(dp7944
sg203
I0
sg204
I00
sg205
(lp7945
sg207
I00
sg208
I0
sg209
(lp7946
g10
ag10
asg211
(dp7947
sg213
I2
sg214
(lp7948
g216
ag3989
asg218
g219
(g220
(I0
tp7949
g222
tp7950
Rp7951
(I1
(I2
I3
tp7952
g229
I00
S'\x00\x00\x00\x00\x00\x00\x00\x00\x00\x00\x00\x00\x00\x00\x00\x00\x00\x00\x00\x00\x00\x00\x00\x00\x04Tu\xe5\xff\xff\xf7?\x00\x00\x00\x00\x00\x00\x00\x00\x00\x00\x00\x00\x00\x00\x00\x00'
p7953
tp7954
bsg234
I00
sg235
g219
(g220
(I0
tp7955
g222
tp7956
Rp7957
(I1
(I2
tp7958
g229
I00
S'\x00\x00\x00\x00\x00\x00\xf0?\x00\x00\x00\x00\x00\x001@'
p7959
tp7960
bsg242
I00
sg11
S'H1Cl1'
p7961
sg244
I1
sg245
I00
sg246
g219
(g220
(I0
tp7962
g222
tp7963
Rp7964
(I1
(I1
I0
tp7965
g229
I00
g10
tp7966
bsbsg252
(dp7967
g254
(lp7968
I0
aI0
aI0
asg256
(lp7969
F0.75
aF0.75
aI0
asg258
(lp7970
F0.5
aF0.5
aF0.5
asg260
(lp7971
F0.1
aF0.25
aF0.25
asg262
(lp7972
I1
aF0.25
aI0
asg264
(lp7973
I1
aI0
aI0
assg266
S'hcl_prd15'
p7974
sg268
S'.out'
p7975
sg270
S'/home/samio/project/a02_alchemy_diatomic/reproduce/production_prds/hcl_prd15'
p7976
sg272
F-4.49520979
sg273
I1
sg274
g275
sbag3
(g4
g5
Ntp7977
Rp7978
(dp7979
g9
g10
sg11
S'hcl_prd16.out'
p7980
sg13
(dp7981
sg15
(dp7982
g17
(lp7983
(lp7984
g20
aS'2.224E-01'
p7985
aS'1.195E-02'
p7986
aS'-4.488779'
p7987
aS'0.000E+00'
p7988
aS'18.70\n'
p7989
aasS'ESR'
p7990
F0.02719761
sS'ELECTROSTATIC ENERGY'
p7991
F-15.26587067
sS'EXCHANGE-CORRELATION ENERGY'
p7992
F-4.82857702
sS'LOCAL PSEUDOPOTENTIAL ENERGY'
p7993
F-23.37221455
sS'ESELF'
p7994
F16.62259502
sS'GRADIENT CORRECTION ENERGY'
p7995
F-0.12505794
sS'KINETIC ENERGY'
p7996
F19.15064028
sS'TOTAL ENERGY'
p7997
F-4.48877923
sS'N-L PSEUDOPOTENTIAL ENERGY'
p7998
F19.82724273
ssg182
Fnan
sg183
g3
(g184
g5
Ntp7999
Rp8000
(dp8001
g188
I00
sg189
g190
(g191
g8000
g184
tp8002
Rp8003
sg194
I00
sg195
S'GEOMETRY FILE / created by CPMD\n'
p8004
sg197
g190
(g198
g8000
g184
tp8005
Rp8006
sg201
(dp8007
sg203
I0
sg204
I00
sg205
(lp8008
sg207
I00
sg208
I0
sg209
(lp8009
g10
ag10
asg211
(dp8010
sg213
I2
sg214
(lp8011
g216
ag3989
asg218
g219
(g220
(I0
tp8012
g222
tp8013
Rp8014
(I1
(I2
I3
tp8015
g229
I00
S'\x00\x00\x00\x00\x00\x00\x00\x00\x00\x00\x00\x00\x00\x00\x00\x00\x00\x00\x00\x00\x00\x00\x00\x00\xcd\xdc\x1b\xb6\x99\x99\xf9?\x00\x00\x00\x00\x00\x00\x00\x00\x00\x00\x00\x00\x00\x00\x00\x00'
p8016
tp8017
bsg234
I00
sg235
g219
(g220
(I0
tp8018
g222
tp8019
Rp8020
(I1
(I2
tp8021
g229
I00
S'\x00\x00\x00\x00\x00\x00\xf0?\x00\x00\x00\x00\x00\x001@'
p8022
tp8023
bsg242
I00
sg11
S'H1Cl1'
p8024
sg244
I1
sg245
I00
sg246
g219
(g220
(I0
tp8025
g222
tp8026
Rp8027
(I1
(I1
I0
tp8028
g229
I00
g10
tp8029
bsbsg252
(dp8030
g254
(lp8031
I0
aI0
aI0
asg256
(lp8032
F0.75
aF0.75
aI0
asg258
(lp8033
F0.5
aF0.5
aF0.5
asg260
(lp8034
F0.1
aF0.25
aF0.25
asg262
(lp8035
I1
aF0.25
aI0
asg264
(lp8036
I1
aI0
aI0
assg266
S'hcl_prd16'
p8037
sg268
S'.out'
p8038
sg270
S'/home/samio/project/a02_alchemy_diatomic/reproduce/production_prds/hcl_prd16'
p8039
sg272
F-4.48877923
sg273
I1
sg274
g275
sbag3
(g4
g5
Ntp8040
Rp8041
(dp8042
g9
g10
sg11
S'hcl_prd17.out'
p8043
sg13
(dp8044
sg15
(dp8045
g17
(lp8046
(lp8047
g20
aS'2.225E-01'
p8048
aS'1.194E-02'
p8049
aS'-4.478983'
p8050
aS'0.000E+00'
p8051
aS'20.78\n'
p8052
aasS'ESR'
p8053
F0.01618095
sS'ELECTROSTATIC ENERGY'
p8054
F-15.27768357
sS'EXCHANGE-CORRELATION ENERGY'
p8055
F-4.81750539
sS'LOCAL PSEUDOPOTENTIAL ENERGY'
p8056
F-23.34203906
sS'ESELF'
p8057
F16.62259502
sS'GRADIENT CORRECTION ENERGY'
p8058
F-0.12564189
sS'KINETIC ENERGY'
p8059
F19.13900272
sS'TOTAL ENERGY'
p8060
F-4.47898257
sS'N-L PSEUDOPOTENTIAL ENERGY'
p8061
F19.81924273
ssg182
Fnan
sg183
g3
(g184
g5
Ntp8062
Rp8063
(dp8064
g188
I00
sg189
g190
(g191
g8063
g184
tp8065
Rp8066
sg194
I00
sg195
S'GEOMETRY FILE / created by CPMD\n'
p8067
sg197
g190
(g198
g8063
g184
tp8068
Rp8069
sg201
(dp8070
sg203
I0
sg204
I00
sg205
(lp8071
sg207
I00
sg208
I0
sg209
(lp8072
g10
ag10
asg211
(dp8073
sg213
I2
sg214
(lp8074
g216
ag3989
asg218
g219
(g220
(I0
tp8075
g222
tp8076
Rp8077
(I1
(I2
I3
tp8078
g229
I00
S'\x00\x00\x00\x00\x00\x00\x00\x00\x00\x00\x00\x00\x00\x00\x00\x00\x00\x00\x00\x00\x00\x00\x00\x00\xa1\x9d\xb5\xf823\xfb?\x00\x00\x00\x00\x00\x00\x00\x00\x00\x00\x00\x00\x00\x00\x00\x00'
p8079
tp8080
bsg234
I00
sg235
g219
(g220
(I0
tp8081
g222
tp8082
Rp8083
(I1
(I2
tp8084
g229
I00
S'\x00\x00\x00\x00\x00\x00\xf0?\x00\x00\x00\x00\x00\x001@'
p8085
tp8086
bsg242
I00
sg11
S'H1Cl1'
p8087
sg244
I1
sg245
I00
sg246
g219
(g220
(I0
tp8088
g222
tp8089
Rp8090
(I1
(I1
I0
tp8091
g229
I00
g10
tp8092
bsbsg252
(dp8093
g254
(lp8094
I0
aI0
aI0
asg256
(lp8095
F0.75
aF0.75
aI0
asg258
(lp8096
F0.5
aF0.5
aF0.5
asg260
(lp8097
F0.1
aF0.25
aF0.25
asg262
(lp8098
I1
aF0.25
aI0
asg264
(lp8099
I1
aI0
aI0
assg266
S'hcl_prd17'
p8100
sg268
S'.out'
p8101
sg270
S'/home/samio/project/a02_alchemy_diatomic/reproduce/production_prds/hcl_prd17'
p8102
sg272
F-4.47898257
sg273
I1
sg274
g275
sbag3
(g4
g5
Ntp8103
Rp8104
(dp8105
g9
g10
sg11
S'hcl_prd18.out'
p8106
sg13
(dp8107
sg15
(dp8108
g17
(lp8109
(lp8110
g20
aS'2.226E-01'
p8111
aS'1.194E-02'
p8112
aS'-4.467262'
p8113
aS'0.000E+00'
p8114
aS'18.94\n'
p8115
aasS'ESR'
p8116
F0.00944265
sS'ELECTROSTATIC ENERGY'
p8117
F-15.28510312
sS'EXCHANGE-CORRELATION ENERGY'
p8118
F-4.80856026
sS'LOCAL PSEUDOPOTENTIAL ENERGY'
p8119
F-23.32227159
sS'ESELF'
p8120
F16.62259502
sS'GRADIENT CORRECTION ENERGY'
p8121
F-0.1262661
sS'KINETIC ENERGY'
p8122
F19.13448701
sS'TOTAL ENERGY'
p8123
F-4.46726161
sS'N-L PSEUDOPOTENTIAL ENERGY'
p8124
F19.81418635
ssg182
Fnan
sg183
g3
(g184
g5
Ntp8125
Rp8126
(dp8127
g188
I00
sg189
g190
(g191
g8126
g184
tp8128
Rp8129
sg194
I00
sg195
S'GEOMETRY FILE / created by CPMD\n'
p8130
sg197
g190
(g198
g8126
g184
tp8131
Rp8132
sg201
(dp8133
sg203
I0
sg204
I00
sg205
(lp8134
sg207
I00
sg208
I0
sg209
(lp8135
g10
ag10
asg211
(dp8136
sg213
I2
sg214
(lp8137
g216
ag3989
asg218
g219
(g220
(I0
tp8138
g222
tp8139
Rp8140
(I1
(I2
I3
tp8141
g229
I00
S'\x00\x00\x00\x00\x00\x00\x00\x00\x00\x00\x00\x00\x00\x00\x00\x00\x00\x00\x00\x00\x00\x00\x00\x00j&\\\xc9\xcc\xcc\xfc?\x00\x00\x00\x00\x00\x00\x00\x00\x00\x00\x00\x00\x00\x00\x00\x00'
p8142
tp8143
bsg234
I00
sg235
g219
(g220
(I0
tp8144
g222
tp8145
Rp8146
(I1
(I2
tp8147
g229
I00
S'\x00\x00\x00\x00\x00\x00\xf0?\x00\x00\x00\x00\x00\x001@'
p8148
tp8149
bsg242
I00
sg11
S'H1Cl1'
p8150
sg244
I1
sg245
I00
sg246
g219
(g220
(I0
tp8151
g222
tp8152
Rp8153
(I1
(I1
I0
tp8154
g229
I00
g10
tp8155
bsbsg252
(dp8156
g254
(lp8157
I0
aI0
aI0
asg256
(lp8158
F0.75
aF0.75
aI0
asg258
(lp8159
F0.5
aF0.5
aF0.5
asg260
(lp8160
F0.1
aF0.25
aF0.25
asg262
(lp8161
I1
aF0.25
aI0
asg264
(lp8162
I1
aI0
aI0
assg266
S'hcl_prd18'
p8163
sg268
S'.out'
p8164
sg270
S'/home/samio/project/a02_alchemy_diatomic/reproduce/production_prds/hcl_prd18'
p8165
sg272
F-4.46726161
sg273
I1
sg274
g275
sbag3
(g4
g5
Ntp8166
Rp8167
(dp8168
g9
g10
sg11
S'hcl_prd19.out'
p8169
sg13
(dp8170
sg15
(dp8171
g17
(lp8172
(lp8173
g20
aS'2.225E-01'
p8174
aS'1.194E-02'
p8175
aS'-4.454688'
p8176
aS'0.000E+00'
p8177
aS'18.72\n'
p8178
aasS'ESR'
p8179
F0.00540226
sS'ELECTROSTATIC ENERGY'
p8180
F-15.2897037
sS'EXCHANGE-CORRELATION ENERGY'
p8181
F-4.80139079
sS'LOCAL PSEUDOPOTENTIAL ENERGY'
p8182
F-23.30991783
sS'ESELF'
p8183
F16.62259502
sS'GRADIENT CORRECTION ENERGY'
p8184
F-0.12691143
sS'KINETIC ENERGY'
p8185
F19.13507147
sS'TOTAL ENERGY'
p8186
F-4.45468797
sS'N-L PSEUDOPOTENTIAL ENERGY'
p8187
F19.81125287
ssg182
Fnan
sg183
g3
(g184
g5
Ntp8188
Rp8189
(dp8190
g188
I00
sg189
g190
(g191
g8189
g184
tp8191
Rp8192
sg194
I00
sg195
S'GEOMETRY FILE / created by CPMD\n'
p8193
sg197
g190
(g198
g8189
g184
tp8194
Rp8195
sg201
(dp8196
sg203
I0
sg204
I00
sg205
(lp8197
sg207
I00
sg208
I0
sg209
(lp8198
g10
ag10
asg211
(dp8199
sg213
I2
sg214
(lp8200
g216
ag3989
asg218
g219
(g220
(I0
tp8201
g222
tp8202
Rp8203
(I1
(I2
I3
tp8204
g229
I00
S'\x00\x00\x00\x00\x00\x00\x00\x00\x00\x00\x00\x00\x00\x00\x00\x00\x00\x00\x00\x00\x00\x00\x00\x001\xaf\x02\x9aff\xfe?\x00\x00\x00\x00\x00\x00\x00\x00\x00\x00\x00\x00\x00\x00\x00\x00'
p8205
tp8206
bsg234
I00
sg235
g219
(g220
(I0
tp8207
g222
tp8208
Rp8209
(I1
(I2
tp8210
g229
I00
S'\x00\x00\x00\x00\x00\x00\xf0?\x00\x00\x00\x00\x00\x001@'
p8211
tp8212
bsg242
I00
sg11
S'H1Cl1'
p8213
sg244
I1
sg245
I00
sg246
g219
(g220
(I0
tp8214
g222
tp8215
Rp8216
(I1
(I1
I0
tp8217
g229
I00
g10
tp8218
bsbsg252
(dp8219
g254
(lp8220
I0
aI0
aI0
asg256
(lp8221
F0.75
aF0.75
aI0
asg258
(lp8222
F0.5
aF0.5
aF0.5
asg260
(lp8223
F0.1
aF0.25
aF0.25
asg262
(lp8224
I1
aF0.25
aI0
asg264
(lp8225
I1
aI0
aI0
assg266
S'hcl_prd19'
p8226
sg268
S'.out'
p8227
sg270
S'/home/samio/project/a02_alchemy_diatomic/reproduce/production_prds/hcl_prd19'
p8228
sg272
F-4.45468797
sg273
I1
sg274
g275
sbag3
(g4
g5
Ntp8229
Rp8230
(dp8231
g9
g10
sg11
S'hcl_prd20.out'
p8232
sg13
(dp8233
sg15
(dp8234
g17
(lp8235
(lp8236
g20
aS'2.223E-01'
p8237
aS'1.194E-02'
p8238
aS'-4.442021'
p8239
aS'0.000E+00'
p8240
aS'19.14\n'
p8241
aasS'ESR'
p8242
F0.00302869
sS'ELECTROSTATIC ENERGY'
p8243
F-15.29253855
sS'EXCHANGE-CORRELATION ENERGY'
p8244
F-4.79569103
sS'LOCAL PSEUDOPOTENTIAL ENERGY'
p8245
F-23.30284079
sS'ESELF'
p8246
F16.62259502
sS'GRADIENT CORRECTION ENERGY'
p8247
F-0.12755515
sS'KINETIC ENERGY'
p8248
F19.13923734
sS'TOTAL ENERGY'
p8249
F-4.44202131
sS'N-L PSEUDOPOTENTIAL ENERGY'
p8250
F19.80981172
ssg182
Fnan
sg183
g3
(g184
g5
Ntp8251
Rp8252
(dp8253
g188
I00
sg189
g190
(g191
g8252
g184
tp8254
Rp8255
sg194
I00
sg195
S'GEOMETRY FILE / created by CPMD\n'
p8256
sg197
g190
(g198
g8252
g184
tp8257
Rp8258
sg201
(dp8259
sg203
I0
sg204
I00
sg205
(lp8260
sg207
I00
sg208
I0
sg209
(lp8261
g10
ag10
asg211
(dp8262
sg213
I2
sg214
(lp8263
g216
ag3989
asg218
g219
(g220
(I0
tp8264
g222
tp8265
Rp8266
(I1
(I2
I3
tp8267
g229
I00
S'\x00\x00\x00\x00\x00\x00\x00\x00\x00\x00\x00\x00\x00\x00\x00\x00\x00\x00\x00\x00\x00\x00\x00\x00\x07p\x9c\xdc\xff\xff\xff?\x00\x00\x00\x00\x00\x00\x00\x00\x00\x00\x00\x00\x00\x00\x00\x00'
p8268
tp8269
bsg234
I00
sg235
g219
(g220
(I0
tp8270
g222
tp8271
Rp8272
(I1
(I2
tp8273
g229
I00
S'\x00\x00\x00\x00\x00\x00\xf0?\x00\x00\x00\x00\x00\x001@'
p8274
tp8275
bsg242
I00
sg11
S'H1Cl1'
p8276
sg244
I1
sg245
I00
sg246
g219
(g220
(I0
tp8277
g222
tp8278
Rp8279
(I1
(I1
I0
tp8280
g229
I00
g10
tp8281
bsbsg252
(dp8282
g254
(lp8283
I0
aI0
aI0
asg256
(lp8284
F0.75
aF0.75
aI0
asg258
(lp8285
F0.5
aF0.5
aF0.5
asg260
(lp8286
F0.1
aF0.25
aF0.25
asg262
(lp8287
I1
aF0.25
aI0
asg264
(lp8288
I1
aI0
aI0
assg266
S'hcl_prd20'
p8289
sg268
S'.out'
p8290
sg270
S'/home/samio/project/a02_alchemy_diatomic/reproduce/production_prds/hcl_prd20'
p8291
sg272
F-4.44202131
sg273
I1
sg274
g275
sbag3
(g4
g5
Ntp8292
Rp8293
(dp8294
g9
g10
sg11
S'hcl_prd21.out'
p8295
sg13
(dp8296
sg15
(dp8297
g17
(lp8298
(lp8299
g20
aS'2.223E-01'
p8300
aS'1.194E-02'
p8301
aS'-4.429791'
p8302
aS'0.000E+00'
p8303
aS'18.22\n'
p8304
aasS'ESR'
p8305
F0.00166327
sS'ELECTROSTATIC ENERGY'
p8306
F-15.29428916
sS'EXCHANGE-CORRELATION ENERGY'
p8307
F-4.79120189
sS'LOCAL PSEUDOPOTENTIAL ENERGY'
p8308
F-23.29945345
sS'ESELF'
p8309
F16.62259502
sS'GRADIENT CORRECTION ENERGY'
p8310
F-0.12817977
sS'KINETIC ENERGY'
p8311
F19.14572831
sS'TOTAL ENERGY'
p8312
F-4.42979085
sS'N-L PSEUDOPOTENTIAL ENERGY'
p8313
F19.80942535
ssg182
Fnan
sg183
g3
(g184
g5
Ntp8314
Rp8315
(dp8316
g188
I00
sg189
g190
(g191
g8315
g184
tp8317
Rp8318
sg194
I00
sg195
S'GEOMETRY FILE / created by CPMD\n'
p8319
sg197
g190
(g198
g8315
g184
tp8320
Rp8321
sg201
(dp8322
sg203
I0
sg204
I00
sg205
(lp8323
sg207
I00
sg208
I0
sg209
(lp8324
g10
ag10
asg211
(dp8325
sg213
I2
sg214
(lp8326
g216
ag3989
asg218
g219
(g220
(I0
tp8327
g222
tp8328
Rp8329
(I1
(I2
I3
tp8330
g229
I00
S'\x00\x00\x00\x00\x00\x00\x00\x00\x00\x00\x00\x00\x00\x00\x00\x00\x00\x00\x00\x00\x00\x00\x00\x00g|\xa1\xd6\xcc\xcc\x00@\x00\x00\x00\x00\x00\x00\x00\x00\x00\x00\x00\x00\x00\x00\x00\x00'
p8331
tp8332
bsg234
I00
sg235
g219
(g220
(I0
tp8333
g222
tp8334
Rp8335
(I1
(I2
tp8336
g229
I00
S'\x00\x00\x00\x00\x00\x00\xf0?\x00\x00\x00\x00\x00\x001@'
p8337
tp8338
bsg242
I00
sg11
S'H1Cl1'
p8339
sg244
I1
sg245
I00
sg246
g219
(g220
(I0
tp8340
g222
tp8341
Rp8342
(I1
(I1
I0
tp8343
g229
I00
g10
tp8344
bsbsg252
(dp8345
g254
(lp8346
I0
aI0
aI0
asg256
(lp8347
F0.75
aF0.75
aI0
asg258
(lp8348
F0.5
aF0.5
aF0.5
asg260
(lp8349
F0.1
aF0.25
aF0.25
asg262
(lp8350
I1
aF0.25
aI0
asg264
(lp8351
I1
aI0
aI0
assg266
S'hcl_prd21'
p8352
sg268
S'.out'
p8353
sg270
S'/home/samio/project/a02_alchemy_diatomic/reproduce/production_prds/hcl_prd21'
p8354
sg272
F-4.42979085
sg273
I1
sg274
g275
sbag3
(g4
g5
Ntp8355
Rp8356
(dp8357
g9
g10
sg11
S'hcl_prd22.out'
p8358
sg13
(dp8359
sg15
(dp8360
g17
(lp8361
(lp8362
g20
aS'2.223E-01'
p8363
aS'1.194E-02'
p8364
aS'-4.418202'
p8365
aS'0.000E+00'
p8366
aS'21.44\n'
p8367
aasS'ESR'
p8368
F0.00089444
sS'ELECTROSTATIC ENERGY'
p8369
F-15.29535701
sS'EXCHANGE-CORRELATION ENERGY'
p8370
F-4.78773619
sS'LOCAL PSEUDOPOTENTIAL ENERGY'
p8371
F-23.29868612
sS'ESELF'
p8372
F16.62259502
sS'GRADIENT CORRECTION ENERGY'
p8373
F-0.12878223
sS'KINETIC ENERGY'
p8374
F19.15380287
sS'TOTAL ENERGY'
p8375
F-4.41820152
sS'N-L PSEUDOPOTENTIAL ENERGY'
p8376
F19.80977494
ssg182
Fnan
sg183
g3
(g184
g5
Ntp8377
Rp8378
(dp8379
g188
I00
sg189
g190
(g191
g8378
g184
tp8380
Rp8381
sg194
I00
sg195
S'GEOMETRY FILE / created by CPMD\n'
p8382
sg197
g190
(g198
g8378
g184
tp8383
Rp8384
sg201
(dp8385
sg203
I0
sg204
I00
sg205
(lp8386
sg207
I00
sg208
I0
sg209
(lp8387
g10
ag10
asg211
(dp8388
sg213
I2
sg214
(lp8389
g216
ag3989
asg218
g219
(g220
(I0
tp8390
g222
tp8391
Rp8392
(I1
(I2
I3
tp8393
g229
I00
S'\x00\x00\x00\x00\x00\x00\x00\x00\x00\x00\x00\x00\x00\x00\x00\x00\x00\x00\x00\x00\x00\x00\x00\x00\xd1\\\xeew\x99\x99\x01@\x00\x00\x00\x00\x00\x00\x00\x00\x00\x00\x00\x00\x00\x00\x00\x00'
p8394
tp8395
bsg234
I00
sg235
g219
(g220
(I0
tp8396
g222
tp8397
Rp8398
(I1
(I2
tp8399
g229
I00
S'\x00\x00\x00\x00\x00\x00\xf0?\x00\x00\x00\x00\x00\x001@'
p8400
tp8401
bsg242
I00
sg11
S'H1Cl1'
p8402
sg244
I1
sg245
I00
sg246
g219
(g220
(I0
tp8403
g222
tp8404
Rp8405
(I1
(I1
I0
tp8406
g229
I00
g10
tp8407
bsbsg252
(dp8408
g254
(lp8409
I0
aI0
aI0
asg256
(lp8410
F0.75
aF0.75
aI0
asg258
(lp8411
F0.5
aF0.5
aF0.5
asg260
(lp8412
F0.1
aF0.25
aF0.25
asg262
(lp8413
I1
aF0.25
aI0
asg264
(lp8414
I1
aI0
aI0
assg266
S'hcl_prd22'
p8415
sg268
S'.out'
p8416
sg270
S'/home/samio/project/a02_alchemy_diatomic/reproduce/production_prds/hcl_prd22'
p8417
sg272
F-4.41820152
sg273
I1
sg274
g275
sbag3
(g4
g5
Ntp8418
Rp8419
(dp8420
g9
g10
sg11
S'hcl_prd23.out'
p8421
sg13
(dp8422
sg15
(dp8423
g17
(lp8424
(lp8425
g20
aS'2.222E-01'
p8426
aS'1.194E-02'
p8427
aS'-4.407303'
p8428
aS'0.000E+00'
p8429
aS'18.49\n'
p8430
aasS'ESR'
p8431
F0.00047086
sS'ELECTROSTATIC ENERGY'
p8432
F-15.29598143
sS'EXCHANGE-CORRELATION ENERGY'
p8433
F-4.7851448
sS'LOCAL PSEUDOPOTENTIAL ENERGY'
p8434
F-23.29987038
sS'ESELF'
p8435
F16.62259502
sS'GRADIENT CORRECTION ENERGY'
p8436
F-0.12936319
sS'KINETIC ENERGY'
p8437
F19.16302467
sS'TOTAL ENERGY'
p8438
F-4.40730274
sS'N-L PSEUDOPOTENTIAL ENERGY'
p8439
F19.8106692
ssg182
Fnan
sg183
g3
(g184
g5
Ntp8440
Rp8441
(dp8442
g188
I00
sg189
g190
(g191
g8441
g184
tp8443
Rp8444
sg194
I00
sg195
S'GEOMETRY FILE / created by CPMD\n'
p8445
sg197
g190
(g198
g8441
g184
tp8446
Rp8447
sg201
(dp8448
sg203
I0
sg204
I00
sg205
(lp8449
sg207
I00
sg208
I0
sg209
(lp8450
g10
ag10
asg211
(dp8451
sg213
I2
sg214
(lp8452
g216
ag3989
asg218
g219
(g220
(I0
tp8453
g222
tp8454
Rp8455
(I1
(I2
I3
tp8456
g229
I00
S'\x00\x00\x00\x00\x00\x00\x00\x00\x00\x00\x00\x00\x00\x00\x00\x00\x00\x00\x00\x00\x00\x00\x00\x006\xa1A`ff\x02@\x00\x00\x00\x00\x00\x00\x00\x00\x00\x00\x00\x00\x00\x00\x00\x00'
p8457
tp8458
bsg234
I00
sg235
g219
(g220
(I0
tp8459
g222
tp8460
Rp8461
(I1
(I2
tp8462
g229
I00
S'\x00\x00\x00\x00\x00\x00\xf0?\x00\x00\x00\x00\x00\x001@'
p8463
tp8464
bsg242
I00
sg11
S'H1Cl1'
p8465
sg244
I1
sg245
I00
sg246
g219
(g220
(I0
tp8466
g222
tp8467
Rp8468
(I1
(I1
I0
tp8469
g229
I00
g10
tp8470
bsbsg252
(dp8471
g254
(lp8472
I0
aI0
aI0
asg256
(lp8473
F0.75
aF0.75
aI0
asg258
(lp8474
F0.5
aF0.5
aF0.5
asg260
(lp8475
F0.1
aF0.25
aF0.25
asg262
(lp8476
I1
aF0.25
aI0
asg264
(lp8477
I1
aI0
aI0
assg266
S'hcl_prd23'
p8478
sg268
S'.out'
p8479
sg270
S'/home/samio/project/a02_alchemy_diatomic/reproduce/production_prds/hcl_prd23'
p8480
sg272
F-4.40730274
sg273
I1
sg274
g275
sbaaag219
(g220
(I0
tp8481
g222
tp8482
Rp8483
(I1
(I19
tp8484
g229
I00
S'\x07p\x9c\xdc\xff\xff\xdf?\x93I\x9b\x8f33\xe3?=\xcb\xce\x14ff\xe6?\xcd\xdc\x1b\xb6\x99\x99\xe9?\\\xeehW\xcd\xcc\xec?\x07p\x9c\xdc\xff\xff\xef?\xca\xc0\xf4\xbe\x99\x99\xf1?\xa0\x81\x8e\x0133\xf3?g\n5\xd2\xcc\xcc\xf4?0\x93\xdb\xa2ff\xf6?\x04Tu\xe5\xff\xff\xf7?\xcd\xdc\x1b\xb6\x99\x99\xf9?\xa1\x9d\xb5\xf823\xfb?j&\\\xc9\xcc\xcc\xfc?1\xaf\x02\x9aff\xfe?\x07p\x9c\xdc\xff\xff\xff?g|\xa1\xd6\xcc\xcc\x00@\xd1\\\xeew\x99\x99\x01@6\xa1A`ff\x02@'
p8485
tp8486
ba(lp8487
g219
(g220
(I0
tp8488
g222
tp8489
Rp8490
(I1
(I19
tp8491
g229
I00
S'\\\x0f\x91`\xcb\x1e8\xc0u\xbbn|\xb3\x888\xc0%=\xca\x90|\xb88\xc0g\xe6\xd1\xa6M\xcc8\xc0\x8b\xe6\\\xe5d\xd28\xc0*X>&\xad\xd18\xc0=\xf4\x17Y\xb6\xcd8\xc0w\xcb@+Q\xc88\xc0;Hx\x10u\xc28\xc0\xcb`1\x8f\xa1\xbc8\xc0+\xdd\x9f\x83\x15\xb78\xc0\x9c=\x86}\xf1\xb18\xc0\xc7\r\x01\xb8@\xad8\xc0a\xff3R\x08\xa98\xc0\xc0j\xd9\x18C\xa58\xc0\xd0\x19([\xea\xa18\xc0\xc4d\xc3\xfd\xf4\x9e8\xc01\xb8bVZ\x9c8\xc0\xb50\xd1A\x13\x9a8\xc0'
p8492
tp8493
bag219
(g220
(I0
tp8494
g222
tp8495
Rp8496
(I1
(I19
tp8497
g229
I00
S'/\xc5\xf2:$\x8f*\xc0,%.t\xe3\x95,\xc0\xed\x04\xc1\x04\xea\xc0-\xc0\xa1f\xab?\x80l.\xc0b\x8e\xb3#\xb4\xcd.\xc0^\x87\xe6\x11\x0e\x03/\xc0\x17KO`S\x1e/\xc0\xd2\xecp*\x08*/\xc0\xef\x8f\x18\xb9~,/\xc0uB\x85v\x90)/\xc0\xf2\x08,\x88\x9a#/\xc0\xdf\x9b\x11k\x12\x1c/\xc0)Xg\xa5\xde\x13/\xc0\xb2x\xb9\xa1\x8c\x0b/\xc0\xba\xa3\xde\xd7q\x03/\xc0\xdf\x84\xc6<\xc0\xfb.\xc0[@G/\x93\xf4.\xc0@\x1e\x13\x8c\xf7\xed.\xc0C\xd6\x85\xe5\xf0\xe7.\xc0'
p8498
tp8499
bag219
(g220
(I0
tp8500
g222
tp8501
Rp8502
(I1
(I19
tp8503
g229
I00
S"\xb5\x9d\x00\xd4\x1e\xe0\xf9\xbf\xcd\xbf\xa7\x83\x06d\x06\xc0ch\x8e\x0f'\x06\x0c\xc0\xbd\x00\xfb\xe8\xd4e\x0f\xc0\x16JG\xb5_\xb5\x10\xc0W\xb2c#\x10O\x11\xc0U\xd2q\xd2\x87\xa8\x11\xc0\xfe\xb7q\x0f2\xda\x11\xc0\x00\xcb\x84>\xdc\xf2\x11\xc0\xe1\xfa\x03'\xd3\xfb\x11\xc0\x0b\xd6rF\x18\xfb\x11\xc0\x99A\xdf\x8a\x82\xf4\x11\xc0!\x04&hz\xea\x11\xc0W\x81\xd6\xd3y\xde\x11\xc0v#$\xb9\x99\xd1\x11\xc0\x1fW\xfa;\xa1\xc4\x11\xc0\xecz\xb3\x17\x1b\xb8\x11\xc0d&\xee\x04=\xac\x11\xc0\x1a|/\xf8\x13\xa1\x11\xc0"
p8504
tp8505
baa(lp8506
g219
(g220
(I0
tp8507
g222
tp8508
Rp8509
(I1
(I19
tp8510
g229
I00
S"\xe0\xe5z\x990s\xe6?\x80\xc5\x8a;Zl\xd2?\x00f\xa9\x92T\xe8\xb9?\x00\x90\x00,\xfa\\\x98?\x00\x00\x00\x00\x00\x00\x00\x00\x00 \xcc\xd1\xe3\xf7f?\x008\xc9\x131\xba\x92?\x00(68t'\xa4?\x00\xa0<\xc9\xa9\xdf\xaf?\x00\xc0\x85+V\xc3\xb5?\x00`\t\xbdaO\xbb?\x80wT\xeb\xb39\xc0?\x00b\xec\xad\x16\x92\xc2?\x00\x95s\x94I\xae\xc4?\x80\xe5\xbdA\xe6\x90\xc6?\x80]f\x1aE=\xc8?\x80\xe3\xc0\xcc\xf3\xb7\xc9?\x00-\x17}G\x05\xcb?\x00\xeb\xda\xc5\xd1(\xcc?"
p8511
tp8512
bag219
(g220
(I0
tp8513
g222
tp8514
Rp8515
(I1
(I19
tp8516
g229
I00
S"\x00+\x97\xf8iu\x02@\x18VS'\xda\xb4\xf4? \xb0xEK\xb9\xe6?\xc0)\xa5-\xcf\xff\xd7?@c@Y\xa5\xb2\xc7?\x80H\x04\x99S\xb8\xb4?\x00\xb0\x89\x92\xb1V\x9c?\x00\xe8\x18=u\xb4s?\x00\x00\x00\x00\x00\x00\x00\x00\x00\xd0k\x9a\x14rw?\x00\xfa\r\xd9a\xc8\x91?\x00\x10\xf4\x06Nl\xa0?\x00\xc67\xb1\x13\xa0\xa8?\x80\x9e\x8b\xaf\x0by\xb0?\x80\x1a\xf6\x9cp\x86\xb4?\x00\x88\x05)>_\xb8?\x00\xca\xa7\xe8\xc4\xf5\xbb?\x80\xd7\xb8\x82\x96C\xbf?\x00k\xae\xe4t#\xc1?"
p8517
tp8518
bag219
(g220
(I0
tp8519
g222
tp8520
Rp8521
(I1
(I19
tp8522
g229
I00
S"\xe8\xa6\x07\xe4\x96\x07\x07@\xeak\xc0\x94?'\xfb?|5\xe6\xf9\xfc\xc5\xef?\x14\xd43\x94EG\xe2?\xb0\x0c\xcb\x1b7g\xd4?@\x11\tt`\x98\xc5?\x00#\x8a$\xd5\xd2\xb4?\x80q!\xc9\x8b\xd0\xa0?\x00\xc2_\xfe\xd0\xed\x81?\x00\x00\x00\x00\x00\x00\x00\x00\x00\xc0\x9a$\x12\\G?\x00 \xe5\x92pB}?\x00\xc0\xf6\xdd\xbeX\x91?\x00\x8ay-SY\x9d?\x80\xb5\xeb\xef\xb6\x1c\xa5?\x00\xe1\xd1\x84\xf5\x98\xab?@\xfd\x1f\xd4\x03\xee\xb0?@\x1fu\x85\x88\xe5\xb3?\xc0\xb1\x1f\xb5\xcb\xaf\xb6?"
p8523
tp8524
baa.