(lp0
(lp1
(lp2
ccopy_reg
_reconstructor
p3
(cqctoolkit.QM.qmcode.cpmd
out
p4
c__builtin__
object
p5
Ntp6
Rp7
(dp8
S'info'
p9
S''
p10
sS'name'
p11
S'hf_ref05.out'
p12
sS'energies'
p13
(dp14
sS'detail'
p15
(dp16
S'scf'
p17
(lp18
(lp19
S'1'
p20
aS'2.584E-02'
p21
aS'3.737E-03'
p22
aS'-23.224230'
p23
aS'0.000E+00'
p24
aS'21.21\n'
p25
aa(lp26
S'2'
p27
aS'3.600E-02'
p28
aS'1.596E-03'
p29
aS'-23.837874'
p30
aS'-6.136E-01'
p31
aS'21.17\n'
p32
aa(lp33
S'3'
p34
aS'1.062E-02'
p35
aS'9.041E-04'
p36
aS'-24.068050'
p37
aS'-2.302E-01'
p38
aS'20.96\n'
p39
aa(lp40
S'4'
p41
aS'5.178E-03'
p42
aS'5.883E-04'
p43
aS'-24.103880'
p44
aS'-3.583E-02'
p45
aS'21.14\n'
p46
aa(lp47
S'5'
p48
aS'5.621E-03'
p49
aS'3.198E-04'
p50
aS'-24.115820'
p51
aS'-1.194E-02'
p52
aS'21.21\n'
p53
aa(lp54
S'6'
p55
aS'4.205E-03'
p56
aS'1.351E-04'
p57
aS'-24.119430'
p58
aS'-3.610E-03'
p59
aS'21.21\n'
p60
aa(lp61
S'7'
p62
aS'1.757E-03'
p63
aS'7.050E-05'
p64
aS'-24.120087'
p65
aS'-6.568E-04'
p66
aS'20.91\n'
p67
aa(lp68
S'8'
p69
aS'8.853E-04'
p70
aS'4.117E-05'
p71
aS'-24.120224'
p72
aS'-1.369E-04'
p73
aS'21.08\n'
p74
aa(lp75
S'9'
p76
aS'4.227E-04'
p77
aS'1.630E-05'
p78
aS'-24.120279'
p79
aS'-5.530E-05'
p80
aS'21.35\n'
p81
aa(lp82
S'10'
p83
aS'1.839E-04'
p84
aS'5.894E-06'
p85
aS'-24.120289'
p86
aS'-9.917E-06'
p87
aS'21.14\n'
p88
aa(lp89
S'11'
p90
aS'7.053E-05'
p91
aS'2.749E-06'
p92
aS'-24.120290'
p93
aS'-1.293E-06'
p94
aS'21.15\n'
p95
aa(lp96
S'12'
p97
aS'2.853E-05'
p98
aS'1.395E-06'
p99
aS'-24.120291'
p100
aS'-2.582E-07'
p101
aS'21.27\n'
p102
aa(lp103
S'13'
p104
aS'1.514E-05'
p105
aS'8.014E-07'
p106
aS'-24.120291'
p107
aS'-6.479E-08'
p108
aS'21.27\n'
p109
aa(lp110
S'14'
p111
aS'7.052E-06'
p112
aS'3.801E-07'
p113
aS'-24.120291'
p114
aS'-2.728E-08'
p115
aS'21.30\n'
p116
aa(lp117
S'15'
p118
aS'4.299E-06'
p119
aS'2.213E-07'
p120
aS'-24.120291'
p121
aS'-6.554E-09'
p122
aS'21.15\n'
p123
aa(lp124
S'16'
p125
aS'2.895E-06'
p126
aS'1.126E-07'
p127
aS'-24.120291'
p128
aS'-1.863E-09'
p129
aS'21.31\n'
p130
aa(lp131
S'17'
p132
aS'1.051E-06'
p133
aS'4.554E-08'
p134
aS'-24.120291'
p135
aS'-6.232E-10'
p136
aS'21.41\n'
p137
aa(lp138
S'18'
p139
aS'1.383E-06'
p140
aS'2.843E-08'
p141
aS'-24.120291'
p142
aS'-6.239E-11'
p143
aS'21.04\n'
p144
aa(lp145
S'19'
p146
aS'5.701E-07'
p147
aS'1.658E-08'
p148
aS'-24.120291'
p149
aS'-3.512E-11'
p150
aS'19.81\n'
p151
aa(lp152
S'20'
p153
aS'2.502E-07'
p154
aS'9.314E-09'
p155
aS'-24.120291'
p156
aS'-3.412E-11'
p157
aS'19.05\n'
p158
aa(lp159
S'21'
p160
aS'2.002E-07'
p161
aS'4.813E-09'
p162
aS'-24.120291'
p163
aS'4.011E-12'
p164
aS'18.26\n'
p165
aa(lp166
S'22'
p167
aS'8.483E-08'
p168
aS'2.699E-09'
p169
aS'-24.120291'
p170
aS'4.608E-12'
p171
aS'17.18\n'
p172
aasS'ESR'
p173
F3.19347022
sS'ELECTROSTATIC ENERGY'
p174
F-11.14749714
sS'EXCHANGE-CORRELATION ENERGY'
p175
F-5.6557124
sS'LOCAL PSEUDOPOTENTIAL ENERGY'
p176
F-30.64241843
sS'ESELF'
p177
F16.62259502
sS'GRADIENT CORRECTION ENERGY'
p178
F-0.14716203
sS'KINETIC ENERGY'
p179
F21.25602249
sS'TOTAL ENERGY'
p180
F-23.22423039
sS'N-L PSEUDOPOTENTIAL ENERGY'
p181
F2.9653751
ssS'nuclear_repulsion'
p182
Fnan
sS'molecule'
p183
g3
(cqctoolkit.molecule
Molecule
p184
g5
Ntp185
Rp186
(dp187
S'celldm'
p188
I00
sS've'
p189
cqctoolkit
_unpickle_method
p190
(S'getValenceElectrons'
p191
g186
g184
tp192
Rp193
sS'symmetry'
p194
I00
sS'prop_list'
p195
S'GEOMETRY FILE / created by CPMD\n'
p196
sS'ne'
p197
g190
(S'getTotalElectrons'
p198
g186
g184
tp199
Rp200
sS'bond_types'
p201
(dp202
sS'index'
p203
I0
sS'scale'
p204
I00
sS'segments'
p205
(lp206
sS'isolated'
p207
I00
sS'charge'
p208
I0
sS'string'
p209
(lp210
g10
ag10
asS'bonds'
p211
(dp212
sS'N'
p213
I2
sS'type_list'
p214
(lp215
S'H'
p216
aS'F'
p217
asS'R'
p218
cnumpy.core.multiarray
_reconstruct
p219
(cnumpy
ndarray
p220
(I0
tp221
S'b'
p222
tp223
Rp224
(I1
(I2
I3
tp225
cnumpy
dtype
p226
(S'f8'
p227
I0
I1
tp228
Rp229
(I3
S'<'
p230
NNNI-1
I-1
I0
tp231
bI00
S'\x01\xf8d\r\x00\x00\x14@\x01\xf8d\r\x00\x00\x14@\x01\xf8d\r\x00\x00\x14@\x01\xbf.\x0b\x00\x00\x16@\x01\xf8d\r\x00\x00\x14@\x01\xf8d\r\x00\x00\x14@'
p232
tp233
bsS'grid'
p234
I00
sS'Z'
p235
g219
(g220
(I0
tp236
g222
tp237
Rp238
(I1
(I2
tp239
g229
I00
S'\x00\x00\x00\x00\x00\x00\xf0?\x00\x00\x00\x00\x00\x00"@'
p240
tp241
bsS'box'
p242
I00
sg11
S'H1F1'
p243
sS'multiplicity'
p244
I1
sS'periodic'
p245
I00
sS'R_scale'
p246
g219
(g220
(I0
tp247
g222
tp248
Rp249
(I1
(I1
I0
tp250
g229
I00
g10
tp251
bsbsS'special_kpoints'
p252
(dp253
S'G'
p254
(lp255
I0
aI0
aI0
asS'K'
p256
(lp257
F0.75
aF0.75
aI0
asS'L'
p258
(lp259
F0.5
aF0.5
aF0.5
asS'U'
p260
(lp261
F0.1
aF0.25
aF0.25
asS'W'
p262
(lp263
I1
aF0.25
aI0
asS'X'
p264
(lp265
I1
aI0
aI0
assS'stem'
p266
S'hf_ref05'
p267
sS'ext'
p268
S'.out'
p269
sS'path'
p270
S'/home/samio/project/a02_alchemy_diatomic/reproduce/production_shifted_refs/hf_ref05'
p271
sS'Et'
p272
F-24.12029079
sS'scf_step'
p273
I22
sS'unit'
p274
S'Eh'
p275
sbag3
(g4
g5
Ntp276
Rp277
(dp278
g9
g10
sg11
S'hf_ref06.out'
p279
sg13
(dp280
sg15
(dp281
g17
(lp282
(lp283
g20
aS'2.663E-02'
p284
aS'3.593E-03'
p285
aS'-23.692486'
p286
aS'0.000E+00'
p287
aS'18.23\n'
p288
aa(lp289
g27
aS'3.599E-02'
p290
aS'1.560E-03'
p291
aS'-24.256639'
p292
aS'-5.642E-01'
p293
aS'18.42\n'
p294
aa(lp295
g34
aS'9.573E-03'
p296
aS'8.802E-04'
p297
aS'-24.484076'
p298
aS'-2.274E-01'
p299
aS'18.52\n'
p300
aa(lp301
g41
aS'4.820E-03'
p302
aS'5.666E-04'
p303
aS'-24.518755'
p304
aS'-3.468E-02'
p305
aS'18.62\n'
p306
aa(lp307
g48
aS'4.608E-03'
p308
aS'3.045E-04'
p309
aS'-24.529884'
p310
aS'-1.113E-02'
p311
aS'18.65\n'
p312
aa(lp313
g55
aS'2.680E-03'
p314
aS'1.330E-04'
p315
aS'-24.533173'
p316
aS'-3.289E-03'
p317
aS'18.96\n'
p318
aa(lp319
g62
aS'1.138E-03'
p320
aS'7.044E-05'
p321
aS'-24.533783'
p322
aS'-6.104E-04'
p323
aS'19.30\n'
p324
aa(lp325
g69
aS'5.494E-04'
p326
aS'3.805E-05'
p327
aS'-24.533928'
p328
aS'-1.450E-04'
p329
aS'18.82\n'
p330
aa(lp331
g76
aS'2.347E-04'
p332
aS'1.389E-05'
p333
aS'-24.533979'
p334
aS'-5.104E-05'
p335
aS'19.38\n'
p336
aa(lp337
S'10'
p338
aS'1.028E-04'
p339
aS'5.302E-06'
p340
aS'-24.533987'
p341
aS'-7.617E-06'
p342
aS'19.42\n'
p343
aa(lp344
S'11'
p345
aS'4.761E-05'
p346
aS'2.730E-06'
p347
aS'-24.533988'
p348
aS'-1.226E-06'
p349
aS'18.76\n'
p350
aa(lp351
S'12'
p352
aS'2.381E-05'
p353
aS'1.386E-06'
p354
aS'-24.533989'
p355
aS'-3.824E-07'
p356
aS'19.31\n'
p357
aa(lp358
S'13'
p359
aS'1.248E-05'
p360
aS'7.957E-07'
p361
aS'-24.533989'
p362
aS'-1.167E-07'
p363
aS'19.54\n'
p364
aa(lp365
S'14'
p366
aS'6.516E-06'
p367
aS'3.871E-07'
p368
aS'-24.533989'
p369
aS'-4.768E-08'
p370
aS'18.93\n'
p371
aa(lp372
S'15'
p373
aS'3.844E-06'
p374
aS'2.285E-07'
p375
aS'-24.533989'
p376
aS'-1.076E-08'
p377
aS'19.18\n'
p378
aa(lp379
S'16'
p380
aS'3.613E-06'
p381
aS'1.028E-07'
p382
aS'-24.533989'
p383
aS'-2.111E-09'
p384
aS'19.39\n'
p385
aa(lp386
S'17'
p387
aS'1.730E-06'
p388
aS'6.078E-08'
p389
aS'-24.533989'
p390
aS'-4.895E-10'
p391
aS'19.08\n'
p392
aa(lp393
S'18'
p394
aS'1.299E-06'
p395
aS'3.563E-08'
p396
aS'-24.533989'
p397
aS'-1.199E-10'
p398
aS'19.19\n'
p399
aa(lp400
S'19'
p401
aS'3.681E-07'
p402
aS'2.041E-08'
p403
aS'-24.533989'
p404
aS'-6.943E-11'
p405
aS'19.72\n'
p406
aa(lp407
S'20'
p408
aS'2.247E-07'
p409
aS'1.139E-08'
p410
aS'-24.533989'
p411
aS'-1.400E-11'
p412
aS'19.38\n'
p413
aa(lp414
S'21'
p415
aS'1.299E-07'
p416
aS'5.043E-09'
p417
aS'-24.533989'
p418
aS'-6.398E-12'
p419
aS'18.74\n'
p420
aa(lp421
S'22'
p422
aS'6.463E-08'
p423
aS'3.059E-09'
p424
aS'-24.533989'
p425
aS'2.018E-12'
p426
aS'18.20\n'
p427
aasS'ESR'
p428
F2.1282639
sS'ELECTROSTATIC ENERGY'
p429
F-12.33170987
sS'EXCHANGE-CORRELATION ENERGY'
p430
F-5.56316631
sS'LOCAL PSEUDOPOTENTIAL ENERGY'
p431
F-29.41368684
sS'ESELF'
p432
F16.62259502
sS'GRADIENT CORRECTION ENERGY'
p433
F-0.14411839
sS'KINETIC ENERGY'
p434
F20.70089236
sS'TOTAL ENERGY'
p435
F-23.69248604
sS'N-L PSEUDOPOTENTIAL ENERGY'
p436
F2.91518462
ssg182
Fnan
sg183
g3
(g184
g5
Ntp437
Rp438
(dp439
g188
I00
sg189
g190
(g191
g438
g184
tp440
Rp441
sg194
I00
sg195
S'GEOMETRY FILE / created by CPMD\n'
p442
sg197
g190
(g198
g438
g184
tp443
Rp444
sg201
(dp445
sg203
I0
sg204
I00
sg205
(lp446
sg207
I00
sg208
I0
sg209
(lp447
g10
ag10
asg211
(dp448
sg213
I2
sg214
(lp449
g216
ag217
asg218
g219
(g220
(I0
tp450
g222
tp451
Rp452
(I1
(I2
I3
tp453
g229
I00
S'\x01\xf8d\r\x00\x00\x14@\x01\xf8d\r\x00\x00\x14@\x01\xf8d\r\x00\x00\x14@6/\xd5[ff\x16@\x01\xf8d\r\x00\x00\x14@\x01\xf8d\r\x00\x00\x14@'
p454
tp455
bsg234
I00
sg235
g219
(g220
(I0
tp456
g222
tp457
Rp458
(I1
(I2
tp459
g229
I00
S'\x00\x00\x00\x00\x00\x00\xf0?\x00\x00\x00\x00\x00\x00"@'
p460
tp461
bsg242
I00
sg11
S'H1F1'
p462
sg244
I1
sg245
I00
sg246
g219
(g220
(I0
tp463
g222
tp464
Rp465
(I1
(I1
I0
tp466
g229
I00
g10
tp467
bsbsg252
(dp468
g254
(lp469
I0
aI0
aI0
asg256
(lp470
F0.75
aF0.75
aI0
asg258
(lp471
F0.5
aF0.5
aF0.5
asg260
(lp472
F0.1
aF0.25
aF0.25
asg262
(lp473
I1
aF0.25
aI0
asg264
(lp474
I1
aI0
aI0
assg266
S'hf_ref06'
p475
sg268
S'.out'
p476
sg270
S'/home/samio/project/a02_alchemy_diatomic/reproduce/production_shifted_refs/hf_ref06'
p477
sg272
F-24.53398874
sg273
I22
sg274
g275
sbag3
(g4
g5
Ntp478
Rp479
(dp480
g9
g10
sg11
S'hf_ref07.out'
p481
sg13
(dp482
sg15
(dp483
g17
(lp484
(lp485
g20
aS'2.835E-02'
p486
aS'3.488E-03'
p487
aS'-23.927911'
p488
aS'0.000E+00'
p489
aS'20.78\n'
p490
aa(lp491
g27
aS'3.410E-02'
p492
aS'1.537E-03'
p493
aS'-24.446899'
p494
aS'-5.190E-01'
p495
aS'21.06\n'
p496
aa(lp497
g34
aS'9.574E-03'
p498
aS'8.739E-04'
p499
aS'-24.671039'
p500
aS'-2.241E-01'
p501
aS'21.17\n'
p502
aa(lp503
g41
aS'4.283E-03'
p504
aS'5.583E-04'
p505
aS'-24.705697'
p506
aS'-3.466E-02'
p507
aS'21.38\n'
p508
aa(lp509
g48
aS'4.096E-03'
p510
aS'2.913E-04'
p511
aS'-24.716761'
p512
aS'-1.106E-02'
p513
aS'21.74\n'
p514
aa(lp515
g55
aS'2.088E-03'
p516
aS'1.301E-04'
p517
aS'-24.719859'
p518
aS'-3.098E-03'
p519
aS'21.72\n'
p520
aa(lp521
g62
aS'8.336E-04'
p522
aS'6.934E-05'
p523
aS'-24.720440'
p524
aS'-5.803E-04'
p525
aS'21.76\n'
p526
aa(lp527
g69
aS'3.938E-04'
p528
aS'3.569E-05'
p529
aS'-24.720590'
p530
aS'-1.507E-04'
p531
aS'22.32\n'
p532
aa(lp533
g76
aS'1.526E-04'
p534
aS'1.272E-05'
p535
aS'-24.720640'
p536
aS'-4.959E-05'
p537
aS'22.07\n'
p538
aa(lp539
S'10'
p540
aS'7.579E-05'
p541
aS'5.582E-06'
p542
aS'-24.720648'
p543
aS'-7.737E-06'
p544
aS'22.07\n'
p545
aa(lp546
S'11'
p547
aS'3.154E-05'
p548
aS'3.418E-06'
p549
aS'-24.720650'
p550
aS'-1.930E-06'
p551
aS'22.04\n'
p552
aa(lp553
S'12'
p554
aS'2.823E-05'
p555
aS'1.545E-06'
p556
aS'-24.720650'
p557
aS'-8.717E-07'
p558
aS'22.33\n'
p559
aa(lp560
S'13'
p561
aS'1.669E-05'
p562
aS'8.218E-07'
p563
aS'-24.720651'
p564
aS'-1.973E-07'
p565
aS'22.22\n'
p566
aa(lp567
S'14'
p568
aS'6.331E-06'
p569
aS'4.107E-07'
p570
aS'-24.720651'
p571
aS'-6.192E-08'
p572
aS'21.52\n'
p573
aa(lp574
S'15'
p575
aS'3.241E-06'
p576
aS'2.180E-07'
p577
aS'-24.720651'
p578
aS'-8.696E-09'
p579
aS'21.84\n'
p580
aa(lp581
S'16'
p582
aS'2.948E-06'
p583
aS'8.687E-08'
p584
aS'-24.720651'
p585
aS'-1.618E-09'
p586
aS'22.30\n'
p587
aa(lp588
S'17'
p589
aS'1.600E-06'
p590
aS'5.301E-08'
p591
aS'-24.720651'
p592
aS'-2.871E-10'
p593
aS'22.33\n'
p594
aa(lp595
S'18'
p596
aS'5.963E-07'
p597
aS'2.814E-08'
p598
aS'-24.720651'
p599
aS'-1.067E-10'
p600
aS'21.82\n'
p601
aa(lp602
S'19'
p603
aS'1.908E-07'
p604
aS'1.618E-08'
p605
aS'-24.720651'
p606
aS'-3.000E-11'
p607
aS'19.91\n'
p608
aa(lp609
S'20'
p610
aS'1.583E-07'
p611
aS'7.236E-09'
p612
aS'-24.720651'
p613
aS'-5.979E-12'
p614
aS'19.44\n'
p615
aa(lp616
S'21'
p617
aS'5.793E-08'
p618
aS'4.080E-09'
p619
aS'-24.720651'
p620
aS'-6.040E-12'
p621
aS'18.60\n'
p622
aasS'ESR'
p623
F1.43043893
sS'ELECTROSTATIC ENERGY'
p624
F-13.1492902
sS'EXCHANGE-CORRELATION ENERGY'
p625
F-5.47033567
sS'LOCAL PSEUDOPOTENTIAL ENERGY'
p626
F-28.38286791
sS'ESELF'
p627
F16.62259502
sS'GRADIENT CORRECTION ENERGY'
p628
F-0.1414301
sS'KINETIC ENERGY'
p629
F20.17396626
sS'TOTAL ENERGY'
p630
F-23.92791086
sS'N-L PSEUDOPOTENTIAL ENERGY'
p631
F2.90061666
ssg182
Fnan
sg183
g3
(g184
g5
Ntp632
Rp633
(dp634
g188
I00
sg189
g190
(g191
g633
g184
tp635
Rp636
sg194
I00
sg195
S'GEOMETRY FILE / created by CPMD\n'
p637
sg197
g190
(g198
g633
g184
tp638
Rp639
sg201
(dp640
sg203
I0
sg204
I00
sg205
(lp641
sg207
I00
sg208
I0
sg209
(lp642
g10
ag10
asg211
(dp643
sg213
I2
sg214
(lp644
g216
ag217
asg218
g219
(g220
(I0
tp645
g222
tp646
Rp647
(I1
(I2
I3
tp648
g229
I00
S'\x01\xf8d\r\x00\x00\x14@\x01\xf8d\r\x00\x00\x14@\x01\xf8d\r\x00\x00\x14@i\xd1\xfe\xcf\xcc\xcc\x16@\x01\xf8d\r\x00\x00\x14@\x01\xf8d\r\x00\x00\x14@'
p649
tp650
bsg234
I00
sg235
g219
(g220
(I0
tp651
g222
tp652
Rp653
(I1
(I2
tp654
g229
I00
S'\x00\x00\x00\x00\x00\x00\xf0?\x00\x00\x00\x00\x00\x00"@'
p655
tp656
bsg242
I00
sg11
S'H1F1'
p657
sg244
I1
sg245
I00
sg246
g219
(g220
(I0
tp658
g222
tp659
Rp660
(I1
(I1
I0
tp661
g229
I00
g10
tp662
bsbsg252
(dp663
g254
(lp664
I0
aI0
aI0
asg256
(lp665
F0.75
aF0.75
aI0
asg258
(lp666
F0.5
aF0.5
aF0.5
asg260
(lp667
F0.1
aF0.25
aF0.25
asg262
(lp668
I1
aF0.25
aI0
asg264
(lp669
I1
aI0
aI0
assg266
S'hf_ref07'
p670
sg268
S'.out'
p671
sg270
S'/home/samio/project/a02_alchemy_diatomic/reproduce/production_shifted_refs/hf_ref07'
p672
sg272
F-24.72065072
sg273
I21
sg274
g275
sbag3
(g4
g5
Ntp673
Rp674
(dp675
g9
g10
sg11
S'hf_ref08.out'
p676
sg13
(dp677
sg15
(dp678
g17
(lp679
(lp680
g20
aS'2.828E-02'
p681
aS'3.416E-03'
p682
aS'-24.047883'
p683
aS'0.000E+00'
p684
aS'23.34\n'
p685
aa(lp686
g27
aS'3.158E-02'
p687
aS'1.520E-03'
p688
aS'-24.527332'
p689
aS'-4.794E-01'
p690
aS'22.71\n'
p691
aa(lp692
g34
aS'9.641E-03'
p693
aS'8.739E-04'
p694
aS'-24.747875'
p695
aS'-2.205E-01'
p696
aS'22.41\n'
p697
aa(lp698
g41
aS'4.603E-03'
p699
aS'5.521E-04'
p700
aS'-24.783039'
p701
aS'-3.516E-02'
p702
aS'22.85\n'
p703
aa(lp704
g48
aS'4.778E-03'
p705
aS'2.757E-04'
p706
aS'-24.794349'
p707
aS'-1.131E-02'
p708
aS'23.87\n'
p709
aa(lp710
g55
aS'2.367E-03'
p711
aS'1.226E-04'
p712
aS'-24.797296'
p713
aS'-2.947E-03'
p714
aS'22.83\n'
p715
aa(lp716
g62
aS'9.183E-04'
p717
aS'6.572E-05'
p718
aS'-24.797840'
p719
aS'-5.441E-04'
p720
aS'23.07\n'
p721
aa(lp722
g69
aS'4.578E-04'
p723
aS'3.261E-05'
p724
aS'-24.797994'
p725
aS'-1.537E-04'
p726
aS'24.16\n'
p727
aa(lp728
g76
aS'1.717E-04'
p729
aS'1.191E-05'
p730
aS'-24.798045'
p731
aS'-5.102E-05'
p732
aS'24.05\n'
p733
aa(lp734
S'10'
p735
aS'9.383E-05'
p736
aS'6.983E-06'
p737
aS'-24.798054'
p738
aS'-9.510E-06'
p739
aS'23.87\n'
p740
aa(lp741
S'11'
p742
aS'4.393E-05'
p743
aS'4.698E-06'
p744
aS'-24.798058'
p745
aS'-3.672E-06'
p746
aS'24.52\n'
p747
aa(lp748
S'12'
p749
aS'3.625E-05'
p750
aS'1.828E-06'
p751
aS'-24.798060'
p752
aS'-1.530E-06'
p753
aS'23.83\n'
p754
aa(lp755
S'13'
p756
aS'2.094E-05'
p757
aS'7.777E-07'
p758
aS'-24.798060'
p759
aS'-1.812E-07'
p760
aS'24.38\n'
p761
aa(lp762
S'14'
p763
aS'6.679E-06'
p764
aS'4.066E-07'
p765
aS'-24.798060'
p766
aS'-4.427E-08'
p767
aS'23.15\n'
p768
aa(lp769
S'15'
p770
aS'3.013E-06'
p771
aS'1.966E-07'
p772
aS'-24.798060'
p773
aS'-5.533E-09'
p774
aS'24.04\n'
p775
aa(lp776
S'16'
p777
aS'1.692E-06'
p778
aS'7.086E-08'
p779
aS'-24.798060'
p780
aS'-1.227E-09'
p781
aS'24.60\n'
p782
aa(lp783
S'17'
p784
aS'1.149E-06'
p785
aS'3.736E-08'
p786
aS'-24.798060'
p787
aS'-1.609E-10'
p788
aS'22.57\n'
p789
aa(lp790
S'18'
p791
aS'3.684E-07'
p792
aS'1.873E-08'
p793
aS'-24.798060'
p794
aS'-5.961E-11'
p795
aS'20.93\n'
p796
aa(lp797
S'19'
p798
aS'1.590E-07'
p799
aS'1.111E-08'
p800
aS'-24.798060'
p801
aS'-2.127E-11'
p802
aS'18.75\n'
p803
aa(lp804
S'20'
p805
aS'9.904E-08'
p806
aS'4.718E-09'
p807
aS'-24.798060'
p808
aS'3.666E-12'
p809
aS'16.45\n'
p810
aasS'ESR'
p811
F0.96187658
sS'ELECTROSTATIC ENERGY'
p812
F-13.72619991
sS'EXCHANGE-CORRELATION ENERGY'
p813
F-5.38472393
sS'LOCAL PSEUDOPOTENTIAL ENERGY'
p814
F-27.5614805
sS'ESELF'
p815
F16.62259502
sS'GRADIENT CORRECTION ENERGY'
p816
F-0.13945813
sS'KINETIC ENERGY'
p817
F19.71452656
sS'TOTAL ENERGY'
p818
F-24.04788252
sS'N-L PSEUDOPOTENTIAL ENERGY'
p819
F2.90999526
ssg182
Fnan
sg183
g3
(g184
g5
Ntp820
Rp821
(dp822
g188
I00
sg189
g190
(g191
g821
g184
tp823
Rp824
sg194
I00
sg195
S'GEOMETRY FILE / created by CPMD\n'
p825
sg197
g190
(g198
g821
g184
tp826
Rp827
sg201
(dp828
sg203
I0
sg204
I00
sg205
(lp829
sg207
I00
sg208
I0
sg209
(lp830
g10
ag10
asg211
(dp831
sg213
I2
sg214
(lp832
g216
ag217
asg218
g219
(g220
(I0
tp833
g222
tp834
Rp835
(I1
(I2
I3
tp836
g229
I00
S'\x01\xf8d\r\x00\x00\x14@\x01\xf8d\r\x00\x00\x14@\x01\xf8d\r\x00\x00\x14@\x9as(D33\x17@\x01\xf8d\r\x00\x00\x14@\x01\xf8d\r\x00\x00\x14@'
p837
tp838
bsg234
I00
sg235
g219
(g220
(I0
tp839
g222
tp840
Rp841
(I1
(I2
tp842
g229
I00
S'\x00\x00\x00\x00\x00\x00\xf0?\x00\x00\x00\x00\x00\x00"@'
p843
tp844
bsg242
I00
sg11
S'H1F1'
p845
sg244
I1
sg245
I00
sg246
g219
(g220
(I0
tp846
g222
tp847
Rp848
(I1
(I1
I0
tp849
g229
I00
g10
tp850
bsbsg252
(dp851
g254
(lp852
I0
aI0
aI0
asg256
(lp853
F0.75
aF0.75
aI0
asg258
(lp854
F0.5
aF0.5
aF0.5
asg260
(lp855
F0.1
aF0.25
aF0.25
asg262
(lp856
I1
aF0.25
aI0
asg264
(lp857
I1
aI0
aI0
assg266
S'hf_ref08'
p858
sg268
S'.out'
p859
sg270
S'/home/samio/project/a02_alchemy_diatomic/reproduce/production_shifted_refs/hf_ref08'
p860
sg272
F-24.79805987
sg273
I20
sg274
g275
sbag3
(g4
g5
Ntp861
Rp862
(dp863
g9
g10
sg11
S'hf_ref09.out'
p864
sg13
(dp865
sg15
(dp866
g17
(lp867
(lp868
g20
aS'2.791E-02'
p869
aS'3.365E-03'
p870
aS'-24.107574'
p871
aS'0.000E+00'
p872
aS'21.08\n'
p873
aa(lp874
g27
aS'2.910E-02'
p875
aS'1.503E-03'
p876
aS'-24.555577'
p877
aS'-4.480E-01'
p878
aS'21.08\n'
p879
aa(lp880
g34
aS'1.169E-02'
p881
aS'8.757E-04'
p882
aS'-24.770960'
p883
aS'-2.154E-01'
p884
aS'21.03\n'
p885
aa(lp886
g41
aS'5.676E-03'
p887
aS'5.455E-04'
p888
aS'-24.806541'
p889
aS'-3.558E-02'
p890
aS'21.09\n'
p891
aa(lp892
g48
aS'6.083E-03'
p893
aS'2.608E-04'
p894
aS'-24.818171'
p895
aS'-1.163E-02'
p896
aS'21.20\n'
p897
aa(lp898
g55
aS'2.779E-03'
p899
aS'1.137E-04'
p900
aS'-24.821076'
p901
aS'-2.905E-03'
p902
aS'21.00\n'
p903
aa(lp904
g62
aS'1.094E-03'
p905
aS'6.108E-05'
p906
aS'-24.821607'
p907
aS'-5.312E-04'
p908
aS'20.95\n'
p909
aa(lp910
g69
aS'6.071E-04'
p911
aS'2.959E-05'
p912
aS'-24.821772'
p913
aS'-1.650E-04'
p914
aS'21.08\n'
p915
aa(lp916
g76
aS'2.756E-04'
p917
aS'1.282E-05'
p918
aS'-24.821831'
p919
aS'-5.841E-05'
p920
aS'21.19\n'
p921
aa(lp922
S'10'
p923
aS'1.619E-04'
p924
aS'9.714E-06'
p925
aS'-24.821844'
p926
aS'-1.339E-05'
p927
aS'21.28\n'
p928
aa(lp929
S'11'
p930
aS'8.570E-05'
p931
aS'5.949E-06'
p932
aS'-24.821850'
p933
aS'-6.103E-06'
p934
aS'21.05\n'
p935
aa(lp936
S'12'
p937
aS'4.833E-05'
p938
aS'2.053E-06'
p939
aS'-24.821852'
p940
aS'-1.820E-06'
p941
aS'21.15\n'
p942
aa(lp943
S'13'
p944
aS'2.365E-05'
p945
aS'7.199E-07'
p946
aS'-24.821852'
p947
aS'-1.578E-07'
p948
aS'21.06\n'
p949
aa(lp950
S'14'
p951
aS'6.994E-06'
p952
aS'3.939E-07'
p953
aS'-24.821852'
p954
aS'-2.557E-08'
p955
aS'21.07\n'
p956
aa(lp957
S'15'
p958
aS'3.198E-06'
p959
aS'1.769E-07'
p960
aS'-24.821852'
p961
aS'-4.133E-09'
p962
aS'20.97\n'
p963
aa(lp964
S'16'
p965
aS'1.542E-06'
p966
aS'5.995E-08'
p967
aS'-24.821852'
p968
aS'-1.019E-09'
p969
aS'20.98\n'
p970
aa(lp971
S'17'
p972
aS'9.824E-07'
p973
aS'2.914E-08'
p974
aS'-24.821852'
p975
aS'-1.050E-10'
p976
aS'20.95\n'
p977
aa(lp978
S'18'
p979
aS'2.842E-07'
p980
aS'1.400E-08'
p981
aS'-24.821852'
p982
aS'-3.499E-11'
p983
aS'20.53\n'
p984
aa(lp985
S'19'
p986
aS'1.901E-07'
p987
aS'7.868E-09'
p988
aS'-24.821852'
p989
aS'-8.612E-12'
p990
aS'19.67\n'
p991
aa(lp992
S'20'
p993
aS'9.681E-08'
p994
aS'3.108E-09'
p995
aS'-24.821852'
p996
aS'-1.108E-11'
p997
aS'18.96\n'
p998
aasS'ESR'
p999
F0.64370157
sS'ELECTROSTATIC ENERGY'
p1000
F-14.14180105
sS'EXCHANGE-CORRELATION ENERGY'
p1001
F-5.30747411
sS'LOCAL PSEUDOPOTENTIAL ENERGY'
p1002
F-26.91258897
sS'ESELF'
p1003
F16.62259502
sS'GRADIENT CORRECTION ENERGY'
p1004
F-0.13827537
sS'KINETIC ENERGY'
p1005
F19.32259858
sS'TOTAL ENERGY'
p1006
F-24.10757385
sS'N-L PSEUDOPOTENTIAL ENERGY'
p1007
F2.9316917
ssg182
Fnan
sg183
g3
(g184
g5
Ntp1008
Rp1009
(dp1010
g188
I00
sg189
g190
(g191
g1009
g184
tp1011
Rp1012
sg194
I00
sg195
S'GEOMETRY FILE / created by CPMD\n'
p1013
sg197
g190
(g198
g1009
g184
tp1014
Rp1015
sg201
(dp1016
sg203
I0
sg204
I00
sg205
(lp1017
sg207
I00
sg208
I0
sg209
(lp1018
g10
ag10
asg211
(dp1019
sg213
I2
sg214
(lp1020
g216
ag217
asg218
g219
(g220
(I0
tp1021
g222
tp1022
Rp1023
(I1
(I2
I3
tp1024
g229
I00
S'\x01\xf8d\r\x00\x00\x14@\x01\xf8d\r\x00\x00\x14@\x01\xf8d\r\x00\x00\x14@\xcf\xe3\xce\x94\x99\x99\x17@\x01\xf8d\r\x00\x00\x14@\x01\xf8d\r\x00\x00\x14@'
p1025
tp1026
bsg234
I00
sg235
g219
(g220
(I0
tp1027
g222
tp1028
Rp1029
(I1
(I2
tp1030
g229
I00
S'\x00\x00\x00\x00\x00\x00\xf0?\x00\x00\x00\x00\x00\x00"@'
p1031
tp1032
bsg242
I00
sg11
S'H1F1'
p1033
sg244
I1
sg245
I00
sg246
g219
(g220
(I0
tp1034
g222
tp1035
Rp1036
(I1
(I1
I0
tp1037
g229
I00
g10
tp1038
bsbsg252
(dp1039
g254
(lp1040
I0
aI0
aI0
asg256
(lp1041
F0.75
aF0.75
aI0
asg258
(lp1042
F0.5
aF0.5
aF0.5
asg260
(lp1043
F0.1
aF0.25
aF0.25
asg262
(lp1044
I1
aF0.25
aI0
asg264
(lp1045
I1
aI0
aI0
assg266
S'hf_ref09'
p1046
sg268
S'.out'
p1047
sg270
S'/home/samio/project/a02_alchemy_diatomic/reproduce/production_shifted_refs/hf_ref09'
p1048
sg272
F-24.82185205
sg273
I20
sg274
g275
sbag3
(g4
g5
Ntp1049
Rp1050
(dp1051
g9
g10
sg11
S'hf_ref10.out'
p1052
sg13
(dp1053
sg15
(dp1054
g17
(lp1055
(lp1056
g20
aS'2.731E-02'
p1057
aS'3.329E-03'
p1058
aS'-24.134078'
p1059
aS'0.000E+00'
p1060
aS'21.02\n'
p1061
aa(lp1062
g27
aS'3.135E-02'
p1063
aS'1.486E-03'
p1064
aS'-24.558392'
p1065
aS'-4.243E-01'
p1066
aS'21.02\n'
p1067
aa(lp1068
g34
aS'1.113E-02'
p1069
aS'8.785E-04'
p1070
aS'-24.767240'
p1071
aS'-2.088E-01'
p1072
aS'21.25\n'
p1073
aa(lp1074
g41
aS'5.997E-03'
p1075
aS'5.367E-04'
p1076
aS'-24.803283'
p1077
aS'-3.604E-02'
p1078
aS'21.11\n'
p1079
aa(lp1080
g48
aS'6.615E-03'
p1081
aS'2.465E-04'
p1082
aS'-24.815277'
p1083
aS'-1.199E-02'
p1084
aS'21.19\n'
p1085
aa(lp1086
g55
aS'2.849E-03'
p1087
aS'1.052E-04'
p1088
aS'-24.818212'
p1089
aS'-2.935E-03'
p1090
aS'21.11\n'
p1091
aa(lp1092
g62
aS'1.151E-03'
p1093
aS'5.706E-05'
p1094
aS'-24.818758'
p1095
aS'-5.460E-04'
p1096
aS'21.03\n'
p1097
aa(lp1098
g69
aS'6.656E-04'
p1099
aS'2.793E-05'
p1100
aS'-24.818949'
p1101
aS'-1.907E-04'
p1102
aS'21.16\n'
p1103
aa(lp1104
g76
aS'3.092E-04'
p1105
aS'1.617E-05'
p1106
aS'-24.819019'
p1107
aS'-7.086E-05'
p1108
aS'21.21\n'
p1109
aa(lp1110
S'10'
p1111
aS'1.789E-04'
p1112
aS'1.237E-05'
p1113
aS'-24.819038'
p1114
aS'-1.892E-05'
p1115
aS'21.25\n'
p1116
aa(lp1117
S'11'
p1118
aS'8.205E-05'
p1119
aS'6.480E-06'
p1120
aS'-24.819046'
p1121
aS'-8.085E-06'
p1122
aS'21.28\n'
p1123
aa(lp1124
S'12'
p1125
aS'4.639E-05'
p1126
aS'2.097E-06'
p1127
aS'-24.819048'
p1128
aS'-1.743E-06'
p1129
aS'21.30\n'
p1130
aa(lp1131
S'13'
p1132
aS'2.257E-05'
p1133
aS'6.840E-07'
p1134
aS'-24.819048'
p1135
aS'-1.488E-07'
p1136
aS'21.25\n'
p1137
aa(lp1138
S'14'
p1139
aS'6.272E-06'
p1140
aS'3.897E-07'
p1141
aS'-24.819048'
p1142
aS'-1.620E-08'
p1143
aS'21.44\n'
p1144
aa(lp1145
S'15'
p1146
aS'3.174E-06'
p1147
aS'1.618E-07'
p1148
aS'-24.819048'
p1149
aS'-3.936E-09'
p1150
aS'21.27\n'
p1151
aa(lp1152
S'16'
p1153
aS'1.228E-06'
p1154
aS'5.585E-08'
p1155
aS'-24.819048'
p1156
aS'-9.129E-10'
p1157
aS'21.27\n'
p1158
aa(lp1159
S'17'
p1160
aS'7.925E-07'
p1161
aS'2.538E-08'
p1162
aS'-24.819048'
p1163
aS'-1.033E-10'
p1164
aS'21.21\n'
p1165
aa(lp1166
S'18'
p1167
aS'1.540E-07'
p1168
aS'1.451E-08'
p1169
aS'-24.819048'
p1170
aS'-2.659E-11'
p1171
aS'21.03\n'
p1172
aa(lp1173
S'19'
p1174
aS'1.650E-07'
p1175
aS'7.661E-09'
p1176
aS'-24.819048'
p1177
aS'-1.067E-11'
p1178
aS'19.89\n'
p1179
aa(lp1180
S'20'
p1181
aS'7.587E-08'
p1182
aS'4.175E-09'
p1183
aS'-24.819048'
p1184
aS'8.242E-13'
p1185
aS'19.16\n'
p1186
aasS'ESR'
p1187
F0.42713276
sS'ELECTROSTATIC ENERGY'
p1188
F-14.44822997
sS'EXCHANGE-CORRELATION ENERGY'
p1189
F-5.23769886
sS'LOCAL PSEUDOPOTENTIAL ENERGY'
p1190
F-26.39217227
sS'ESELF'
p1191
F16.62259502
sS'GRADIENT CORRECTION ENERGY'
p1192
F-0.13783526
sS'KINETIC ENERGY'
p1193
F18.9868058
sS'TOTAL ENERGY'
p1194
F-24.13407834
sS'N-L PSEUDOPOTENTIAL ENERGY'
p1195
F2.95721697
ssg182
Fnan
sg183
g3
(g184
g5
Ntp1196
Rp1197
(dp1198
g188
I00
sg189
g190
(g191
g1197
g184
tp1199
Rp1200
sg194
I00
sg195
S'GEOMETRY FILE / created by CPMD\n'
p1201
sg197
g190
(g198
g1197
g184
tp1202
Rp1203
sg201
(dp1204
sg203
I0
sg204
I00
sg205
(lp1205
sg207
I00
sg208
I0
sg209
(lp1206
g10
ag10
asg211
(dp1207
sg213
I2
sg214
(lp1208
g216
ag217
asg218
g219
(g220
(I0
tp1209
g222
tp1210
Rp1211
(I1
(I2
I3
tp1212
g229
I00
S'\x01\xf8d\r\x00\x00\x14@\x01\xf8d\r\x00\x00\x14@\x01\xf8d\r\x00\x00\x14@\x02\x86\xf8\x08\x00\x00\x18@\x01\xf8d\r\x00\x00\x14@\x01\xf8d\r\x00\x00\x14@'
p1213
tp1214
bsg234
I00
sg235
g219
(g220
(I0
tp1215
g222
tp1216
Rp1217
(I1
(I2
tp1218
g229
I00
S'\x00\x00\x00\x00\x00\x00\xf0?\x00\x00\x00\x00\x00\x00"@'
p1219
tp1220
bsg242
I00
sg11
S'H1F1'
p1221
sg244
I1
sg245
I00
sg246
g219
(g220
(I0
tp1222
g222
tp1223
Rp1224
(I1
(I1
I0
tp1225
g229
I00
g10
tp1226
bsbsg252
(dp1227
g254
(lp1228
I0
aI0
aI0
asg256
(lp1229
F0.75
aF0.75
aI0
asg258
(lp1230
F0.5
aF0.5
aF0.5
asg260
(lp1231
F0.1
aF0.25
aF0.25
asg262
(lp1232
I1
aF0.25
aI0
asg264
(lp1233
I1
aI0
aI0
assg266
S'hf_ref10'
p1234
sg268
S'.out'
p1235
sg270
S'/home/samio/project/a02_alchemy_diatomic/reproduce/production_shifted_refs/hf_ref10'
p1236
sg272
F-24.8190483
sg273
I20
sg274
g275
sbag3
(g4
g5
Ntp1237
Rp1238
(dp1239
g9
g10
sg11
S'hf_ref11.out'
p1240
sg13
(dp1241
sg15
(dp1242
g17
(lp1243
(lp1244
g20
aS'2.657E-02'
p1245
aS'3.303E-03'
p1246
aS'-24.141182'
p1247
aS'0.000E+00'
p1248
aS'20.97\n'
p1249
aa(lp1250
g27
aS'3.173E-02'
p1251
aS'1.466E-03'
p1252
aS'-24.550858'
p1253
aS'-4.097E-01'
p1254
aS'20.97\n'
p1255
aa(lp1256
g34
aS'1.074E-02'
p1257
aS'8.816E-04'
p1258
aS'-24.750332'
p1259
aS'-1.995E-01'
p1260
aS'21.03\n'
p1261
aa(lp1262
g41
aS'5.954E-03'
p1263
aS'5.276E-04'
p1264
aS'-24.787081'
p1265
aS'-3.675E-02'
p1266
aS'20.85\n'
p1267
aa(lp1268
g48
aS'6.594E-03'
p1269
aS'2.349E-04'
p1270
aS'-24.799559'
p1271
aS'-1.248E-02'
p1272
aS'21.01\n'
p1273
aa(lp1274
g55
aS'2.796E-03'
p1275
aS'9.926E-05'
p1276
aS'-24.802611'
p1277
aS'-3.053E-03'
p1278
aS'20.88\n'
p1279
aa(lp1280
g62
aS'1.225E-03'
p1281
aS'5.505E-05'
p1282
aS'-24.803210'
p1283
aS'-5.989E-04'
p1284
aS'20.98\n'
p1285
aa(lp1286
g69
aS'7.907E-04'
p1287
aS'2.887E-05'
p1288
aS'-24.803444'
p1289
aS'-2.334E-04'
p1290
aS'20.88\n'
p1291
aa(lp1292
g76
aS'3.942E-04'
p1293
aS'2.034E-05'
p1294
aS'-24.803529'
p1295
aS'-8.525E-05'
p1296
aS'21.02\n'
p1297
aa(lp1298
S'10'
p1299
aS'2.286E-04'
p1300
aS'1.400E-05'
p1301
aS'-24.803553'
p1302
aS'-2.402E-05'
p1303
aS'20.89\n'
p1304
aa(lp1305
S'11'
p1306
aS'9.246E-05'
p1307
aS'6.342E-06'
p1308
aS'-24.803562'
p1309
aS'-9.017E-06'
p1310
aS'20.86\n'
p1311
aa(lp1312
S'12'
p1313
aS'4.225E-05'
p1314
aS'2.032E-06'
p1315
aS'-24.803564'
p1316
aS'-1.511E-06'
p1317
aS'20.77\n'
p1318
aa(lp1319
S'13'
p1320
aS'2.065E-05'
p1321
aS'6.648E-07'
p1322
aS'-24.803564'
p1323
aS'-1.350E-07'
p1324
aS'20.83\n'
p1325
aa(lp1326
S'14'
p1327
aS'5.846E-06'
p1328
aS'3.869E-07'
p1329
aS'-24.803564'
p1330
aS'-1.361E-08'
p1331
aS'20.84\n'
p1332
aa(lp1333
S'15'
p1334
aS'3.205E-06'
p1335
aS'1.559E-07'
p1336
aS'-24.803564'
p1337
aS'-4.328E-09'
p1338
aS'20.91\n'
p1339
aa(lp1340
S'16'
p1341
aS'1.271E-06'
p1342
aS'5.928E-08'
p1343
aS'-24.803564'
p1344
aS'-9.610E-10'
p1345
aS'20.89\n'
p1346
aa(lp1347
S'17'
p1348
aS'7.777E-07'
p1349
aS'2.798E-08'
p1350
aS'-24.803564'
p1351
aS'-1.565E-10'
p1352
aS'20.78\n'
p1353
aa(lp1354
S'18'
p1355
aS'2.059E-07'
p1356
aS'1.840E-08'
p1357
aS'-24.803564'
p1358
aS'-4.323E-11'
p1359
aS'20.62\n'
p1360
aa(lp1361
S'19'
p1362
aS'1.198E-07'
p1363
aS'9.551E-09'
p1364
aS'-24.803564'
p1365
aS'-1.486E-11'
p1366
aS'20.20\n'
p1367
aa(lp1368
S'20'
p1369
aS'1.570E-07'
p1370
aS'5.030E-09'
p1371
aS'-24.803564'
p1372
aS'-1.560E-12'
p1373
aS'19.00\n'
p1374
aa(lp1375
S'21'
p1376
aS'1.208E-07'
p1377
aS'1.880E-09'
p1378
aS'-24.803564'
p1379
aS'3.833E-12'
p1380
aS'18.38\n'
p1381
aa(lp1382
S'22'
p1383
aS'4.639E-08'
p1384
aS'1.112E-09'
p1385
aS'-24.803564'
p1386
aS'-4.718E-12'
p1387
aS'17.62\n'
p1388
aasS'ESR'
p1389
F0.28027377
sS'ELECTROSTATIC ENERGY'
p1390
F-14.68013675
sS'EXCHANGE-CORRELATION ENERGY'
p1391
F-5.17411893
sS'LOCAL PSEUDOPOTENTIAL ENERGY'
p1392
F-25.96318345
sS'ESELF'
p1393
F16.62259502
sS'GRADIENT CORRECTION ENERGY'
p1394
F-0.1379946
sS'KINETIC ENERGY'
p1395
F18.69472511
sS'TOTAL ENERGY'
p1396
F-24.14118213
sS'N-L PSEUDOPOTENTIAL ENERGY'
p1397
F2.98153189
ssg182
Fnan
sg183
g3
(g184
g5
Ntp1398
Rp1399
(dp1400
g188
I00
sg189
g190
(g191
g1399
g184
tp1401
Rp1402
sg194
I00
sg195
S'GEOMETRY FILE / created by CPMD\n'
p1403
sg197
g190
(g198
g1399
g184
tp1404
Rp1405
sg201
(dp1406
sg203
I0
sg204
I00
sg205
(lp1407
sg207
I00
sg208
I0
sg209
(lp1408
g10
ag10
asg211
(dp1409
sg213
I2
sg214
(lp1410
g216
ag217
asg218
g219
(g220
(I0
tp1411
g222
tp1412
Rp1413
(I1
(I2
I3
tp1414
g229
I00
S'\x01\xf8d\r\x00\x00\x14@\x01\xf8d\r\x00\x00\x14@\x01\xf8d\r\x00\x00\x14@7\xf6\x9eYff\x18@\x01\xf8d\r\x00\x00\x14@\x01\xf8d\r\x00\x00\x14@'
p1415
tp1416
bsg234
I00
sg235
g219
(g220
(I0
tp1417
g222
tp1418
Rp1419
(I1
(I2
tp1420
g229
I00
S'\x00\x00\x00\x00\x00\x00\xf0?\x00\x00\x00\x00\x00\x00"@'
p1421
tp1422
bsg242
I00
sg11
S'H1F1'
p1423
sg244
I1
sg245
I00
sg246
g219
(g220
(I0
tp1424
g222
tp1425
Rp1426
(I1
(I1
I0
tp1427
g229
I00
g10
tp1428
bsbsg252
(dp1429
g254
(lp1430
I0
aI0
aI0
asg256
(lp1431
F0.75
aF0.75
aI0
asg258
(lp1432
F0.5
aF0.5
aF0.5
asg260
(lp1433
F0.1
aF0.25
aF0.25
asg262
(lp1434
I1
aF0.25
aI0
asg264
(lp1435
I1
aI0
aI0
assg266
S'hf_ref11'
p1436
sg268
S'.out'
p1437
sg270
S'/home/samio/project/a02_alchemy_diatomic/reproduce/production_shifted_refs/hf_ref11'
p1438
sg272
F-24.80356366
sg273
I22
sg274
g275
sbag3
(g4
g5
Ntp1439
Rp1440
(dp1441
g9
g10
sg11
S'hf_ref12.out'
p1442
sg13
(dp1443
sg15
(dp1444
g17
(lp1445
(lp1446
g20
aS'2.572E-02'
p1447
aS'3.283E-03'
p1448
aS'-24.135726'
p1449
aS'0.000E+00'
p1450
aS'20.97\n'
p1451
aa(lp1452
g27
aS'3.143E-02'
p1453
aS'1.445E-03'
p1454
aS'-24.538775'
p1455
aS'-4.030E-01'
p1456
aS'21.18\n'
p1457
aa(lp1458
g34
aS'1.032E-02'
p1459
aS'8.851E-04'
p1460
aS'-24.727313'
p1461
aS'-1.885E-01'
p1462
aS'21.18\n'
p1463
aa(lp1464
g41
aS'5.993E-03'
p1465
aS'5.166E-04'
p1466
aS'-24.765179'
p1467
aS'-3.787E-02'
p1468
aS'20.81\n'
p1469
aa(lp1470
g48
aS'6.735E-03'
p1471
aS'2.244E-04'
p1472
aS'-24.778152'
p1473
aS'-1.297E-02'
p1474
aS'21.12\n'
p1475
aa(lp1476
g55
aS'2.883E-03'
p1477
aS'9.705E-05'
p1478
aS'-24.781370'
p1479
aS'-3.218E-03'
p1480
aS'21.23\n'
p1481
aa(lp1482
g62
aS'1.369E-03'
p1483
aS'5.680E-05'
p1484
aS'-24.782057'
p1485
aS'-6.876E-04'
p1486
aS'21.14\n'
p1487
aa(lp1488
g69
aS'9.597E-04'
p1489
aS'3.287E-05'
p1490
aS'-24.782350'
p1491
aS'-2.930E-04'
p1492
aS'21.18\n'
p1493
aa(lp1494
g76
aS'4.757E-04'
p1495
aS'2.386E-05'
p1496
aS'-24.782450'
p1497
aS'-1.001E-04'
p1498
aS'21.16\n'
p1499
aa(lp1500
S'10'
p1501
aS'2.820E-04'
p1502
aS'1.434E-05'
p1503
aS'-24.782478'
p1504
aS'-2.797E-05'
p1505
aS'21.32\n'
p1506
aa(lp1507
S'11'
p1508
aS'1.060E-04'
p1509
aS'5.844E-06'
p1510
aS'-24.782487'
p1511
aS'-8.829E-06'
p1512
aS'21.25\n'
p1513
aa(lp1514
S'12'
p1515
aS'5.227E-05'
p1516
aS'2.008E-06'
p1517
aS'-24.782488'
p1518
aS'-1.207E-06'
p1519
aS'21.22\n'
p1520
aa(lp1521
S'13'
p1522
aS'1.976E-05'
p1523
aS'7.152E-07'
p1524
aS'-24.782489'
p1525
aS'-1.264E-07'
p1526
aS'21.36\n'
p1527
aa(lp1528
S'14'
p1529
aS'7.395E-06'
p1530
aS'4.020E-07'
p1531
aS'-24.782489'
p1532
aS'-1.526E-08'
p1533
aS'21.09\n'
p1534
aa(lp1535
S'15'
p1536
aS'3.306E-06'
p1537
aS'1.471E-07'
p1538
aS'-24.782489'
p1539
aS'-5.653E-09'
p1540
aS'21.42\n'
p1541
aa(lp1542
S'16'
p1543
aS'1.923E-06'
p1544
aS'6.594E-08'
p1545
aS'-24.782489'
p1546
aS'-9.879E-10'
p1547
aS'21.35\n'
p1548
aa(lp1549
S'17'
p1550
aS'7.503E-07'
p1551
aS'3.234E-08'
p1552
aS'-24.782489'
p1553
aS'-2.375E-10'
p1554
aS'21.39\n'
p1555
aa(lp1556
S'18'
p1557
aS'4.597E-07'
p1558
aS'2.253E-08'
p1559
aS'-24.782489'
p1560
aS'-3.338E-11'
p1561
aS'21.00\n'
p1562
aa(lp1563
S'19'
p1564
aS'4.094E-07'
p1565
aS'1.270E-08'
p1566
aS'-24.782489'
p1567
aS'-2.116E-11'
p1568
aS'19.91\n'
p1569
aa(lp1570
S'20'
p1571
aS'3.964E-07'
p1572
aS'6.329E-09'
p1573
aS'-24.782489'
p1574
aS'-6.079E-12'
p1575
aS'19.12\n'
p1576
aa(lp1577
S'21'
p1578
aS'1.415E-07'
p1579
aS'2.444E-09'
p1580
aS'-24.782489'
p1581
aS'-3.595E-12'
p1582
aS'18.21\n'
p1583
aa(lp1584
S'22'
p1585
aS'4.516E-08'
p1586
aS'1.897E-09'
p1587
aS'-24.782489'
p1588
aS'5.613E-13'
p1589
aS'17.24\n'
p1590
aasS'ESR'
p1591
F0.18149111
sS'ELECTROSTATIC ENERGY'
p1592
F-14.86031956
sS'EXCHANGE-CORRELATION ENERGY'
p1593
F-5.11572632
sS'LOCAL PSEUDOPOTENTIAL ENERGY'
p1594
F-25.5972847
sS'ESELF'
p1595
F16.62259502
sS'GRADIENT CORRECTION ENERGY'
p1596
F-0.13860114
sS'KINETIC ENERGY'
p1597
F18.43561108
sS'TOTAL ENERGY'
p1598
F-24.13572559
sS'N-L PSEUDOPOTENTIAL ENERGY'
p1599
F3.00199391
ssg182
Fnan
sg183
g3
(g184
g5
Ntp1600
Rp1601
(dp1602
g188
I00
sg189
g190
(g191
g1601
g184
tp1603
Rp1604
sg194
I00
sg195
S'GEOMETRY FILE / created by CPMD\n'
p1605
sg197
g190
(g198
g1601
g184
tp1606
Rp1607
sg201
(dp1608
sg203
I0
sg204
I00
sg205
(lp1609
sg207
I00
sg208
I0
sg209
(lp1610
g10
ag10
asg211
(dp1611
sg213
I2
sg214
(lp1612
g216
ag217
asg218
g219
(g220
(I0
tp1613
g222
tp1614
Rp1615
(I1
(I2
I3
tp1616
g229
I00
S'\x01\xf8d\r\x00\x00\x14@\x01\xf8d\r\x00\x00\x14@\x01\xf8d\r\x00\x00\x14@i\x98\xc8\xcd\xcc\xcc\x18@\x01\xf8d\r\x00\x00\x14@\x01\xf8d\r\x00\x00\x14@'
p1617
tp1618
bsg234
I00
sg235
g219
(g220
(I0
tp1619
g222
tp1620
Rp1621
(I1
(I2
tp1622
g229
I00
S'\x00\x00\x00\x00\x00\x00\xf0?\x00\x00\x00\x00\x00\x00"@'
p1623
tp1624
bsg242
I00
sg11
S'H1F1'
p1625
sg244
I1
sg245
I00
sg246
g219
(g220
(I0
tp1626
g222
tp1627
Rp1628
(I1
(I1
I0
tp1629
g229
I00
g10
tp1630
bsbsg252
(dp1631
g254
(lp1632
I0
aI0
aI0
asg256
(lp1633
F0.75
aF0.75
aI0
asg258
(lp1634
F0.5
aF0.5
aF0.5
asg260
(lp1635
F0.1
aF0.25
aF0.25
asg262
(lp1636
I1
aF0.25
aI0
asg264
(lp1637
I1
aI0
aI0
assg266
S'hf_ref12'
p1638
sg268
S'.out'
p1639
sg270
S'/home/samio/project/a02_alchemy_diatomic/reproduce/production_shifted_refs/hf_ref12'
p1640
sg272
F-24.78248854
sg273
I22
sg274
g275
sbag3
(g4
g5
Ntp1641
Rp1642
(dp1643
g9
g10
sg11
S'hf_ref13.out'
p1644
sg13
(dp1645
sg15
(dp1646
g17
(lp1647
(lp1648
g20
aS'2.477E-02'
p1649
aS'3.268E-03'
p1650
aS'-24.121116'
p1651
aS'0.000E+00'
p1652
aS'22.67\n'
p1653
aa(lp1654
g27
aS'3.070E-02'
p1655
aS'1.424E-03'
p1656
aS'-24.525106'
p1657
aS'-4.040E-01'
p1658
aS'22.34\n'
p1659
aa(lp1660
g34
aS'1.003E-02'
p1661
aS'8.901E-04'
p1662
aS'-24.701445'
p1663
aS'-1.763E-01'
p1664
aS'22.46\n'
p1665
aa(lp1666
g41
aS'5.702E-03'
p1667
aS'5.084E-04'
p1668
aS'-24.741023'
p1669
aS'-3.958E-02'
p1670
aS'23.29\n'
p1671
aa(lp1672
g48
aS'6.478E-03'
p1673
aS'2.202E-04'
p1674
aS'-24.754689'
p1675
aS'-1.367E-02'
p1676
aS'23.25\n'
p1677
aa(lp1678
g55
aS'2.723E-03'
p1679
aS'1.000E-04'
p1680
aS'-24.758250'
p1681
aS'-3.561E-03'
p1682
aS'23.13\n'
p1683
aa(lp1684
g62
aS'1.355E-03'
p1685
aS'6.250E-05'
p1686
aS'-24.759076'
p1687
aS'-8.252E-04'
p1688
aS'23.32\n'
p1689
aa(lp1690
g69
aS'9.343E-04'
p1691
aS'3.836E-05'
p1692
aS'-24.759442'
p1693
aS'-3.668E-04'
p1694
aS'24.06\n'
p1695
aa(lp1696
g76
aS'4.435E-04'
p1697
aS'2.607E-05'
p1698
aS'-24.759558'
p1699
aS'-1.160E-04'
p1700
aS'24.06\n'
p1701
aa(lp1702
S'10'
p1703
aS'2.440E-04'
p1704
aS'1.421E-05'
p1705
aS'-24.759589'
p1706
aS'-3.080E-05'
p1707
aS'24.69\n'
p1708
aa(lp1709
S'11'
p1710
aS'8.452E-05'
p1711
aS'5.552E-06'
p1712
aS'-24.759598'
p1713
aS'-8.414E-06'
p1714
aS'24.14\n'
p1715
aa(lp1716
S'12'
p1717
aS'3.950E-05'
p1718
aS'1.998E-06'
p1719
aS'-24.759599'
p1720
aS'-1.058E-06'
p1721
aS'24.15\n'
p1722
aa(lp1723
S'13'
p1724
aS'1.696E-05'
p1725
aS'7.696E-07'
p1726
aS'-24.759599'
p1727
aS'-1.236E-07'
p1728
aS'23.68\n'
p1729
aa(lp1730
S'14'
p1731
aS'5.700E-06'
p1732
aS'4.150E-07'
p1733
aS'-24.759599'
p1734
aS'-1.886E-08'
p1735
aS'23.54\n'
p1736
aa(lp1737
S'15'
p1738
aS'2.831E-06'
p1739
aS'1.387E-07'
p1740
aS'-24.759599'
p1741
aS'-7.046E-09'
p1742
aS'24.60\n'
p1743
aa(lp1744
S'16'
p1745
aS'1.602E-06'
p1746
aS'7.431E-08'
p1747
aS'-24.759599'
p1748
aS'-1.017E-09'
p1749
aS'24.83\n'
p1750
aa(lp1751
S'17'
p1752
aS'7.005E-07'
p1753
aS'3.675E-08'
p1754
aS'-24.759599'
p1755
aS'-2.753E-10'
p1756
aS'22.12\n'
p1757
aa(lp1758
S'18'
p1759
aS'5.977E-07'
p1760
aS'2.469E-08'
p1761
aS'-24.759599'
p1762
aS'-4.241E-11'
p1763
aS'19.77\n'
p1764
aa(lp1765
S'19'
p1766
aS'3.907E-07'
p1767
aS'1.361E-08'
p1768
aS'-24.759599'
p1769
aS'-3.233E-11'
p1770
aS'19.32\n'
p1771
aa(lp1772
S'20'
p1773
aS'4.054E-07'
p1774
aS'6.073E-09'
p1775
aS'-24.759599'
p1776
aS'-3.748E-12'
p1777
aS'17.72\n'
p1778
aa(lp1779
S'21'
p1780
aS'8.796E-08'
p1781
aS'2.631E-09'
p1782
aS'-24.759599'
p1783
aS'-3.055E-12'
p1784
aS'17.62\n'
p1785
aasS'ESR'
p1786
F0.11579492
sS'ELECTROSTATIC ENERGY'
p1787
F-15.00370531
sS'EXCHANGE-CORRELATION ENERGY'
p1788
F-5.06183249
sS'LOCAL PSEUDOPOTENTIAL ENERGY'
p1789
F-25.27435131
sS'ESELF'
p1790
F16.62259502
sS'GRADIENT CORRECTION ENERGY'
p1791
F-0.13954999
sS'KINETIC ENERGY'
p1792
F18.20103064
sS'TOTAL ENERGY'
p1793
F-24.12111629
sS'N-L PSEUDOPOTENTIAL ENERGY'
p1794
F3.01774219
ssg182
Fnan
sg183
g3
(g184
g5
Ntp1795
Rp1796
(dp1797
g188
I00
sg189
g190
(g191
g1796
g184
tp1798
Rp1799
sg194
I00
sg195
S'GEOMETRY FILE / created by CPMD\n'
p1800
sg197
g190
(g198
g1796
g184
tp1801
Rp1802
sg201
(dp1803
sg203
I0
sg204
I00
sg205
(lp1804
sg207
I00
sg208
I0
sg209
(lp1805
g10
ag10
asg211
(dp1806
sg213
I2
sg214
(lp1807
g216
ag217
asg218
g219
(g220
(I0
tp1808
g222
tp1809
Rp1810
(I1
(I2
I3
tp1811
g229
I00
S'\x01\xf8d\r\x00\x00\x14@\x01\xf8d\r\x00\x00\x14@\x01\xf8d\r\x00\x00\x14@\x9a:\xf2A33\x19@\x01\xf8d\r\x00\x00\x14@\x01\xf8d\r\x00\x00\x14@'
p1812
tp1813
bsg234
I00
sg235
g219
(g220
(I0
tp1814
g222
tp1815
Rp1816
(I1
(I2
tp1817
g229
I00
S'\x00\x00\x00\x00\x00\x00\xf0?\x00\x00\x00\x00\x00\x00"@'
p1818
tp1819
bsg242
I00
sg11
S'H1F1'
p1820
sg244
I1
sg245
I00
sg246
g219
(g220
(I0
tp1821
g222
tp1822
Rp1823
(I1
(I1
I0
tp1824
g229
I00
g10
tp1825
bsbsg252
(dp1826
g254
(lp1827
I0
aI0
aI0
asg256
(lp1828
F0.75
aF0.75
aI0
asg258
(lp1829
F0.5
aF0.5
aF0.5
asg260
(lp1830
F0.1
aF0.25
aF0.25
asg262
(lp1831
I1
aF0.25
aI0
asg264
(lp1832
I1
aI0
aI0
assg266
S'hf_ref13'
p1833
sg268
S'.out'
p1834
sg270
S'/home/samio/project/a02_alchemy_diatomic/reproduce/production_shifted_refs/hf_ref13'
p1835
sg272
F-24.75959876
sg273
I21
sg274
g275
sbag3
(g4
g5
Ntp1836
Rp1837
(dp1838
g9
g10
sg11
S'hf_ref14.out'
p1839
sg13
(dp1840
sg15
(dp1841
g17
(lp1842
(lp1843
g20
aS'2.568E-02'
p1844
aS'3.257E-03'
p1845
aS'-24.098949'
p1846
aS'0.000E+00'
p1847
aS'21.04\n'
p1848
aa(lp1849
g27
aS'2.918E-02'
p1850
aS'1.403E-03'
p1851
aS'-24.511246'
p1852
aS'-4.123E-01'
p1853
aS'20.90\n'
p1854
aa(lp1855
g34
aS'9.449E-03'
p1856
aS'8.959E-04'
p1857
aS'-24.674420'
p1858
aS'-1.632E-01'
p1859
aS'21.01\n'
p1860
aa(lp1861
g41
aS'4.945E-03'
p1862
aS'5.051E-04'
p1863
aS'-24.716340'
p1864
aS'-4.192E-02'
p1865
aS'20.77\n'
p1866
aa(lp1867
g48
aS'5.788E-03'
p1868
aS'2.217E-04'
p1869
aS'-24.731103'
p1870
aS'-1.476E-02'
p1871
aS'20.84\n'
p1872
aa(lp1873
g55
aS'2.538E-03'
p1874
aS'1.075E-04'
p1875
aS'-24.735220'
p1876
aS'-4.117E-03'
p1877
aS'20.83\n'
p1878
aa(lp1879
g62
aS'1.447E-03'
p1880
aS'7.121E-05'
p1881
aS'-24.736223'
p1882
aS'-1.003E-03'
p1883
aS'20.97\n'
p1884
aa(lp1885
g69
aS'9.871E-04'
p1886
aS'4.359E-05'
p1887
aS'-24.736669'
p1888
aS'-4.462E-04'
p1889
aS'21.00\n'
p1890
aa(lp1891
g76
aS'4.517E-04'
p1892
aS'2.701E-05'
p1893
aS'-24.736799'
p1894
aS'-1.301E-04'
p1895
aS'20.94\n'
p1896
aa(lp1897
S'10'
p1898
aS'2.522E-04'
p1899
aS'1.356E-05'
p1900
aS'-24.736832'
p1901
aS'-3.211E-05'
p1902
aS'20.84\n'
p1903
aa(lp1904
S'11'
p1905
aS'7.920E-05'
p1906
aS'5.217E-06'
p1907
aS'-24.736839'
p1908
aS'-7.566E-06'
p1909
aS'20.98\n'
p1910
aa(lp1911
S'12'
p1912
aS'3.842E-05'
p1913
aS'2.019E-06'
p1914
aS'-24.736840'
p1915
aS'-8.975E-07'
p1916
aS'20.79\n'
p1917
aa(lp1918
S'13'
p1919
aS'1.652E-05'
p1920
aS'8.287E-07'
p1921
aS'-24.736840'
p1922
aS'-1.199E-07'
p1923
aS'20.91\n'
p1924
aa(lp1925
S'14'
p1926
aS'6.688E-06'
p1927
aS'4.011E-07'
p1928
aS'-24.736840'
p1929
aS'-2.311E-08'
p1930
aS'20.92\n'
p1931
aa(lp1932
S'15'
p1933
aS'3.219E-06'
p1934
aS'1.363E-07'
p1935
aS'-24.736840'
p1936
aS'-7.256E-09'
p1937
aS'20.93\n'
p1938
aa(lp1939
S'16'
p1940
aS'1.969E-06'
p1941
aS'8.143E-08'
p1942
aS'-24.736840'
p1943
aS'-1.020E-09'
p1944
aS'20.90\n'
p1945
aa(lp1946
S'17'
p1947
aS'8.786E-07'
p1948
aS'4.214E-08'
p1949
aS'-24.736840'
p1950
aS'-2.808E-10'
p1951
aS'20.81\n'
p1952
aa(lp1953
S'18'
p1954
aS'9.868E-07'
p1955
aS'2.457E-08'
p1956
aS'-24.736840'
p1957
aS'-6.080E-11'
p1958
aS'20.63\n'
p1959
aa(lp1960
S'19'
p1961
aS'4.057E-07'
p1962
aS'1.455E-08'
p1963
aS'-24.736840'
p1964
aS'-2.597E-11'
p1965
aS'20.25\n'
p1966
aa(lp1967
S'20'
p1968
aS'3.539E-07'
p1969
aS'5.429E-09'
p1970
aS'-24.736840'
p1971
aS'-1.038E-11'
p1972
aS'18.99\n'
p1973
aa(lp1974
S'21'
p1975
aS'6.398E-08'
p1976
aS'2.761E-09'
p1977
aS'-24.736840'
p1978
aS'3.325E-12'
p1979
aS'18.40\n'
p1980
aasS'ESR'
p1981
F0.07269975
sS'ELECTROSTATIC ENERGY'
p1982
F-15.11996802
sS'EXCHANGE-CORRELATION ENERGY'
p1983
F-5.01196251
sS'LOCAL PSEUDOPOTENTIAL ENERGY'
p1984
F-24.98011459
sS'ESELF'
p1985
F16.62259502
sS'GRADIENT CORRECTION ENERGY'
p1986
F-0.14076064
sS'KINETIC ENERGY'
p1987
F17.98412043
sS'TOTAL ENERGY'
p1988
F-24.09894943
sS'N-L PSEUDOPOTENTIAL ENERGY'
p1989
F3.02897527
ssg182
Fnan
sg183
g3
(g184
g5
Ntp1990
Rp1991
(dp1992
g188
I00
sg189
g190
(g191
g1991
g184
tp1993
Rp1994
sg194
I00
sg195
S'GEOMETRY FILE / created by CPMD\n'
p1995
sg197
g190
(g198
g1991
g184
tp1996
Rp1997
sg201
(dp1998
sg203
I0
sg204
I00
sg205
(lp1999
sg207
I00
sg208
I0
sg209
(lp2000
g10
ag10
asg211
(dp2001
sg213
I2
sg214
(lp2002
g216
ag217
asg218
g219
(g220
(I0
tp2003
g222
tp2004
Rp2005
(I1
(I2
I3
tp2006
g229
I00
S'\x01\xf8d\r\x00\x00\x14@\x01\xf8d\r\x00\x00\x14@\x01\xf8d\r\x00\x00\x14@\xd0\xaa\x98\x92\x99\x99\x19@\x01\xf8d\r\x00\x00\x14@\x01\xf8d\r\x00\x00\x14@'
p2007
tp2008
bsg234
I00
sg235
g219
(g220
(I0
tp2009
g222
tp2010
Rp2011
(I1
(I2
tp2012
g229
I00
S'\x00\x00\x00\x00\x00\x00\xf0?\x00\x00\x00\x00\x00\x00"@'
p2013
tp2014
bsg242
I00
sg11
S'H1F1'
p2015
sg244
I1
sg245
I00
sg246
g219
(g220
(I0
tp2016
g222
tp2017
Rp2018
(I1
(I1
I0
tp2019
g229
I00
g10
tp2020
bsbsg252
(dp2021
g254
(lp2022
I0
aI0
aI0
asg256
(lp2023
F0.75
aF0.75
aI0
asg258
(lp2024
F0.5
aF0.5
aF0.5
asg260
(lp2025
F0.1
aF0.25
aF0.25
asg262
(lp2026
I1
aF0.25
aI0
asg264
(lp2027
I1
aI0
aI0
assg266
S'hf_ref14'
p2028
sg268
S'.out'
p2029
sg270
S'/home/samio/project/a02_alchemy_diatomic/reproduce/production_shifted_refs/hf_ref14'
p2030
sg272
F-24.7368402
sg273
I21
sg274
g275
sbag3
(g4
g5
Ntp2031
Rp2032
(dp2033
g9
g10
sg11
S'hf_ref15.out'
p2034
sg13
(dp2035
sg15
(dp2036
g17
(lp2037
(lp2038
g20
aS'2.456E-02'
p2039
aS'3.248E-03'
p2040
aS'-24.069869'
p2041
aS'0.000E+00'
p2042
aS'21.01\n'
p2043
aa(lp2044
g27
aS'2.720E-02'
p2045
aS'1.385E-03'
p2046
aS'-24.495500'
p2047
aS'-4.256E-01'
p2048
aS'21.01\n'
p2049
aa(lp2050
g34
aS'9.697E-03'
p2051
aS'9.031E-04'
p2052
aS'-24.646841'
p2053
aS'-1.513E-01'
p2054
aS'21.25\n'
p2055
aa(lp2056
g41
aS'6.468E-03'
p2057
aS'5.095E-04'
p2058
aS'-24.691781'
p2059
aS'-4.494E-02'
p2060
aS'21.08\n'
p2061
aa(lp2062
g48
aS'5.907E-03'
p2063
aS'2.298E-04'
p2064
aS'-24.708238'
p2065
aS'-1.646E-02'
p2066
aS'21.12\n'
p2067
aa(lp2068
g55
aS'2.771E-03'
p2069
aS'1.203E-04'
p2070
aS'-24.713206'
p2071
aS'-4.968E-03'
p2072
aS'21.03\n'
p2073
aa(lp2074
g62
aS'1.746E-03'
p2075
aS'8.201E-05'
p2076
aS'-24.714450'
p2077
aS'-1.244E-03'
p2078
aS'21.17\n'
p2079
aa(lp2080
g69
aS'1.165E-03'
p2081
aS'4.837E-05'
p2082
aS'-24.714979'
p2083
aS'-5.288E-04'
p2084
aS'21.19\n'
p2085
aa(lp2086
g76
aS'5.267E-04'
p2087
aS'2.717E-05'
p2088
aS'-24.715131'
p2089
aS'-1.521E-04'
p2090
aS'21.20\n'
p2091
aa(lp2092
S'10'
p2093
aS'2.795E-04'
p2094
aS'1.303E-05'
p2095
aS'-24.715164'
p2096
aS'-3.346E-05'
p2097
aS'21.25\n'
p2098
aa(lp2099
S'11'
p2100
aS'8.488E-05'
p2101
aS'5.295E-06'
p2102
aS'-24.715171'
p2103
aS'-6.782E-06'
p2104
aS'21.30\n'
p2105
aa(lp2106
S'12'
p2107
aS'4.435E-05'
p2108
aS'2.057E-06'
p2109
aS'-24.715172'
p2110
aS'-8.975E-07'
p2111
aS'21.31\n'
p2112
aa(lp2113
S'13'
p2114
aS'1.578E-05'
p2115
aS'8.886E-07'
p2116
aS'-24.715172'
p2117
aS'-1.242E-07'
p2118
aS'21.25\n'
p2119
aa(lp2120
S'14'
p2121
aS'7.574E-06'
p2122
aS'3.726E-07'
p2123
aS'-24.715172'
p2124
aS'-2.769E-08'
p2125
aS'21.45\n'
p2126
aa(lp2127
S'15'
p2128
aS'2.994E-06'
p2129
aS'1.480E-07'
p2130
aS'-24.715172'
p2131
aS'-6.699E-09'
p2132
aS'21.28\n'
p2133
aa(lp2134
S'16'
p2135
aS'2.062E-06'
p2136
aS'8.247E-08'
p2137
aS'-24.715172'
p2138
aS'-1.114E-09'
p2139
aS'21.28\n'
p2140
aa(lp2141
S'17'
p2142
aS'1.123E-06'
p2143
aS'4.677E-08'
p2144
aS'-24.715172'
p2145
aS'-2.466E-10'
p2146
aS'21.20\n'
p2147
aa(lp2148
S'18'
p2149
aS'9.236E-07'
p2150
aS'2.599E-08'
p2151
aS'-24.715172'
p2152
aS'-9.468E-11'
p2153
aS'21.04\n'
p2154
aa(lp2155
S'19'
p2156
aS'3.761E-07'
p2157
aS'1.687E-08'
p2158
aS'-24.715172'
p2159
aS'-2.928E-11'
p2160
aS'19.87\n'
p2161
aa(lp2162
S'20'
p2163
aS'2.493E-07'
p2164
aS'5.345E-09'
p2165
aS'-24.715172'
p2166
aS'-1.240E-11'
p2167
aS'19.16\n'
p2168
aa(lp2169
S'21'
p2170
aS'8.893E-08'
p2171
aS'2.958E-09'
p2172
aS'-24.715172'
p2173
aS'-2.096E-13'
p2174
aS'18.43\n'
p2175
aasS'ESR'
p2176
F0.04486802
sS'ELECTROSTATIC ENERGY'
p2177
F-15.21525685
sS'EXCHANGE-CORRELATION ENERGY'
p2178
F-4.96578609
sS'LOCAL PSEUDOPOTENTIAL ENERGY'
p2179
F-24.70483034
sS'ESELF'
p2180
F16.62259502
sS'GRADIENT CORRECTION ENERGY'
p2181
F-0.14217574
sS'KINETIC ENERGY'
p2182
F17.77963379
sS'TOTAL ENERGY'
p2183
F-24.06986932
sS'N-L PSEUDOPOTENTIAL ENERGY'
p2184
F3.03637017
ssg182
Fnan
sg183
g3
(g184
g5
Ntp2185
Rp2186
(dp2187
g188
I00
sg189
g190
(g191
g2186
g184
tp2188
Rp2189
sg194
I00
sg195
S'GEOMETRY FILE / created by CPMD\n'
p2190
sg197
g190
(g198
g2186
g184
tp2191
Rp2192
sg201
(dp2193
sg203
I0
sg204
I00
sg205
(lp2194
sg207
I00
sg208
I0
sg209
(lp2195
g10
ag10
asg211
(dp2196
sg213
I2
sg214
(lp2197
g216
ag217
asg218
g219
(g220
(I0
tp2198
g222
tp2199
Rp2200
(I1
(I2
I3
tp2201
g229
I00
S'\x01\xf8d\r\x00\x00\x14@\x01\xf8d\r\x00\x00\x14@\x01\xf8d\r\x00\x00\x14@\x02M\xc2\x06\x00\x00\x1a@\x01\xf8d\r\x00\x00\x14@\x01\xf8d\r\x00\x00\x14@'
p2202
tp2203
bsg234
I00
sg235
g219
(g220
(I0
tp2204
g222
tp2205
Rp2206
(I1
(I2
tp2207
g229
I00
S'\x00\x00\x00\x00\x00\x00\xf0?\x00\x00\x00\x00\x00\x00"@'
p2208
tp2209
bsg242
I00
sg11
S'H1F1'
p2210
sg244
I1
sg245
I00
sg246
g219
(g220
(I0
tp2211
g222
tp2212
Rp2213
(I1
(I1
I0
tp2214
g229
I00
g10
tp2215
bsbsg252
(dp2216
g254
(lp2217
I0
aI0
aI0
asg256
(lp2218
F0.75
aF0.75
aI0
asg258
(lp2219
F0.5
aF0.5
aF0.5
asg260
(lp2220
F0.1
aF0.25
aF0.25
asg262
(lp2221
I1
aF0.25
aI0
asg264
(lp2222
I1
aI0
aI0
assg266
S'hf_ref15'
p2223
sg268
S'.out'
p2224
sg270
S'/home/samio/project/a02_alchemy_diatomic/reproduce/production_shifted_refs/hf_ref15'
p2225
sg272
F-24.71517203
sg273
I21
sg274
g275
sbag3
(g4
g5
Ntp2226
Rp2227
(dp2228
g9
g10
sg11
S'hf_ref16.out'
p2229
sg13
(dp2230
sg15
(dp2231
g17
(lp2232
(lp2233
g20
aS'2.341E-02'
p2234
aS'3.243E-03'
p2235
aS'-24.034172'
p2236
aS'0.000E+00'
p2237
aS'20.96\n'
p2238
aa(lp2239
g27
aS'2.455E-02'
p2240
aS'1.371E-03'
p2241
aS'-24.477400'
p2242
aS'-4.432E-01'
p2243
aS'21.17\n'
p2244
aa(lp2245
g34
aS'9.648E-03'
p2246
aS'9.118E-04'
p2247
aS'-24.618499'
p2248
aS'-1.411E-01'
p2249
aS'21.26\n'
p2250
aa(lp2251
g41
aS'7.772E-03'
p2252
aS'5.251E-04'
p2253
aS'-24.667085'
p2254
aS'-4.859E-02'
p2255
aS'21.06\n'
p2256
aa(lp2257
g48
aS'5.634E-03'
p2258
aS'2.476E-04'
p2259
aS'-24.686295'
p2260
aS'-1.921E-02'
p2261
aS'20.96\n'
p2262
aa(lp2263
g55
aS'2.512E-03'
p2264
aS'1.382E-04'
p2265
aS'-24.692670'
p2266
aS'-6.375E-03'
p2267
aS'21.05\n'
p2268
aa(lp2269
g62
aS'1.609E-03'
p2270
aS'9.371E-05'
p2271
aS'-24.694240'
p2272
aS'-1.570E-03'
p2273
aS'21.06\n'
p2274
aa(lp2275
g69
aS'9.303E-04'
p2276
aS'5.285E-05'
p2277
aS'-24.694861'
p2278
aS'-6.213E-04'
p2279
aS'21.15\n'
p2280
aa(lp2281
g76
aS'4.434E-04'
p2282
aS'2.728E-05'
p2283
aS'-24.695046'
p2284
aS'-1.851E-04'
p2285
aS'21.21\n'
p2286
aa(lp2287
S'10'
p2288
aS'2.141E-04'
p2289
aS'1.280E-05'
p2290
aS'-24.695083'
p2291
aS'-3.745E-05'
p2292
aS'21.36\n'
p2293
aa(lp2294
S'11'
p2295
aS'6.229E-05'
p2296
aS'5.472E-06'
p2297
aS'-24.695090'
p2298
aS'-6.531E-06'
p2299
aS'21.27\n'
p2300
aa(lp2301
S'12'
p2302
aS'3.353E-05'
p2303
aS'2.060E-06'
p2304
aS'-24.695091'
p2305
aS'-9.759E-07'
p2306
aS'21.21\n'
p2307
aa(lp2308
S'13'
p2309
aS'1.725E-05'
p2310
aS'8.926E-07'
p2311
aS'-24.695091'
p2312
aS'-1.310E-07'
p2313
aS'21.34\n'
p2314
aa(lp2315
S'14'
p2316
aS'6.618E-06'
p2317
aS'3.342E-07'
p2318
aS'-24.695091'
p2319
aS'-2.919E-08'
p2320
aS'21.10\n'
p2321
aa(lp2322
S'15'
p2323
aS'3.252E-06'
p2324
aS'1.537E-07'
p2325
aS'-24.695091'
p2326
aS'-5.553E-09'
p2327
aS'21.45\n'
p2328
aa(lp2329
S'16'
p2330
aS'1.532E-06'
p2331
aS'7.944E-08'
p2332
aS'-24.695091'
p2333
aS'-1.160E-09'
p2334
aS'21.36\n'
p2335
aa(lp2336
S'17'
p2337
aS'9.011E-07'
p2338
aS'4.345E-08'
p2339
aS'-24.695091'
p2340
aS'-2.465E-10'
p2341
aS'21.38\n'
p2342
aa(lp2343
S'18'
p2344
aS'6.214E-07'
p2345
aS'2.436E-08'
p2346
aS'-24.695091'
p2347
aS'-9.981E-11'
p2348
aS'21.03\n'
p2349
aa(lp2350
S'19'
p2351
aS'3.558E-07'
p2352
aS'1.533E-08'
p2353
aS'-24.695091'
p2354
aS'-3.136E-11'
p2355
aS'19.92\n'
p2356
aa(lp2357
S'20'
p2358
aS'1.793E-07'
p2359
aS'6.447E-09'
p2360
aS'-24.695091'
p2361
aS'-7.105E-13'
p2362
aS'19.68\n'
p2363
aa(lp2364
S'21'
p2365
aS'7.347E-08'
p2366
aS'3.071E-09'
p2367
aS'-24.695091'
p2368
aS'-2.920E-12'
p2369
aS'18.31\n'
p2370
aasS'ESR'
p2371
F0.02719761
sS'ELECTROSTATIC ENERGY'
p2372
F-15.29325733
sS'EXCHANGE-CORRELATION ENERGY'
p2373
F-4.92312092
sS'LOCAL PSEUDOPOTENTIAL ENERGY'
p2374
F-24.44274534
sS'ESELF'
p2375
F16.62259502
sS'GRADIENT CORRECTION ENERGY'
p2376
F-0.14373183
sS'KINETIC ENERGY'
p2377
F17.58417493
sS'TOTAL ENERGY'
p2378
F-24.0341719
sS'N-L PSEUDOPOTENTIAL ENERGY'
p2379
F3.04077677
ssg182
Fnan
sg183
g3
(g184
g5
Ntp2380
Rp2381
(dp2382
g188
I00
sg189
g190
(g191
g2381
g184
tp2383
Rp2384
sg194
I00
sg195
S'GEOMETRY FILE / created by CPMD\n'
p2385
sg197
g190
(g198
g2381
g184
tp2386
Rp2387
sg201
(dp2388
sg203
I0
sg204
I00
sg205
(lp2389
sg207
I00
sg208
I0
sg209
(lp2390
g10
ag10
asg211
(dp2391
sg213
I2
sg214
(lp2392
g216
ag217
asg218
g219
(g220
(I0
tp2393
g222
tp2394
Rp2395
(I1
(I2
I3
tp2396
g229
I00
S'\x01\xf8d\r\x00\x00\x14@\x01\xf8d\r\x00\x00\x14@\x01\xf8d\r\x00\x00\x14@7\xbdhWff\x1a@\x01\xf8d\r\x00\x00\x14@\x01\xf8d\r\x00\x00\x14@'
p2397
tp2398
bsg234
I00
sg235
g219
(g220
(I0
tp2399
g222
tp2400
Rp2401
(I1
(I2
tp2402
g229
I00
S'\x00\x00\x00\x00\x00\x00\xf0?\x00\x00\x00\x00\x00\x00"@'
p2403
tp2404
bsg242
I00
sg11
S'H1F1'
p2405
sg244
I1
sg245
I00
sg246
g219
(g220
(I0
tp2406
g222
tp2407
Rp2408
(I1
(I1
I0
tp2409
g229
I00
g10
tp2410
bsbsg252
(dp2411
g254
(lp2412
I0
aI0
aI0
asg256
(lp2413
F0.75
aF0.75
aI0
asg258
(lp2414
F0.5
aF0.5
aF0.5
asg260
(lp2415
F0.1
aF0.25
aF0.25
asg262
(lp2416
I1
aF0.25
aI0
asg264
(lp2417
I1
aI0
aI0
assg266
S'hf_ref16'
p2418
sg268
S'.out'
p2419
sg270
S'/home/samio/project/a02_alchemy_diatomic/reproduce/production_shifted_refs/hf_ref16'
p2420
sg272
F-24.6950911
sg273
I21
sg274
g275
sbag3
(g4
g5
Ntp2421
Rp2422
(dp2423
g9
g10
sg11
S'hf_ref17.out'
p2424
sg13
(dp2425
sg15
(dp2426
g17
(lp2427
(lp2428
g20
aS'2.230E-02'
p2429
aS'3.239E-03'
p2430
aS'-23.992102'
p2431
aS'0.000E+00'
p2432
aS'17.96\n'
p2433
aa(lp2434
g27
aS'2.354E-02'
p2435
aS'1.360E-03'
p2436
aS'-24.456130'
p2437
aS'-4.640E-01'
p2438
aS'16.68\n'
p2439
aa(lp2440
g34
aS'1.051E-02'
p2441
aS'9.213E-04'
p2442
aS'-24.588951'
p2443
aS'-1.328E-01'
p2444
aS'16.49\n'
p2445
aa(lp2446
g41
aS'9.537E-03'
p2447
aS'5.526E-04'
p2448
aS'-24.641653'
p2449
aS'-5.270E-02'
p2450
aS'16.50\n'
p2451
aa(lp2452
g48
aS'4.894E-03'
p2453
aS'2.764E-04'
p2454
aS'-24.665108'
p2455
aS'-2.345E-02'
p2456
aS'16.54\n'
p2457
aa(lp2458
g55
aS'2.905E-03'
p2459
aS'1.591E-04'
p2460
aS'-24.673744'
p2461
aS'-8.636E-03'
p2462
aS'16.49\n'
p2463
aa(lp2464
g62
aS'1.855E-03'
p2465
aS'1.051E-04'
p2466
aS'-24.675760'
p2467
aS'-2.016E-03'
p2468
aS'16.45\n'
p2469
aa(lp2470
g69
aS'1.112E-03'
p2471
aS'5.744E-05'
p2472
aS'-24.676478'
p2473
aS'-7.181E-04'
p2474
aS'16.54\n'
p2475
aa(lp2476
g76
aS'4.514E-04'
p2477
aS'2.779E-05'
p2478
aS'-24.676715'
p2479
aS'-2.364E-04'
p2480
aS'16.86\n'
p2481
aa(lp2482
S'10'
p2483
aS'1.872E-04'
p2484
aS'1.302E-05'
p2485
aS'-24.676760'
p2486
aS'-4.553E-05'
p2487
aS'16.68\n'
p2488
aa(lp2489
S'11'
p2490
aS'7.257E-05'
p2491
aS'5.757E-06'
p2492
aS'-24.676767'
p2493
aS'-7.111E-06'
p2494
aS'16.67\n'
p2495
aa(lp2496
S'12'
p2497
aS'3.107E-05'
p2498
aS'2.078E-06'
p2499
aS'-24.676769'
p2500
aS'-1.156E-06'
p2501
aS'16.64\n'
p2502
aa(lp2503
S'13'
p2504
aS'1.871E-05'
p2505
aS'9.127E-07'
p2506
aS'-24.676769'
p2507
aS'-1.445E-07'
p2508
aS'17.00\n'
p2509
aa(lp2510
S'14'
p2511
aS'6.221E-06'
p2512
aS'3.491E-07'
p2513
aS'-24.676769'
p2514
aS'-3.092E-08'
p2515
aS'16.64\n'
p2516
aa(lp2517
S'15'
p2518
aS'2.525E-06'
p2519
aS'1.676E-07'
p2520
aS'-24.676769'
p2521
aS'-5.717E-09'
p2522
aS'16.64\n'
p2523
aa(lp2524
S'16'
p2525
aS'1.777E-06'
p2526
aS'8.936E-08'
p2527
aS'-24.676769'
p2528
aS'-1.304E-09'
p2529
aS'16.66\n'
p2530
aa(lp2531
S'17'
p2532
aS'7.771E-07'
p2533
aS'4.152E-08'
p2534
aS'-24.676769'
p2535
aS'-3.662E-10'
p2536
aS'16.65\n'
p2537
aa(lp2538
S'18'
p2539
aS'5.726E-07'
p2540
aS'2.128E-08'
p2541
aS'-24.676769'
p2542
aS'-8.949E-11'
p2543
aS'16.66\n'
p2544
aa(lp2545
S'19'
p2546
aS'3.173E-07'
p2547
aS'1.314E-08'
p2548
aS'-24.676769'
p2549
aS'-2.141E-11'
p2550
aS'16.65\n'
p2551
aa(lp2552
S'20'
p2553
aS'1.999E-07'
p2554
aS'7.120E-09'
p2555
aS'-24.676769'
p2556
aS'-6.413E-12'
p2557
aS'16.69\n'
p2558
aa(lp2559
S'21'
p2560
aS'6.481E-08'
p2561
aS'3.729E-09'
p2562
aS'-24.676769'
p2563
aS'-2.473E-12'
p2564
aS'16.17\n'
p2565
aasS'ESR'
p2566
F0.01618095
sS'ELECTROSTATIC ENERGY'
p2567
F-15.35606392
sS'EXCHANGE-CORRELATION ENERGY'
p2568
F-4.88393245
sS'LOCAL PSEUDOPOTENTIAL ENERGY'
p2569
F-24.19120631
sS'ESELF'
p2570
F16.62259502
sS'GRADIENT CORRECTION ENERGY'
p2571
F-0.14536805
sS'KINETIC ENERGY'
p2572
F17.39611115
sS'TOTAL ENERGY'
p2573
F-23.99210175
sS'N-L PSEUDOPOTENTIAL ENERGY'
p2574
F3.04298979
ssg182
Fnan
sg183
g3
(g184
g5
Ntp2575
Rp2576
(dp2577
g188
I00
sg189
g190
(g191
g2576
g184
tp2578
Rp2579
sg194
I00
sg195
S'GEOMETRY FILE / created by CPMD\n'
p2580
sg197
g190
(g198
g2576
g184
tp2581
Rp2582
sg201
(dp2583
sg203
I0
sg204
I00
sg205
(lp2584
sg207
I00
sg208
I0
sg209
(lp2585
g10
ag10
asg211
(dp2586
sg213
I2
sg214
(lp2587
g216
ag217
asg218
g219
(g220
(I0
tp2588
g222
tp2589
Rp2590
(I1
(I2
I3
tp2591
g229
I00
S'\x01\xf8d\r\x00\x00\x14@\x01\xf8d\r\x00\x00\x14@\x01\xf8d\r\x00\x00\x14@i_\x92\xcb\xcc\xcc\x1a@\x01\xf8d\r\x00\x00\x14@\x01\xf8d\r\x00\x00\x14@'
p2592
tp2593
bsg234
I00
sg235
g219
(g220
(I0
tp2594
g222
tp2595
Rp2596
(I1
(I2
tp2597
g229
I00
S'\x00\x00\x00\x00\x00\x00\xf0?\x00\x00\x00\x00\x00\x00"@'
p2598
tp2599
bsg242
I00
sg11
S'H1F1'
p2600
sg244
I1
sg245
I00
sg246
g219
(g220
(I0
tp2601
g222
tp2602
Rp2603
(I1
(I1
I0
tp2604
g229
I00
g10
tp2605
bsbsg252
(dp2606
g254
(lp2607
I0
aI0
aI0
asg256
(lp2608
F0.75
aF0.75
aI0
asg258
(lp2609
F0.5
aF0.5
aF0.5
asg260
(lp2610
F0.1
aF0.25
aF0.25
asg262
(lp2611
I1
aF0.25
aI0
asg264
(lp2612
I1
aI0
aI0
assg266
S'hf_ref17'
p2613
sg268
S'.out'
p2614
sg270
S'/home/samio/project/a02_alchemy_diatomic/reproduce/production_shifted_refs/hf_ref17'
p2615
sg272
F-24.67676878
sg273
I21
sg274
g275
sbag3
(g4
g5
Ntp2616
Rp2617
(dp2618
g9
g10
sg11
S'hf_ref18.out'
p2619
sg13
(dp2620
sg15
(dp2621
g17
(lp2622
(lp2623
g20
aS'2.465E-02'
p2624
aS'3.236E-03'
p2625
aS'-23.944334'
p2626
aS'0.000E+00'
p2627
aS'16.68\n'
p2628
aa(lp2629
g27
aS'2.342E-02'
p2630
aS'1.353E-03'
p2631
aS'-24.429713'
p2632
aS'-4.854E-01'
p2633
aS'16.46\n'
p2634
aa(lp2635
g34
aS'1.407E-02'
p2636
aS'9.322E-04'
p2637
aS'-24.557404'
p2638
aS'-1.277E-01'
p2639
aS'16.42\n'
p2640
aa(lp2641
g41
aS'1.182E-02'
p2642
aS'5.893E-04'
p2643
aS'-24.614608'
p2644
aS'-5.720E-02'
p2645
aS'16.45\n'
p2646
aa(lp2647
g48
aS'5.142E-03'
p2648
aS'3.193E-04'
p2649
aS'-24.643859'
p2650
aS'-2.925E-02'
p2651
aS'16.40\n'
p2652
aa(lp2653
g55
aS'3.217E-03'
p2654
aS'1.850E-04'
p2655
aS'-24.656343'
p2656
aS'-1.248E-02'
p2657
aS'16.41\n'
p2658
aa(lp2659
g62
aS'1.937E-03'
p2660
aS'1.172E-04'
p2661
aS'-24.659039'
p2662
aS'-2.696E-03'
p2663
aS'16.44\n'
p2664
aa(lp2665
g69
aS'1.151E-03'
p2666
aS'6.335E-05'
p2667
aS'-24.659898'
p2668
aS'-8.586E-04'
p2669
aS'16.54\n'
p2670
aa(lp2671
g76
aS'4.887E-04'
p2672
aS'2.959E-05'
p2673
aS'-24.660213'
p2674
aS'-3.150E-04'
p2675
aS'16.56\n'
p2676
aa(lp2677
S'10'
p2678
aS'1.758E-04'
p2679
aS'1.375E-05'
p2680
aS'-24.660272'
p2681
aS'-5.984E-05'
p2682
aS'16.60\n'
p2683
aa(lp2684
S'11'
p2685
aS'7.247E-05'
p2686
aS'6.027E-06'
p2687
aS'-24.660282'
p2688
aS'-9.086E-06'
p2689
aS'16.56\n'
p2690
aa(lp2691
S'12'
p2692
aS'3.298E-05'
p2693
aS'2.127E-06'
p2694
aS'-24.660283'
p2695
aS'-1.465E-06'
p2696
aS'16.59\n'
p2697
aa(lp2698
S'13'
p2699
aS'1.821E-05'
p2700
aS'9.517E-07'
p2701
aS'-24.660283'
p2702
aS'-1.736E-07'
p2703
aS'16.92\n'
p2704
aa(lp2705
S'14'
p2706
aS'7.809E-06'
p2707
aS'4.266E-07'
p2708
aS'-24.660283'
p2709
aS'-3.492E-08'
p2710
aS'16.55\n'
p2711
aa(lp2712
S'15'
p2713
aS'2.974E-06'
p2714
aS'2.062E-07'
p2715
aS'-24.660283'
p2716
aS'-7.916E-09'
p2717
aS'16.55\n'
p2718
aa(lp2719
S'16'
p2720
aS'1.340E-06'
p2721
aS'1.093E-07'
p2722
aS'-24.660283'
p2723
aS'-1.742E-09'
p2724
aS'16.51\n'
p2725
aa(lp2726
S'17'
p2727
aS'6.924E-07'
p2728
aS'4.188E-08'
p2729
aS'-24.660283'
p2730
aS'-5.430E-10'
p2731
aS'16.54\n'
p2732
aa(lp2733
S'18'
p2734
aS'4.926E-07'
p2735
aS'2.149E-08'
p2736
aS'-24.660283'
p2737
aS'-9.001E-11'
p2738
aS'16.54\n'
p2739
aa(lp2740
S'19'
p2741
aS'3.027E-07'
p2742
aS'1.247E-08'
p2743
aS'-24.660283'
p2744
aS'-2.019E-11'
p2745
aS'16.55\n'
p2746
aa(lp2747
S'20'
p2748
aS'1.969E-07'
p2749
aS'8.080E-09'
p2750
aS'-24.660283'
p2751
aS'-4.796E-12'
p2752
aS'16.15\n'
p2753
aa(lp2754
S'21'
p2755
aS'5.186E-08'
p2756
aS'4.561E-09'
p2757
aS'-24.660283'
p2758
aS'-6.732E-12'
p2759
aS'15.03\n'
p2760
aasS'ESR'
p2761
F0.00944265
sS'ELECTROSTATIC ENERGY'
p2762
F-15.40483176
sS'EXCHANGE-CORRELATION ENERGY'
p2763
F-4.84836857
sS'LOCAL PSEUDOPOTENTIAL ENERGY'
p2764
F-23.95084804
sS'ESELF'
p2765
F16.62259502
sS'GRADIENT CORRECTION ENERGY'
p2766
F-0.14703561
sS'KINETIC ENERGY'
p2767
F17.21600484
sS'TOTAL ENERGY'
p2768
F-23.94433376
sS'N-L PSEUDOPOTENTIAL ENERGY'
p2769
F3.04370977
ssg182
Fnan
sg183
g3
(g184
g5
Ntp2770
Rp2771
(dp2772
g188
I00
sg189
g190
(g191
g2771
g184
tp2773
Rp2774
sg194
I00
sg195
S'GEOMETRY FILE / created by CPMD\n'
p2775
sg197
g190
(g198
g2771
g184
tp2776
Rp2777
sg201
(dp2778
sg203
I0
sg204
I00
sg205
(lp2779
sg207
I00
sg208
I0
sg209
(lp2780
g10
ag10
asg211
(dp2781
sg213
I2
sg214
(lp2782
g216
ag217
asg218
g219
(g220
(I0
tp2783
g222
tp2784
Rp2785
(I1
(I2
I3
tp2786
g229
I00
S'\x01\xf8d\r\x00\x00\x14@\x01\xf8d\r\x00\x00\x14@\x01\xf8d\r\x00\x00\x14@\x9b\x01\xbc?33\x1b@\x01\xf8d\r\x00\x00\x14@\x01\xf8d\r\x00\x00\x14@'
p2787
tp2788
bsg234
I00
sg235
g219
(g220
(I0
tp2789
g222
tp2790
Rp2791
(I1
(I2
tp2792
g229
I00
S'\x00\x00\x00\x00\x00\x00\xf0?\x00\x00\x00\x00\x00\x00"@'
p2793
tp2794
bsg242
I00
sg11
S'H1F1'
p2795
sg244
I1
sg245
I00
sg246
g219
(g220
(I0
tp2796
g222
tp2797
Rp2798
(I1
(I1
I0
tp2799
g229
I00
g10
tp2800
bsbsg252
(dp2801
g254
(lp2802
I0
aI0
aI0
asg256
(lp2803
F0.75
aF0.75
aI0
asg258
(lp2804
F0.5
aF0.5
aF0.5
asg260
(lp2805
F0.1
aF0.25
aF0.25
asg262
(lp2806
I1
aF0.25
aI0
asg264
(lp2807
I1
aI0
aI0
assg266
S'hf_ref18'
p2808
sg268
S'.out'
p2809
sg270
S'/home/samio/project/a02_alchemy_diatomic/reproduce/production_shifted_refs/hf_ref18'
p2810
sg272
F-24.66028322
sg273
I21
sg274
g275
sbag3
(g4
g5
Ntp2811
Rp2812
(dp2813
g9
g10
sg11
S'hf_ref19.out'
p2814
sg13
(dp2815
sg15
(dp2816
g17
(lp2817
(lp2818
g20
aS'2.659E-02'
p2819
aS'3.234E-03'
p2820
aS'-23.892013'
p2821
aS'0.000E+00'
p2822
aS'16.27\n'
p2823
aa(lp2824
g27
aS'3.223E-02'
p2825
aS'1.349E-03'
p2826
aS'-24.398190'
p2827
aS'-5.062E-01'
p2828
aS'16.48\n'
p2829
aa(lp2830
g34
aS'1.583E-02'
p2831
aS'9.434E-04'
p2832
aS'-24.523035'
p2833
aS'-1.248E-01'
p2834
aS'16.41\n'
p2835
aa(lp2836
g41
aS'1.452E-02'
p2837
aS'6.306E-04'
p2838
aS'-24.584884'
p2839
aS'-6.185E-02'
p2840
aS'16.36\n'
p2841
aa(lp2842
g48
aS'7.964E-03'
p2843
aS'3.809E-04'
p2844
aS'-24.620590'
p2845
aS'-3.571E-02'
p2846
aS'16.57\n'
p2847
aa(lp2848
g55
aS'4.077E-03'
p2849
aS'2.163E-04'
p2850
aS'-24.639965'
p2851
aS'-1.937E-02'
p2852
aS'16.50\n'
p2853
aa(lp2854
g62
aS'2.173E-03'
p2855
aS'1.311E-04'
p2856
aS'-24.643967'
p2857
aS'-4.002E-03'
p2858
aS'16.51\n'
p2859
aa(lp2860
g69
aS'1.372E-03'
p2861
aS'7.232E-05'
p2862
aS'-24.645019'
p2863
aS'-1.053E-03'
p2864
aS'16.60\n'
p2865
aa(lp2866
g76
aS'6.022E-04'
p2867
aS'3.416E-05'
p2868
aS'-24.645449'
p2869
aS'-4.292E-04'
p2870
aS'16.63\n'
p2871
aa(lp2872
S'10'
p2873
aS'2.839E-04'
p2874
aS'1.539E-05'
p2875
aS'-24.645539'
p2876
aS'-9.048E-05'
p2877
aS'16.66\n'
p2878
aa(lp2879
S'11'
p2880
aS'1.090E-04'
p2881
aS'6.478E-06'
p2882
aS'-24.645553'
p2883
aS'-1.367E-05'
p2884
aS'16.66\n'
p2885
aa(lp2886
S'12'
p2887
aS'4.426E-05'
p2888
aS'2.288E-06'
p2889
aS'-24.645555'
p2890
aS'-2.106E-06'
p2891
aS'16.67\n'
p2892
aa(lp2893
S'13'
p2894
aS'2.032E-05'
p2895
aS'1.089E-06'
p2896
aS'-24.645555'
p2897
aS'-2.361E-07'
p2898
aS'16.69\n'
p2899
aa(lp2900
S'14'
p2901
aS'1.018E-05'
p2902
aS'5.562E-07'
p2903
aS'-24.645555'
p2904
aS'-4.852E-08'
p2905
aS'16.68\n'
p2906
aa(lp2907
S'15'
p2908
aS'3.192E-06'
p2909
aS'2.664E-07'
p2910
aS'-24.645555'
p2911
aS'-1.268E-08'
p2912
aS'16.67\n'
p2913
aa(lp2914
S'16'
p2915
aS'1.513E-06'
p2916
aS'1.345E-07'
p2917
aS'-24.645555'
p2918
aS'-2.593E-09'
p2919
aS'16.66\n'
p2920
aa(lp2921
S'17'
p2922
aS'7.728E-07'
p2923
aS'4.407E-08'
p2924
aS'-24.645555'
p2925
aS'-7.574E-10'
p2926
aS'16.65\n'
p2927
aa(lp2928
S'18'
p2929
aS'3.610E-07'
p2930
aS'2.178E-08'
p2931
aS'-24.645555'
p2932
aS'-1.002E-10'
p2933
aS'16.68\n'
p2934
aa(lp2935
S'19'
p2936
aS'2.200E-07'
p2937
aS'1.204E-08'
p2938
aS'-24.645555'
p2939
aS'-2.400E-11'
p2940
aS'16.70\n'
p2941
aa(lp2942
S'20'
p2943
aS'2.032E-07'
p2944
aS'7.947E-09'
p2945
aS'-24.645555'
p2946
aS'-1.041E-12'
p2947
aS'16.10\n'
p2948
aa(lp2949
S'21'
p2950
aS'6.480E-08'
p2951
aS'4.526E-09'
p2952
aS'-24.645555'
p2953
aS'-4.228E-12'
p2954
aS'15.44\n'
p2955
aasS'ESR'
p2956
F0.00540226
sS'ELECTROSTATIC ENERGY'
p2957
F-15.44053908
sS'EXCHANGE-CORRELATION ENERGY'
p2958
F-4.81660727
sS'LOCAL PSEUDOPOTENTIAL ENERGY'
p2959
F-23.72383591
sS'ESELF'
p2960
F16.62259502
sS'GRADIENT CORRECTION ENERGY'
p2961
F-0.14869842
sS'KINETIC ENERGY'
p2962
F17.04546647
sS'TOTAL ENERGY'
p2963
F-23.89201273
sS'N-L PSEUDOPOTENTIAL ENERGY'
p2964
F3.04350305
ssg182
Fnan
sg183
g3
(g184
g5
Ntp2965
Rp2966
(dp2967
g188
I00
sg189
g190
(g191
g2966
g184
tp2968
Rp2969
sg194
I00
sg195
S'GEOMETRY FILE / created by CPMD\n'
p2970
sg197
g190
(g198
g2966
g184
tp2971
Rp2972
sg201
(dp2973
sg203
I0
sg204
I00
sg205
(lp2974
sg207
I00
sg208
I0
sg209
(lp2975
g10
ag10
asg211
(dp2976
sg213
I2
sg214
(lp2977
g216
ag217
asg218
g219
(g220
(I0
tp2978
g222
tp2979
Rp2980
(I1
(I2
I3
tp2981
g229
I00
S'\x01\xf8d\r\x00\x00\x14@\x01\xf8d\r\x00\x00\x14@\x01\xf8d\r\x00\x00\x14@\xd1qb\x90\x99\x99\x1b@\x01\xf8d\r\x00\x00\x14@\x01\xf8d\r\x00\x00\x14@'
p2982
tp2983
bsg234
I00
sg235
g219
(g220
(I0
tp2984
g222
tp2985
Rp2986
(I1
(I2
tp2987
g229
I00
S'\x00\x00\x00\x00\x00\x00\xf0?\x00\x00\x00\x00\x00\x00"@'
p2988
tp2989
bsg242
I00
sg11
S'H1F1'
p2990
sg244
I1
sg245
I00
sg246
g219
(g220
(I0
tp2991
g222
tp2992
Rp2993
(I1
(I1
I0
tp2994
g229
I00
g10
tp2995
bsbsg252
(dp2996
g254
(lp2997
I0
aI0
aI0
asg256
(lp2998
F0.75
aF0.75
aI0
asg258
(lp2999
F0.5
aF0.5
aF0.5
asg260
(lp3000
F0.1
aF0.25
aF0.25
asg262
(lp3001
I1
aF0.25
aI0
asg264
(lp3002
I1
aI0
aI0
assg266
S'hf_ref19'
p3003
sg268
S'.out'
p3004
sg270
S'/home/samio/project/a02_alchemy_diatomic/reproduce/production_shifted_refs/hf_ref19'
p3005
sg272
F-24.64555507
sg273
I21
sg274
g275
sbag3
(g4
g5
Ntp3006
Rp3007
(dp3008
g9
g10
sg11
S'hf_ref20.out'
p3009
sg13
(dp3010
sg15
(dp3011
g17
(lp3012
(lp3013
g20
aS'2.801E-02'
p3014
aS'3.233E-03'
p3015
aS'-23.836851'
p3016
aS'0.000E+00'
p3017
aS'16.71\n'
p3018
aa(lp3019
g27
aS'2.245E-02'
p3020
aS'1.345E-03'
p3021
aS'-24.360940'
p3022
aS'-5.241E-01'
p3023
aS'16.87\n'
p3024
aa(lp3025
g34
aS'1.761E-02'
p3026
aS'9.540E-04'
p3027
aS'-24.485104'
p3028
aS'-1.242E-01'
p3029
aS'16.46\n'
p3030
aa(lp3031
g41
aS'1.750E-02'
p3032
aS'6.716E-04'
p3033
aS'-24.551629'
p3034
aS'-6.652E-02'
p3035
aS'16.37\n'
p3036
aa(lp3037
g48
aS'1.163E-02'
p3038
aS'4.542E-04'
p3039
aS'-24.593292'
p3040
aS'-4.166E-02'
p3041
aS'16.49\n'
p3042
aa(lp3043
g55
aS'4.697E-03'
p3044
aS'2.594E-04'
p3045
aS'-24.623510'
p3046
aS'-3.022E-02'
p3047
aS'16.54\n'
p3048
aa(lp3049
g62
aS'2.632E-03'
p3050
aS'1.534E-04'
p3051
aS'-24.630312'
p3052
aS'-6.802E-03'
p3053
aS'16.50\n'
p3054
aa(lp3055
g69
aS'1.582E-03'
p3056
aS'8.595E-05'
p3057
aS'-24.631700'
p3058
aS'-1.388E-03'
p3059
aS'16.64\n'
p3060
aa(lp3061
g76
aS'6.941E-04'
p3062
aS'4.165E-05'
p3063
aS'-24.632299'
p3064
aS'-5.994E-04'
p3065
aS'16.62\n'
p3066
aa(lp3067
S'10'
p3068
aS'3.038E-04'
p3069
aS'1.848E-05'
p3070
aS'-24.632453'
p3071
aS'-1.536E-04'
p3072
aS'16.64\n'
p3073
aa(lp3074
S'11'
p3075
aS'1.338E-04'
p3076
aS'7.556E-06'
p3077
aS'-24.632478'
p3078
aS'-2.532E-05'
p3079
aS'16.67\n'
p3080
aa(lp3081
S'12'
p3082
aS'5.048E-05'
p3083
aS'2.805E-06'
p3084
aS'-24.632482'
p3085
aS'-3.818E-06'
p3086
aS'16.62\n'
p3087
aa(lp3088
S'13'
p3089
aS'2.635E-05'
p3090
aS'1.336E-06'
p3091
aS'-24.632482'
p3092
aS'-3.911E-07'
p3093
aS'16.64\n'
p3094
aa(lp3095
S'14'
p3096
aS'1.310E-05'
p3097
aS'7.666E-07'
p3098
aS'-24.632482'
p3099
aS'-7.998E-08'
p3100
aS'16.66\n'
p3101
aa(lp3102
S'15'
p3103
aS'3.812E-06'
p3104
aS'3.615E-07'
p3105
aS'-24.632482'
p3106
aS'-2.257E-08'
p3107
aS'16.65\n'
p3108
aa(lp3109
S'16'
p3110
aS'2.125E-06'
p3111
aS'1.812E-07'
p3112
aS'-24.632482'
p3113
aS'-4.438E-09'
p3114
aS'16.63\n'
p3115
aa(lp3116
S'17'
p3117
aS'1.166E-06'
p3118
aS'5.831E-08'
p3119
aS'-24.632482'
p3120
aS'-1.216E-09'
p3121
aS'16.61\n'
p3122
aa(lp3123
S'18'
p3124
aS'6.599E-07'
p3125
aS'2.276E-08'
p3126
aS'-24.632482'
p3127
aS'-1.517E-10'
p3128
aS'16.60\n'
p3129
aa(lp3130
S'19'
p3131
aS'3.429E-07'
p3132
aS'1.198E-08'
p3133
aS'-24.632482'
p3134
aS'-2.927E-11'
p3135
aS'16.48\n'
p3136
aa(lp3137
S'20'
p3138
aS'2.414E-07'
p3139
aS'6.892E-09'
p3140
aS'-24.632482'
p3141
aS'-5.375E-12'
p3142
aS'15.84\n'
p3143
aa(lp3144
S'21'
p3145
aS'9.706E-08'
p3146
aS'4.763E-09'
p3147
aS'-24.632482'
p3148
aS'-1.243E-12'
p3149
aS'15.38\n'
p3150
aasS'ESR'
p3151
F0.00302869
sS'ELECTROSTATIC ENERGY'
p3152
F-15.46435129
sS'EXCHANGE-CORRELATION ENERGY'
p3153
F-4.78879738
sS'LOCAL PSEUDOPOTENTIAL ENERGY'
p3154
F-23.51353532
sS'ESELF'
p3155
F16.62259502
sS'GRADIENT CORRECTION ENERGY'
p3156
F-0.15031455
sS'KINETIC ENERGY'
p3157
F16.8870526
sS'TOTAL ENERGY'
p3158
F-23.83685126
sS'N-L PSEUDOPOTENTIAL ENERGY'
p3159
F3.04278013
ssg182
Fnan
sg183
g3
(g184
g5
Ntp3160
Rp3161
(dp3162
g188
I00
sg189
g190
(g191
g3161
g184
tp3163
Rp3164
sg194
I00
sg195
S'GEOMETRY FILE / created by CPMD\n'
p3165
sg197
g190
(g198
g3161
g184
tp3166
Rp3167
sg201
(dp3168
sg203
I0
sg204
I00
sg205
(lp3169
sg207
I00
sg208
I0
sg209
(lp3170
g10
ag10
asg211
(dp3171
sg213
I2
sg214
(lp3172
g216
ag217
asg218
g219
(g220
(I0
tp3173
g222
tp3174
Rp3175
(I1
(I2
I3
tp3176
g229
I00
S'\x01\xf8d\r\x00\x00\x14@\x01\xf8d\r\x00\x00\x14@\x01\xf8d\r\x00\x00\x14@\x02\x14\x8c\x04\x00\x00\x1c@\x01\xf8d\r\x00\x00\x14@\x01\xf8d\r\x00\x00\x14@'
p3177
tp3178
bsg234
I00
sg235
g219
(g220
(I0
tp3179
g222
tp3180
Rp3181
(I1
(I2
tp3182
g229
I00
S'\x00\x00\x00\x00\x00\x00\xf0?\x00\x00\x00\x00\x00\x00"@'
p3183
tp3184
bsg242
I00
sg11
S'H1F1'
p3185
sg244
I1
sg245
I00
sg246
g219
(g220
(I0
tp3186
g222
tp3187
Rp3188
(I1
(I1
I0
tp3189
g229
I00
g10
tp3190
bsbsg252
(dp3191
g254
(lp3192
I0
aI0
aI0
asg256
(lp3193
F0.75
aF0.75
aI0
asg258
(lp3194
F0.5
aF0.5
aF0.5
asg260
(lp3195
F0.1
aF0.25
aF0.25
asg262
(lp3196
I1
aF0.25
aI0
asg264
(lp3197
I1
aI0
aI0
assg266
S'hf_ref20'
p3198
sg268
S'.out'
p3199
sg270
S'/home/samio/project/a02_alchemy_diatomic/reproduce/production_shifted_refs/hf_ref20'
p3200
sg272
F-24.63248224
sg273
I21
sg274
g275
sbag3
(g4
g5
Ntp3201
Rp3202
(dp3203
g9
g10
sg11
S'hf_ref21.out'
p3204
sg13
(dp3205
sg15
(dp3206
g17
(lp3207
(lp3208
g20
aS'2.856E-02'
p3209
aS'3.231E-03'
p3210
aS'-23.781035'
p3211
aS'0.000E+00'
p3212
aS'16.73\n'
p3213
aa(lp3214
g27
aS'2.160E-02'
p3215
aS'1.340E-03'
p3216
aS'-24.318333'
p3217
aS'-5.373E-01'
p3218
aS'16.34\n'
p3219
aa(lp3220
g34
aS'1.907E-02'
p3221
aS'9.627E-04'
p3222
aS'-24.443140'
p3223
aS'-1.248E-01'
p3224
aS'16.36\n'
p3225
aa(lp3226
g41
aS'2.039E-02'
p3227
aS'7.071E-04'
p3228
aS'-24.514331'
p3229
aS'-7.119E-02'
p3230
aS'16.48\n'
p3231
aa(lp3232
g48
aS'1.558E-02'
p3233
aS'5.310E-04'
p3234
aS'-24.559964'
p3235
aS'-4.563E-02'
p3236
aS'16.48\n'
p3237
aa(lp3238
g55
aS'5.629E-03'
p3239
aS'3.277E-04'
p3240
aS'-24.604372'
p3241
aS'-4.441E-02'
p3242
aS'16.48\n'
p3243
aa(lp3244
g62
aS'2.906E-03'
p3245
aS'1.890E-04'
p3246
aS'-24.617836'
p3247
aS'-1.346E-02'
p3248
aS'16.62\n'
p3249
aa(lp3250
g69
aS'1.657E-03'
p3251
aS'1.058E-04'
p3252
aS'-24.619786'
p3253
aS'-1.950E-03'
p3254
aS'16.63\n'
p3255
aa(lp3256
g76
aS'9.845E-04'
p3257
aS'5.384E-05'
p3258
aS'-24.620577'
p3259
aS'-7.908E-04'
p3260
aS'16.65\n'
p3261
aa(lp3262
S'10'
p3263
aS'4.070E-04'
p3264
aS'2.406E-05'
p3265
aS'-24.620861'
p3266
aS'-2.842E-04'
p3267
aS'16.70\n'
p3268
aa(lp3269
S'11'
p3270
aS'2.370E-04'
p3271
aS'9.722E-06'
p3272
aS'-24.620917'
p3273
aS'-5.559E-05'
p3274
aS'16.65\n'
p3275
aa(lp3276
S'12'
p3277
aS'9.788E-05'
p3278
aS'4.066E-06'
p3279
aS'-24.620924'
p3280
aS'-7.898E-06'
p3281
aS'16.64\n'
p3282
aa(lp3283
S'13'
p3284
aS'4.175E-05'
p3285
aS'1.839E-06'
p3286
aS'-24.620926'
p3287
aS'-1.016E-06'
p3288
aS'16.68\n'
p3289
aa(lp3290
S'14'
p3291
aS'2.225E-05'
p3292
aS'1.055E-06'
p3293
aS'-24.620926'
p3294
aS'-1.975E-07'
p3295
aS'16.69\n'
p3296
aa(lp3297
S'15'
p3298
aS'6.911E-06'
p3299
aS'5.266E-07'
p3300
aS'-24.620926'
p3301
aS'-4.954E-08'
p3302
aS'16.63\n'
p3303
aa(lp3304
S'16'
p3305
aS'3.135E-06'
p3306
aS'2.477E-07'
p3307
aS'-24.620926'
p3308
aS'-9.239E-09'
p3309
aS'16.63\n'
p3310
aa(lp3311
S'17'
p3312
aS'1.277E-06'
p3313
aS'1.095E-07'
p3314
aS'-24.620926'
p3315
aS'-2.057E-09'
p3316
aS'16.65\n'
p3317
aa(lp3318
S'18'
p3319
aS'6.831E-07'
p3320
aS'3.146E-08'
p3321
aS'-24.620926'
p3322
aS'-4.415E-10'
p3323
aS'17.87\n'
p3324
aa(lp3325
S'19'
p3326
aS'2.649E-07'
p3327
aS'1.462E-08'
p3328
aS'-24.620926'
p3329
aS'-5.049E-11'
p3330
aS'16.24\n'
p3331
aa(lp3332
S'20'
p3333
aS'1.595E-07'
p3334
aS'7.209E-09'
p3335
aS'-24.620926'
p3336
aS'-1.377E-11'
p3337
aS'17.52\n'
p3338
aa(lp3339
S'21'
p3340
aS'7.578E-08'
p3341
aS'4.662E-09'
p3342
aS'-24.620926'
p3343
aS'-1.094E-12'
p3344
aS'14.70\n'
p3345
aasS'ESR'
p3346
F0.00166327
sS'ELECTROSTATIC ENERGY'
p3347
F-15.4778024
sS'EXCHANGE-CORRELATION ENERGY'
p3348
F-4.76502465
sS'LOCAL PSEUDOPOTENTIAL ENERGY'
p3349
F-23.32374001
sS'ESELF'
p3350
F16.62259502
sS'GRADIENT CORRECTION ENERGY'
p3351
F-0.15183492
sS'KINETIC ENERGY'
p3352
F16.74370357
sS'TOTAL ENERGY'
p3353
F-23.78103526
sS'N-L PSEUDOPOTENTIAL ENERGY'
p3354
F3.04182823
ssg182
Fnan
sg183
g3
(g184
g5
Ntp3355
Rp3356
(dp3357
g188
I00
sg189
g190
(g191
g3356
g184
tp3358
Rp3359
sg194
I00
sg195
S'GEOMETRY FILE / created by CPMD\n'
p3360
sg197
g190
(g198
g3356
g184
tp3361
Rp3362
sg201
(dp3363
sg203
I0
sg204
I00
sg205
(lp3364
sg207
I00
sg208
I0
sg209
(lp3365
g10
ag10
asg211
(dp3366
sg213
I2
sg214
(lp3367
g216
ag217
asg218
g219
(g220
(I0
tp3368
g222
tp3369
Rp3370
(I1
(I2
I3
tp3371
g229
I00
S'\x01\xf8d\r\x00\x00\x14@\x01\xf8d\r\x00\x00\x14@\x01\xf8d\r\x00\x00\x14@7\x842Uff\x1c@\x01\xf8d\r\x00\x00\x14@\x01\xf8d\r\x00\x00\x14@'
p3372
tp3373
bsg234
I00
sg235
g219
(g220
(I0
tp3374
g222
tp3375
Rp3376
(I1
(I2
tp3377
g229
I00
S'\x00\x00\x00\x00\x00\x00\xf0?\x00\x00\x00\x00\x00\x00"@'
p3378
tp3379
bsg242
I00
sg11
S'H1F1'
p3380
sg244
I1
sg245
I00
sg246
g219
(g220
(I0
tp3381
g222
tp3382
Rp3383
(I1
(I1
I0
tp3384
g229
I00
g10
tp3385
bsbsg252
(dp3386
g254
(lp3387
I0
aI0
aI0
asg256
(lp3388
F0.75
aF0.75
aI0
asg258
(lp3389
F0.5
aF0.5
aF0.5
asg260
(lp3390
F0.1
aF0.25
aF0.25
asg262
(lp3391
I1
aF0.25
aI0
asg264
(lp3392
I1
aI0
aI0
assg266
S'hf_ref21'
p3393
sg268
S'.out'
p3394
sg270
S'/home/samio/project/a02_alchemy_diatomic/reproduce/production_shifted_refs/hf_ref21'
p3395
sg272
F-24.62092577
sg273
I21
sg274
g275
sbag3
(g4
g5
Ntp3396
Rp3397
(dp3398
g9
g10
sg11
S'hf_ref22.out'
p3399
sg13
(dp3400
sg15
(dp3401
g17
(lp3402
(lp3403
g20
aS'2.821E-02'
p3404
aS'3.228E-03'
p3405
aS'-23.726880'
p3406
aS'0.000E+00'
p3407
aS'16.77\n'
p3408
aa(lp3409
g27
aS'2.102E-02'
p3410
aS'1.333E-03'
p3411
aS'-24.272195'
p3412
aS'-5.453E-01'
p3413
aS'16.38\n'
p3414
aa(lp3415
g34
aS'1.971E-02'
p3416
aS'9.678E-04'
p3417
aS'-24.397783'
p3418
aS'-1.256E-01'
p3419
aS'16.45\n'
p3420
aa(lp3421
g41
aS'2.289E-02'
p3422
aS'7.347E-04'
p3423
aS'-24.473401'
p3424
aS'-7.562E-02'
p3425
aS'16.52\n'
p3426
aa(lp3427
g48
aS'1.946E-02'
p3428
aS'5.967E-04'
p3429
aS'-24.521049'
p3430
aS'-4.765E-02'
p3431
aS'16.52\n'
p3432
aa(lp3433
g55
aS'9.473E-03'
p3434
aS'4.217E-04'
p3435
aS'-24.577215'
p3436
aS'-5.617E-02'
p3437
aS'16.56\n'
p3438
aa(lp3439
g62
aS'4.038E-03'
p3440
aS'2.454E-04'
p3441
aS'-24.605755'
p3442
aS'-2.854E-02'
p3443
aS'16.66\n'
p3444
aa(lp3445
g69
aS'2.346E-03'
p3446
aS'1.331E-04'
p3447
aS'-24.609095'
p3448
aS'-3.339E-03'
p3449
aS'16.65\n'
p3450
aa(lp3451
g76
aS'1.304E-03'
p3452
aS'7.396E-05'
p3453
aS'-24.610005'
p3454
aS'-9.100E-04'
p3455
aS'16.67\n'
p3456
aa(lp3457
S'10'
p3458
aS'4.503E-04'
p3459
aS'3.512E-05'
p3460
aS'-24.610570'
p3461
aS'-5.652E-04'
p3462
aS'16.71\n'
p3463
aa(lp3464
S'11'
p3465
aS'2.664E-04'
p3466
aS'1.454E-05'
p3467
aS'-24.610729'
p3468
aS'-1.591E-04'
p3469
aS'16.71\n'
p3470
aa(lp3471
S'12'
p3472
aS'2.424E-04'
p3473
aS'6.716E-06'
p3474
aS'-24.610748'
p3475
aS'-1.926E-05'
p3476
aS'16.72\n'
p3477
aa(lp3478
S'13'
p3479
aS'6.767E-05'
p3480
aS'2.902E-06'
p3481
aS'-24.610753'
p3482
aS'-4.448E-06'
p3483
aS'16.75\n'
p3484
aa(lp3485
S'14'
p3486
aS'3.852E-05'
p3487
aS'1.437E-06'
p3488
aS'-24.610753'
p3489
aS'-6.838E-07'
p3490
aS'16.75\n'
p3491
aa(lp3492
S'15'
p3493
aS'1.217E-05'
p3494
aS'8.150E-07'
p3495
aS'-24.610753'
p3496
aS'-1.621E-07'
p3497
aS'16.70\n'
p3498
aa(lp3499
S'16'
p3500
aS'6.609E-06'
p3501
aS'3.955E-07'
p3502
aS'-24.610753'
p3503
aS'-2.189E-08'
p3504
aS'16.71\n'
p3505
aa(lp3506
S'17'
p3507
aS'2.844E-06'
p3508
aS'1.982E-07'
p3509
aS'-24.610753'
p3510
aS'-5.164E-09'
p3511
aS'16.71\n'
p3512
aa(lp3513
S'18'
p3514
aS'1.429E-06'
p3515
aS'6.825E-08'
p3516
aS'-24.610753'
p3517
aS'-1.269E-09'
p3518
aS'16.57\n'
p3519
aa(lp3520
S'19'
p3521
aS'5.405E-07'
p3522
aS'2.003E-08'
p3523
aS'-24.610753'
p3524
aS'-1.924E-10'
p3525
aS'16.02\n'
p3526
aa(lp3527
S'20'
p3528
aS'2.314E-07'
p3529
aS'1.059E-08'
p3530
aS'-24.610753'
p3531
aS'-1.743E-11'
p3532
aS'15.23\n'
p3533
aa(lp3534
S'21'
p3535
aS'9.864E-08'
p3536
aS'4.705E-09'
p3537
aS'-24.610753'
p3538
aS'-7.386E-12'
p3539
aS'14.60\n'
p3540
aasS'ESR'
p3541
F0.00089444
sS'ELECTROSTATIC ENERGY'
p3542
F-15.48283804
sS'EXCHANGE-CORRELATION ENERGY'
p3543
F-4.74522434
sS'LOCAL PSEUDOPOTENTIAL ENERGY'
p3544
F-23.15750434
sS'ESELF'
p3545
F16.62259502
sS'GRADIENT CORRECTION ENERGY'
p3546
F-0.1532157
sS'KINETIC ENERGY'
p3547
F16.61785427
sS'TOTAL ENERGY'
p3548
F-23.72688022
sS'N-L PSEUDOPOTENTIAL ENERGY'
p3549
F3.04083224
ssg182
Fnan
sg183
g3
(g184
g5
Ntp3550
Rp3551
(dp3552
g188
I00
sg189
g190
(g191
g3551
g184
tp3553
Rp3554
sg194
I00
sg195
S'GEOMETRY FILE / created by CPMD\n'
p3555
sg197
g190
(g198
g3551
g184
tp3556
Rp3557
sg201
(dp3558
sg203
I0
sg204
I00
sg205
(lp3559
sg207
I00
sg208
I0
sg209
(lp3560
g10
ag10
asg211
(dp3561
sg213
I2
sg214
(lp3562
g216
ag217
asg218
g219
(g220
(I0
tp3563
g222
tp3564
Rp3565
(I1
(I2
I3
tp3566
g229
I00
S'\x01\xf8d\r\x00\x00\x14@\x01\xf8d\r\x00\x00\x14@\x01\xf8d\r\x00\x00\x14@j&\\\xc9\xcc\xcc\x1c@\x01\xf8d\r\x00\x00\x14@\x01\xf8d\r\x00\x00\x14@'
p3567
tp3568
bsg234
I00
sg235
g219
(g220
(I0
tp3569
g222
tp3570
Rp3571
(I1
(I2
tp3572
g229
I00
S'\x00\x00\x00\x00\x00\x00\xf0?\x00\x00\x00\x00\x00\x00"@'
p3573
tp3574
bsg242
I00
sg11
S'H1F1'
p3575
sg244
I1
sg245
I00
sg246
g219
(g220
(I0
tp3576
g222
tp3577
Rp3578
(I1
(I1
I0
tp3579
g229
I00
g10
tp3580
bsbsg252
(dp3581
g254
(lp3582
I0
aI0
aI0
asg256
(lp3583
F0.75
aF0.75
aI0
asg258
(lp3584
F0.5
aF0.5
aF0.5
asg260
(lp3585
F0.1
aF0.25
aF0.25
asg262
(lp3586
I1
aF0.25
aI0
asg264
(lp3587
I1
aI0
aI0
assg266
S'hf_ref22'
p3588
sg268
S'.out'
p3589
sg270
S'/home/samio/project/a02_alchemy_diatomic/reproduce/production_shifted_refs/hf_ref22'
p3590
sg272
F-24.61075344
sg273
I21
sg274
g275
sbag3
(g4
g5
Ntp3591
Rp3592
(dp3593
g9
g10
sg11
S'hf_ref23.out'
p3594
sg13
(dp3595
sg15
(dp3596
g17
(lp3597
(lp3598
g20
aS'2.706E-02'
p3599
aS'3.224E-03'
p3600
aS'-23.676517'
p3601
aS'0.000E+00'
p3602
aS'16.94\n'
p3603
aa(lp3604
g27
aS'2.032E-02'
p3605
aS'1.323E-03'
p3606
aS'-24.223655'
p3607
aS'-5.471E-01'
p3608
aS'16.34\n'
p3609
aa(lp3610
g34
aS'1.934E-02'
p3611
aS'9.682E-04'
p3612
aS'-24.349844'
p3613
aS'-1.262E-01'
p3614
aS'16.31\n'
p3615
aa(lp3616
g41
aS'2.465E-02'
p3617
aS'7.505E-04'
p3618
aS'-24.429389'
p3619
aS'-7.955E-02'
p3620
aS'16.34\n'
p3621
aa(lp3622
g48
aS'2.262E-02'
p3623
aS'6.430E-04'
p3624
aS'-24.478889'
p3625
aS'-4.950E-02'
p3626
aS'16.45\n'
p3627
aa(lp3628
g55
aS'1.502E-02'
p3629
aS'5.116E-04'
p3630
aS'-24.542008'
p3631
aS'-6.312E-02'
p3632
aS'16.53\n'
p3633
aa(lp3634
g62
aS'6.624E-03'
p3635
aS'3.222E-04'
p3636
aS'-24.592530'
p3637
aS'-5.052E-02'
p3638
aS'16.53\n'
p3639
aa(lp3640
g69
aS'4.622E-03'
p3641
aS'1.683E-04'
p3642
aS'-24.599395'
p3643
aS'-6.865E-03'
p3644
aS'16.48\n'
p3645
aa(lp3646
g76
aS'2.817E-03'
p3647
aS'1.035E-04'
p3648
aS'-24.600268'
p3649
aS'-8.723E-04'
p3650
aS'16.54\n'
p3651
aa(lp3652
S'10'
p3653
aS'1.195E-03'
p3654
aS'5.428E-05'
p3655
aS'-24.601286'
p3656
aS'-1.018E-03'
p3657
aS'16.57\n'
p3658
aa(lp3659
S'11'
p3660
aS'5.117E-04'
p3661
aS'2.418E-05'
p3662
aS'-24.601776'
p3663
aS'-4.898E-04'
p3664
aS'16.60\n'
p3665
aa(lp3666
S'12'
p3667
aS'5.436E-04'
p3668
aS'1.240E-05'
p3669
aS'-24.601830'
p3670
aS'-5.420E-05'
p3671
aS'16.60\n'
p3672
aa(lp3673
S'13'
p3674
aS'2.022E-04'
p3675
aS'5.311E-06'
p3676
aS'-24.601853'
p3677
aS'-2.268E-05'
p3678
aS'16.62\n'
p3679
aa(lp3680
S'14'
p3681
aS'9.321E-05'
p3682
aS'2.225E-06'
p3683
aS'-24.601856'
p3684
aS'-2.987E-06'
p3685
aS'16.59\n'
p3686
aa(lp3687
S'15'
p3688
aS'2.929E-05'
p3689
aS'1.300E-06'
p3690
aS'-24.601856'
p3691
aS'-6.373E-07'
p3692
aS'16.60\n'
p3693
aa(lp3694
S'16'
p3695
aS'1.302E-05'
p3696
aS'6.910E-07'
p3697
aS'-24.601856'
p3698
aS'-8.120E-08'
p3699
aS'16.63\n'
p3700
aa(lp3701
S'17'
p3702
aS'4.824E-06'
p3703
aS'3.564E-07'
p3704
aS'-24.601856'
p3705
aS'-1.535E-08'
p3706
aS'16.35\n'
p3707
aa(lp3708
S'18'
p3709
aS'2.284E-06'
p3710
aS'1.657E-07'
p3711
aS'-24.601856'
p3712
aS'-3.934E-09'
p3713
aS'15.44\n'
p3714
aa(lp3715
S'19'
p3716
aS'1.884E-06'
p3717
aS'7.822E-08'
p3718
aS'-24.601856'
p3719
aS'-8.437E-10'
p3720
aS'14.55\n'
p3721
aa(lp3722
S'20'
p3723
aS'1.089E-06'
p3724
aS'3.131E-08'
p3725
aS'-24.601856'
p3726
aS'-2.510E-10'
p3727
aS'14.52\n'
p3728
aa(lp3729
S'21'
p3730
aS'6.501E-07'
p3731
aS'1.713E-08'
p3732
aS'-24.601856'
p3733
aS'-3.171E-11'
p3734
aS'14.68\n'
p3735
aa(lp3736
S'22'
p3737
aS'9.908E-08'
p3738
aS'3.920E-09'
p3739
aS'-24.601856'
p3740
aS'-1.861E-11'
p3741
aS'15.32\n'
p3742
aasS'ESR'
p3743
F0.00047086
sS'ELECTROSTATIC ENERGY'
p3744
F-15.48160108
sS'EXCHANGE-CORRELATION ENERGY'
p3745
F-4.72918319
sS'LOCAL PSEUDOPOTENTIAL ENERGY'
p3746
F-23.01667838
sS'ESELF'
p3747
F16.62259502
sS'GRADIENT CORRECTION ENERGY'
p3748
F-0.15442225
sS'KINETIC ENERGY'
p3749
F16.51103867
sS'TOTAL ENERGY'
p3750
F-23.67651722
sS'N-L PSEUDOPOTENTIAL ENERGY'
p3751
F3.03990676
ssg182
Fnan
sg183
g3
(g184
g5
Ntp3752
Rp3753
(dp3754
g188
I00
sg189
g190
(g191
g3753
g184
tp3755
Rp3756
sg194
I00
sg195
S'GEOMETRY FILE / created by CPMD\n'
p3757
sg197
g190
(g198
g3753
g184
tp3758
Rp3759
sg201
(dp3760
sg203
I0
sg204
I00
sg205
(lp3761
sg207
I00
sg208
I0
sg209
(lp3762
g10
ag10
asg211
(dp3763
sg213
I2
sg214
(lp3764
g216
ag217
asg218
g219
(g220
(I0
tp3765
g222
tp3766
Rp3767
(I1
(I2
I3
tp3768
g229
I00
S'\x01\xf8d\r\x00\x00\x14@\x01\xf8d\r\x00\x00\x14@\x01\xf8d\r\x00\x00\x14@\x9b\xc8\x85=33\x1d@\x01\xf8d\r\x00\x00\x14@\x01\xf8d\r\x00\x00\x14@'
p3769
tp3770
bsg234
I00
sg235
g219
(g220
(I0
tp3771
g222
tp3772
Rp3773
(I1
(I2
tp3774
g229
I00
S'\x00\x00\x00\x00\x00\x00\xf0?\x00\x00\x00\x00\x00\x00"@'
p3775
tp3776
bsg242
I00
sg11
S'H1F1'
p3777
sg244
I1
sg245
I00
sg246
g219
(g220
(I0
tp3778
g222
tp3779
Rp3780
(I1
(I1
I0
tp3781
g229
I00
g10
tp3782
bsbsg252
(dp3783
g254
(lp3784
I0
aI0
aI0
asg256
(lp3785
F0.75
aF0.75
aI0
asg258
(lp3786
F0.5
aF0.5
aF0.5
asg260
(lp3787
F0.1
aF0.25
aF0.25
asg262
(lp3788
I1
aF0.25
aI0
asg264
(lp3789
I1
aI0
aI0
assg266
S'hf_ref23'
p3790
sg268
S'.out'
p3791
sg270
S'/home/samio/project/a02_alchemy_diatomic/reproduce/production_shifted_refs/hf_ref23'
p3792
sg272
F-24.60185634
sg273
I22
sg274
g275
sbaa(lp3793
g3
(g4
g5
Ntp3794
Rp3795
(dp3796
g9
g10
sg11
S'hcl_ref05.out'
p3797
sg13
(dp3798
sg15
(dp3799
g17
(lp3800
(lp3801
g20
aS'2.700E-02'
p3802
aS'1.754E-03'
p3803
aS'-12.721332'
p3804
aS'0.000E+00'
p3805
aS'19.39\n'
p3806
aa(lp3807
g27
aS'1.658E-02'
p3808
aS'8.661E-04'
p3809
aS'-13.149976'
p3810
aS'-4.286E-01'
p3811
aS'19.76\n'
p3812
aa(lp3813
g34
aS'1.906E-02'
p3814
aS'5.395E-04'
p3815
aS'-13.228505'
p3816
aS'-7.853E-02'
p3817
aS'19.68\n'
p3818
aa(lp3819
g41
aS'9.920E-03'
p3820
aS'3.312E-04'
p3821
aS'-13.260892'
p3822
aS'-3.239E-02'
p3823
aS'19.60\n'
p3824
aa(lp3825
g48
aS'6.817E-03'
p3826
aS'1.880E-04'
p3827
aS'-13.273573'
p3828
aS'-1.268E-02'
p3829
aS'19.55\n'
p3830
aa(lp3831
g55
aS'3.216E-03'
p3832
aS'1.179E-04'
p3833
aS'-13.277040'
p3834
aS'-3.466E-03'
p3835
aS'19.70\n'
p3836
aa(lp3837
g62
aS'2.079E-03'
p3838
aS'6.473E-05'
p3839
aS'-13.278726'
p3840
aS'-1.686E-03'
p3841
aS'20.18\n'
p3842
aa(lp3843
g69
aS'8.320E-04'
p3844
aS'3.101E-05'
p3845
aS'-13.279364'
p3846
aS'-6.386E-04'
p3847
aS'19.96\n'
p3848
aa(lp3849
g76
aS'3.658E-04'
p3850
aS'1.754E-05'
p3851
aS'-13.279504'
p3852
aS'-1.395E-04'
p3853
aS'20.38\n'
p3854
aa(lp3855
S'10'
p3856
aS'2.160E-04'
p3857
aS'1.115E-05'
p3858
aS'-13.279543'
p3859
aS'-3.919E-05'
p3860
aS'20.54\n'
p3861
aa(lp3862
S'11'
p3863
aS'1.140E-04'
p3864
aS'6.411E-06'
p3865
aS'-13.279564'
p3866
aS'-2.121E-05'
p3867
aS'20.45\n'
p3868
aa(lp3869
S'12'
p3870
aS'7.368E-05'
p3871
aS'3.666E-06'
p3872
aS'-13.279571'
p3873
aS'-7.090E-06'
p3874
aS'20.20\n'
p3875
aa(lp3876
S'13'
p3877
aS'4.632E-05'
p3878
aS'1.730E-06'
p3879
aS'-13.279573'
p3880
aS'-1.780E-06'
p3881
aS'20.49\n'
p3882
aa(lp3883
S'14'
p3884
aS'2.497E-05'
p3885
aS'1.001E-06'
p3886
aS'-13.279573'
p3887
aS'-3.340E-07'
p3888
aS'20.20\n'
p3889
aa(lp3890
S'15'
p3891
aS'9.104E-06'
p3892
aS'3.955E-07'
p3893
aS'-13.279573'
p3894
aS'-9.187E-08'
p3895
aS'20.75\n'
p3896
aa(lp3897
S'16'
p3898
aS'3.898E-06'
p3899
aS'1.726E-07'
p3900
aS'-13.279573'
p3901
aS'-1.281E-08'
p3902
aS'20.58\n'
p3903
aa(lp3904
S'17'
p3905
aS'8.593E-07'
p3906
aS'9.874E-08'
p3907
aS'-13.279573'
p3908
aS'-2.401E-09'
p3909
aS'20.93\n'
p3910
aa(lp3911
S'18'
p3912
aS'1.056E-06'
p3913
aS'4.811E-08'
p3914
aS'-13.279573'
p3915
aS'-1.103E-09'
p3916
aS'21.08\n'
p3917
aa(lp3918
S'19'
p3919
aS'1.823E-06'
p3920
aS'2.612E-08'
p3921
aS'-13.279573'
p3922
aS'-2.651E-10'
p3923
aS'20.22\n'
p3924
aa(lp3925
S'20'
p3926
aS'9.219E-07'
p3927
aS'1.491E-08'
p3928
aS'-13.279573'
p3929
aS'-7.512E-11'
p3930
aS'19.48\n'
p3931
aa(lp3932
S'21'
p3933
aS'1.877E-07'
p3934
aS'8.338E-09'
p3935
aS'-13.279573'
p3936
aS'-2.188E-11'
p3937
aS'18.46\n'
p3938
aa(lp3939
S'22'
p3940
aS'7.408E-08'
p3941
aS'4.535E-09'
p3942
aS'-13.279573'
p3943
aS'-6.430E-12'
p3944
aS'17.95\n'
p3945
aasS'ESR'
p3946
F3.19347022
sS'ELECTROSTATIC ENERGY'
p3947
F-12.73822344
sS'EXCHANGE-CORRELATION ENERGY'
p3948
F-3.49674992
sS'LOCAL PSEUDOPOTENTIAL ENERGY'
p3949
F-7.91509179
sS'ESELF'
p3950
F16.62259502
sS'GRADIENT CORRECTION ENERGY'
p3951
F-0.07661172
sS'KINETIC ENERGY'
p3952
F6.9228971
sS'TOTAL ENERGY'
p3953
F-12.72133178
sS'N-L PSEUDOPOTENTIAL ENERGY'
p3954
F4.50583627
ssg182
Fnan
sg183
g3
(g184
g5
Ntp3955
Rp3956
(dp3957
g188
I00
sg189
g190
(g191
g3956
g184
tp3958
Rp3959
sg194
I00
sg195
S'GEOMETRY FILE / created by CPMD\n'
p3960
sg197
g190
(g198
g3956
g184
tp3961
Rp3962
sg201
(dp3963
sg203
I0
sg204
I00
sg205
(lp3964
sg207
I00
sg208
I0
sg209
(lp3965
g10
ag10
asg211
(dp3966
sg213
I2
sg214
(lp3967
g216
aS'Cl'
p3968
asg218
g219
(g220
(I0
tp3969
g222
tp3970
Rp3971
(I1
(I2
I3
tp3972
g229
I00
S'\x01\xf8d\r\x00\x00\x14@\x01\xf8d\r\x00\x00\x14@\x01\xf8d\r\x00\x00\x14@\x01\xbf.\x0b\x00\x00\x16@\x01\xf8d\r\x00\x00\x14@\x01\xf8d\r\x00\x00\x14@'
p3973
tp3974
bsg234
I00
sg235
g219
(g220
(I0
tp3975
g222
tp3976
Rp3977
(I1
(I2
tp3978
g229
I00
S'\x00\x00\x00\x00\x00\x00\xf0?\x00\x00\x00\x00\x00\x001@'
p3979
tp3980
bsg242
I00
sg11
S'H1Cl1'
p3981
sg244
I1
sg245
I00
sg246
g219
(g220
(I0
tp3982
g222
tp3983
Rp3984
(I1
(I1
I0
tp3985
g229
I00
g10
tp3986
bsbsg252
(dp3987
g254
(lp3988
I0
aI0
aI0
asg256
(lp3989
F0.75
aF0.75
aI0
asg258
(lp3990
F0.5
aF0.5
aF0.5
asg260
(lp3991
F0.1
aF0.25
aF0.25
asg262
(lp3992
I1
aF0.25
aI0
asg264
(lp3993
I1
aI0
aI0
assg266
S'hcl_ref05'
p3994
sg268
S'.out'
p3995
sg270
S'/home/samio/project/a02_alchemy_diatomic/reproduce/production_shifted_refs/hcl_ref05'
p3996
sg272
F-13.27957329
sg273
I22
sg274
g275
sbag3
(g4
g5
Ntp3997
Rp3998
(dp3999
g9
g10
sg11
S'hcl_ref06.out'
p4000
sg13
(dp4001
sg15
(dp4002
g17
(lp4003
(lp4004
g20
aS'2.808E-02'
p4005
aS'1.728E-03'
p4006
aS'-13.763171'
p4007
aS'0.000E+00'
p4008
aS'22.79\n'
p4009
aa(lp4010
g27
aS'1.714E-02'
p4011
aS'8.031E-04'
p4012
aS'-14.184353'
p4013
aS'-4.212E-01'
p4014
aS'23.32\n'
p4015
aa(lp4016
g34
aS'1.718E-02'
p4017
aS'4.574E-04'
p4018
aS'-14.256745'
p4019
aS'-7.239E-02'
p4020
aS'22.96\n'
p4021
aa(lp4022
g41
aS'1.013E-02'
p4023
aS'2.598E-04'
p4024
aS'-14.281040'
p4025
aS'-2.429E-02'
p4026
aS'23.00\n'
p4027
aa(lp4028
g48
aS'5.905E-03'
p4029
aS'1.477E-04'
p4030
aS'-14.289041'
p4031
aS'-8.001E-03'
p4032
aS'24.07\n'
p4033
aa(lp4034
g55
aS'2.692E-03'
p4035
aS'9.380E-05'
p4036
aS'-14.291152'
p4037
aS'-2.110E-03'
p4038
aS'23.48\n'
p4039
aa(lp4040
g62
aS'1.626E-03'
p4041
aS'5.371E-05'
p4042
aS'-14.292178'
p4043
aS'-1.027E-03'
p4044
aS'23.38\n'
p4045
aa(lp4046
g69
aS'6.781E-04'
p4047
aS'2.630E-05'
p4048
aS'-14.292606'
p4049
aS'-4.272E-04'
p4050
aS'24.17\n'
p4051
aa(lp4052
g76
aS'3.255E-04'
p4053
aS'1.335E-05'
p4054
aS'-14.292711'
p4055
aS'-1.059E-04'
p4056
aS'23.90\n'
p4057
aa(lp4058
S'10'
p4059
aS'1.806E-04'
p4060
aS'8.273E-06'
p4061
aS'-14.292735'
p4062
aS'-2.313E-05'
p4063
aS'24.36\n'
p4064
aa(lp4065
S'11'
p4066
aS'9.741E-05'
p4067
aS'4.926E-06'
p4068
aS'-14.292745'
p4069
aS'-1.074E-05'
p4070
aS'24.68\n'
p4071
aa(lp4072
S'12'
p4073
aS'7.049E-05'
p4074
aS'2.828E-06'
p4075
aS'-14.292750'
p4076
aS'-4.149E-06'
p4077
aS'23.88\n'
p4078
aa(lp4079
S'13'
p4080
aS'4.652E-05'
p4081
aS'1.476E-06'
p4082
aS'-14.292751'
p4083
aS'-1.110E-06'
p4084
aS'24.52\n'
p4085
aa(lp4086
S'14'
p4087
aS'2.820E-05'
p4088
aS'8.323E-07'
p4089
aS'-14.292751'
p4090
aS'-2.568E-07'
p4091
aS'23.63\n'
p4092
aa(lp4093
S'15'
p4094
aS'1.168E-05'
p4095
aS'3.317E-07'
p4096
aS'-14.292751'
p4097
aS'-6.911E-08'
p4098
aS'24.85\n'
p4099
aa(lp4100
S'16'
p4101
aS'3.422E-06'
p4102
aS'1.482E-07'
p4103
aS'-14.292751'
p4104
aS'-9.068E-09'
p4105
aS'25.48\n'
p4106
aa(lp4107
S'17'
p4108
aS'1.623E-06'
p4109
aS'8.106E-08'
p4110
aS'-14.292751'
p4111
aS'-1.548E-09'
p4112
aS'22.16\n'
p4113
aa(lp4114
S'18'
p4115
aS'1.893E-06'
p4116
aS'4.008E-08'
p4117
aS'-14.292751'
p4118
aS'-6.290E-10'
p4119
aS'20.72\n'
p4120
aa(lp4121
S'19'
p4122
aS'1.624E-06'
p4123
aS'2.356E-08'
p4124
aS'-14.292751'
p4125
aS'-1.713E-10'
p4126
aS'17.48\n'
p4127
aa(lp4128
S'20'
p4129
aS'4.519E-07'
p4130
aS'1.237E-08'
p4131
aS'-14.292751'
p4132
aS'-6.357E-11'
p4133
aS'16.66\n'
p4134
aa(lp4135
S'21'
p4136
aS'1.467E-07'
p4137
aS'7.159E-09'
p4138
aS'-14.292751'
p4139
aS'-1.416E-11'
p4140
aS'18.08\n'
p4141
aa(lp4142
S'22'
p4143
aS'6.434E-08'
p4144
aS'3.999E-09'
p4145
aS'-14.292751'
p4146
aS'-4.505E-12'
p4147
aS'17.27\n'
p4148
aasS'ESR'
p4149
F2.1282639
sS'ELECTROSTATIC ENERGY'
p4150
F-13.81642587
sS'EXCHANGE-CORRELATION ENERGY'
p4151
F-3.47715304
sS'LOCAL PSEUDOPOTENTIAL ENERGY'
p4152
F-7.74578578
sS'ESELF'
p4153
F16.62259502
sS'GRADIENT CORRECTION ENERGY'
p4154
F-0.0758852
sS'KINETIC ENERGY'
p4155
F6.83709606
sS'TOTAL ENERGY'
p4156
F-13.76317122
sS'N-L PSEUDOPOTENTIAL ENERGY'
p4157
F4.43909741
ssg182
Fnan
sg183
g3
(g184
g5
Ntp4158
Rp4159
(dp4160
g188
I00
sg189
g190
(g191
g4159
g184
tp4161
Rp4162
sg194
I00
sg195
S'GEOMETRY FILE / created by CPMD\n'
p4163
sg197
g190
(g198
g4159
g184
tp4164
Rp4165
sg201
(dp4166
sg203
I0
sg204
I00
sg205
(lp4167
sg207
I00
sg208
I0
sg209
(lp4168
g10
ag10
asg211
(dp4169
sg213
I2
sg214
(lp4170
g216
ag3968
asg218
g219
(g220
(I0
tp4171
g222
tp4172
Rp4173
(I1
(I2
I3
tp4174
g229
I00
S'\x01\xf8d\r\x00\x00\x14@\x01\xf8d\r\x00\x00\x14@\x01\xf8d\r\x00\x00\x14@6/\xd5[ff\x16@\x01\xf8d\r\x00\x00\x14@\x01\xf8d\r\x00\x00\x14@'
p4175
tp4176
bsg234
I00
sg235
g219
(g220
(I0
tp4177
g222
tp4178
Rp4179
(I1
(I2
tp4180
g229
I00
S'\x00\x00\x00\x00\x00\x00\xf0?\x00\x00\x00\x00\x00\x001@'
p4181
tp4182
bsg242
I00
sg11
S'H1Cl1'
p4183
sg244
I1
sg245
I00
sg246
g219
(g220
(I0
tp4184
g222
tp4185
Rp4186
(I1
(I1
I0
tp4187
g229
I00
g10
tp4188
bsbsg252
(dp4189
g254
(lp4190
I0
aI0
aI0
asg256
(lp4191
F0.75
aF0.75
aI0
asg258
(lp4192
F0.5
aF0.5
aF0.5
asg260
(lp4193
F0.1
aF0.25
aF0.25
asg262
(lp4194
I1
aF0.25
aI0
asg264
(lp4195
I1
aI0
aI0
assg266
S'hcl_ref06'
p4196
sg268
S'.out'
p4197
sg270
S'/home/samio/project/a02_alchemy_diatomic/reproduce/production_shifted_refs/hcl_ref06'
p4198
sg272
F-14.29275096
sg273
I22
sg274
g275
sbag3
(g4
g5
Ntp4199
Rp4200
(dp4201
g9
g10
sg11
S'hcl_ref07.out'
p4202
sg13
(dp4203
sg15
(dp4204
g17
(lp4205
(lp4206
g20
aS'2.784E-02'
p4207
aS'1.640E-03'
p4208
aS'-14.411030'
p4209
aS'0.000E+00'
p4210
aS'20.10\n'
p4211
aa(lp4212
g27
aS'1.623E-02'
p4213
aS'7.223E-04'
p4214
aS'-14.790146'
p4215
aS'-3.791E-01'
p4216
aS'20.59\n'
p4217
aa(lp4218
g34
aS'1.281E-02'
p4219
aS'3.771E-04'
p4220
aS'-14.852865'
p4221
aS'-6.272E-02'
p4222
aS'20.64\n'
p4223
aa(lp4224
g41
aS'8.385E-03'
p4225
aS'2.002E-04'
p4226
aS'-14.869607'
p4227
aS'-1.674E-02'
p4228
aS'20.74\n'
p4229
aa(lp4230
g48
aS'4.211E-03'
p4231
aS'1.163E-04'
p4232
aS'-14.874473'
p4233
aS'-4.866E-03'
p4234
aS'21.13\n'
p4235
aa(lp4236
g55
aS'1.858E-03'
p4237
aS'7.384E-05'
p4238
aS'-14.875792'
p4239
aS'-1.319E-03'
p4240
aS'21.04\n'
p4241
aa(lp4242
g62
aS'1.126E-03'
p4243
aS'4.322E-05'
p4244
aS'-14.876416'
p4245
aS'-6.239E-04'
p4246
aS'20.93\n'
p4247
aa(lp4248
g69
aS'4.607E-04'
p4249
aS'2.137E-05'
p4250
aS'-14.876690'
p4251
aS'-2.740E-04'
p4252
aS'21.52\n'
p4253
aa(lp4254
g76
aS'2.311E-04'
p4255
aS'9.982E-06'
p4256
aS'-14.876763'
p4257
aS'-7.323E-05'
p4258
aS'21.47\n'
p4259
aa(lp4260
S'10'
p4261
aS'1.083E-04'
p4262
aS'6.036E-06'
p4263
aS'-14.876777'
p4264
aS'-1.356E-05'
p4265
aS'21.34\n'
p4266
aa(lp4267
S'11'
p4268
aS'5.938E-05'
p4269
aS'3.664E-06'
p4270
aS'-14.876782'
p4271
aS'-5.395E-06'
p4272
aS'21.64\n'
p4273
aa(lp4274
S'12'
p4275
aS'2.966E-05'
p4276
aS'2.115E-06'
p4277
aS'-14.876785'
p4278
aS'-2.206E-06'
p4279
aS'21.45\n'
p4280
aa(lp4281
S'13'
p4282
aS'2.112E-05'
p4283
aS'1.121E-06'
p4284
aS'-14.876785'
p4285
aS'-6.694E-07'
p4286
aS'21.41\n'
p4287
aa(lp4288
S'14'
p4289
aS'9.397E-06'
p4290
aS'6.071E-07'
p4291
aS'-14.876785'
p4292
aS'-1.693E-07'
p4293
aS'21.51\n'
p4294
aa(lp4295
S'15'
p4296
aS'3.332E-06'
p4297
aS'2.389E-07'
p4298
aS'-14.876785'
p4299
aS'-4.081E-08'
p4300
aS'21.47\n'
p4301
aa(lp4302
S'16'
p4303
aS'2.156E-06'
p4304
aS'1.051E-07'
p4305
aS'-14.876785'
p4306
aS'-5.035E-09'
p4307
aS'21.82\n'
p4308
aa(lp4309
S'17'
p4310
aS'5.130E-07'
p4311
aS'5.692E-08'
p4312
aS'-14.876785'
p4313
aS'-7.870E-10'
p4314
aS'22.11\n'
p4315
aa(lp4316
S'18'
p4317
aS'6.437E-07'
p4318
aS'2.776E-08'
p4319
aS'-14.876785'
p4320
aS'-2.942E-10'
p4321
aS'21.61\n'
p4322
aa(lp4323
S'19'
p4324
aS'6.795E-07'
p4325
aS'1.501E-08'
p4326
aS'-14.876785'
p4327
aS'-8.096E-11'
p4328
aS'19.92\n'
p4329
aa(lp4330
S'20'
p4331
aS'2.780E-07'
p4332
aS'7.878E-09'
p4333
aS'-14.876785'
p4334
aS'-2.788E-11'
p4335
aS'19.25\n'
p4336
aa(lp4337
S'21'
p4338
aS'9.100E-08'
p4339
aS'4.629E-09'
p4340
aS'-14.876785'
p4341
aS'-5.533E-12'
p4342
aS'18.51\n'
p4343
aasS'ESR'
p4344
F1.43043893
sS'ELECTROSTATIC ENERGY'
p4345
F-14.51985714
sS'EXCHANGE-CORRELATION ENERGY'
p4346
F-3.45535037
sS'LOCAL PSEUDOPOTENTIAL ENERGY'
p4347
F-7.52257233
sS'ESELF'
p4348
F16.62259502
sS'GRADIENT CORRECTION ENERGY'
p4349
F-0.07534585
sS'KINETIC ENERGY'
p4350
F6.74773211
sS'TOTAL ENERGY'
p4351
F-14.41102982
sS'N-L PSEUDOPOTENTIAL ENERGY'
p4352
F4.33901792
ssg182
Fnan
sg183
g3
(g184
g5
Ntp4353
Rp4354
(dp4355
g188
I00
sg189
g190
(g191
g4354
g184
tp4356
Rp4357
sg194
I00
sg195
S'GEOMETRY FILE / created by CPMD\n'
p4358
sg197
g190
(g198
g4354
g184
tp4359
Rp4360
sg201
(dp4361
sg203
I0
sg204
I00
sg205
(lp4362
sg207
I00
sg208
I0
sg209
(lp4363
g10
ag10
asg211
(dp4364
sg213
I2
sg214
(lp4365
g216
ag3968
asg218
g219
(g220
(I0
tp4366
g222
tp4367
Rp4368
(I1
(I2
I3
tp4369
g229
I00
S'\x01\xf8d\r\x00\x00\x14@\x01\xf8d\r\x00\x00\x14@\x01\xf8d\r\x00\x00\x14@i\xd1\xfe\xcf\xcc\xcc\x16@\x01\xf8d\r\x00\x00\x14@\x01\xf8d\r\x00\x00\x14@'
p4370
tp4371
bsg234
I00
sg235
g219
(g220
(I0
tp4372
g222
tp4373
Rp4374
(I1
(I2
tp4375
g229
I00
S'\x00\x00\x00\x00\x00\x00\xf0?\x00\x00\x00\x00\x00\x001@'
p4376
tp4377
bsg242
I00
sg11
S'H1Cl1'
p4378
sg244
I1
sg245
I00
sg246
g219
(g220
(I0
tp4379
g222
tp4380
Rp4381
(I1
(I1
I0
tp4382
g229
I00
g10
tp4383
bsbsg252
(dp4384
g254
(lp4385
I0
aI0
aI0
asg256
(lp4386
F0.75
aF0.75
aI0
asg258
(lp4387
F0.5
aF0.5
aF0.5
asg260
(lp4388
F0.1
aF0.25
aF0.25
asg262
(lp4389
I1
aF0.25
aI0
asg264
(lp4390
I1
aI0
aI0
assg266
S'hcl_ref07'
p4391
sg268
S'.out'
p4392
sg270
S'/home/samio/project/a02_alchemy_diatomic/reproduce/production_shifted_refs/hcl_ref07'
p4393
sg272
F-14.87678542
sg273
I21
sg274
g275
sbag3
(g4
g5
Ntp4394
Rp4395
(dp4396
g9
g10
sg11
S'hcl_ref08.out'
p4397
sg13
(dp4398
sg15
(dp4399
g17
(lp4400
(lp4401
g20
aS'2.707E-02'
p4402
aS'1.539E-03'
p4403
aS'-14.815621'
p4404
aS'0.000E+00'
p4405
aS'21.84\n'
p4406
aa(lp4407
g27
aS'1.530E-02'
p4408
aS'6.504E-04'
p4409
aS'-15.142738'
p4410
aS'-3.271E-01'
p4411
aS'21.55\n'
p4412
aa(lp4413
g34
aS'9.910E-03'
p4414
aS'3.150E-04'
p4415
aS'-15.195932'
p4416
aS'-5.319E-02'
p4417
aS'21.85\n'
p4418
aa(lp4419
g41
aS'7.276E-03'
p4420
aS'1.569E-04'
p4421
aS'-15.207446'
p4422
aS'-1.151E-02'
p4423
aS'21.10\n'
p4424
aa(lp4425
g48
aS'3.515E-03'
p4426
aS'9.314E-05'
p4427
aS'-15.210433'
p4428
aS'-2.987E-03'
p4429
aS'22.27\n'
p4430
aa(lp4431
g55
aS'1.528E-03'
p4432
aS'5.913E-05'
p4433
aS'-15.211283'
p4434
aS'-8.499E-04'
p4435
aS'22.44\n'
p4436
aa(lp4437
g62
aS'8.871E-04'
p4438
aS'3.506E-05'
p4439
aS'-15.211676'
p4440
aS'-3.931E-04'
p4441
aS'21.88\n'
p4442
aa(lp4443
g69
aS'3.803E-04'
p4444
aS'1.741E-05'
p4445
aS'-15.211854'
p4446
aS'-1.780E-04'
p4447
aS'22.75\n'
p4448
aa(lp4449
g76
aS'2.182E-04'
p4450
aS'7.611E-06'
p4451
aS'-15.211903'
p4452
aS'-4.973E-05'
p4453
aS'22.47\n'
p4454
aa(lp4455
S'10'
p4456
aS'9.553E-05'
p4457
aS'4.458E-06'
p4458
aS'-15.211912'
p4459
aS'-8.169E-06'
p4460
aS'22.18\n'
p4461
aa(lp4462
S'11'
p4463
aS'4.204E-05'
p4464
aS'2.720E-06'
p4465
aS'-15.211914'
p4466
aS'-2.762E-06'
p4467
aS'22.84\n'
p4468
aa(lp4469
S'12'
p4470
aS'2.942E-05'
p4471
aS'1.573E-06'
p4472
aS'-15.211915'
p4473
aS'-1.159E-06'
p4474
aS'22.32\n'
p4475
aa(lp4476
S'13'
p4477
aS'1.671E-05'
p4478
aS'8.368E-07'
p4479
aS'-15.211916'
p4480
aS'-3.839E-07'
p4481
aS'22.00\n'
p4482
aa(lp4483
S'14'
p4484
aS'9.753E-06'
p4485
aS'4.336E-07'
p4486
aS'-15.211916'
p4487
aS'-1.050E-07'
p4488
aS'22.81\n'
p4489
aa(lp4490
S'15'
p4491
aS'4.123E-06'
p4492
aS'1.786E-07'
p4493
aS'-15.211916'
p4494
aS'-2.223E-08'
p4495
aS'22.11\n'
p4496
aa(lp4497
S'16'
p4498
aS'1.463E-06'
p4499
aS'8.313E-08'
p4500
aS'-15.211916'
p4501
aS'-2.569E-09'
p4502
aS'22.52\n'
p4503
aa(lp4504
S'17'
p4505
aS'1.024E-06'
p4506
aS'4.229E-08'
p4507
aS'-15.211916'
p4508
aS'-4.604E-10'
p4509
aS'22.77\n'
p4510
aa(lp4511
S'18'
p4512
aS'8.454E-07'
p4513
aS'2.101E-08'
p4514
aS'-15.211916'
p4515
aS'-1.382E-10'
p4516
aS'20.36\n'
p4517
aa(lp4518
S'19'
p4519
aS'4.598E-07'
p4520
aS'1.077E-08'
p4521
aS'-15.211916'
p4522
aS'-4.219E-11'
p4523
aS'18.88\n'
p4524
aa(lp4525
S'20'
p4526
aS'1.530E-07'
p4527
aS'5.582E-09'
p4528
aS'-15.211916'
p4529
aS'-1.523E-11'
p4530
aS'18.61\n'
p4531
aa(lp4532
S'21'
p4533
aS'6.181E-08'
p4534
aS'3.270E-09'
p4535
aS'-15.211916'
p4536
aS'-3.183E-12'
p4537
aS'17.49\n'
p4538
aasS'ESR'
p4539
F0.96187658
sS'ELECTROSTATIC ENERGY'
p4540
F-14.99325447
sS'EXCHANGE-CORRELATION ENERGY'
p4541
F-3.43371641
sS'LOCAL PSEUDOPOTENTIAL ENERGY'
p4542
F-7.29927863
sS'ESELF'
p4543
F16.62259502
sS'GRADIENT CORRECTION ENERGY'
p4544
F-0.07497511
sS'KINETIC ENERGY'
p4545
F6.66619964
sS'TOTAL ENERGY'
p4546
F-14.81562074
sS'N-L PSEUDOPOTENTIAL ENERGY'
p4547
F4.24442912
ssg182
Fnan
sg183
g3
(g184
g5
Ntp4548
Rp4549
(dp4550
g188
I00
sg189
g190
(g191
g4549
g184
tp4551
Rp4552
sg194
I00
sg195
S'GEOMETRY FILE / created by CPMD\n'
p4553
sg197
g190
(g198
g4549
g184
tp4554
Rp4555
sg201
(dp4556
sg203
I0
sg204
I00
sg205
(lp4557
sg207
I00
sg208
I0
sg209
(lp4558
g10
ag10
asg211
(dp4559
sg213
I2
sg214
(lp4560
g216
ag3968
asg218
g219
(g220
(I0
tp4561
g222
tp4562
Rp4563
(I1
(I2
I3
tp4564
g229
I00
S'\x01\xf8d\r\x00\x00\x14@\x01\xf8d\r\x00\x00\x14@\x01\xf8d\r\x00\x00\x14@\x9as(D33\x17@\x01\xf8d\r\x00\x00\x14@\x01\xf8d\r\x00\x00\x14@'
p4565
tp4566
bsg234
I00
sg235
g219
(g220
(I0
tp4567
g222
tp4568
Rp4569
(I1
(I2
tp4570
g229
I00
S'\x00\x00\x00\x00\x00\x00\xf0?\x00\x00\x00\x00\x00\x001@'
p4571
tp4572
bsg242
I00
sg11
S'H1Cl1'
p4573
sg244
I1
sg245
I00
sg246
g219
(g220
(I0
tp4574
g222
tp4575
Rp4576
(I1
(I1
I0
tp4577
g229
I00
g10
tp4578
bsbsg252
(dp4579
g254
(lp4580
I0
aI0
aI0
asg256
(lp4581
F0.75
aF0.75
aI0
asg258
(lp4582
F0.5
aF0.5
aF0.5
asg260
(lp4583
F0.1
aF0.25
aF0.25
asg262
(lp4584
I1
aF0.25
aI0
asg264
(lp4585
I1
aI0
aI0
assg266
S'hcl_ref08'
p4586
sg268
S'.out'
p4587
sg270
S'/home/samio/project/a02_alchemy_diatomic/reproduce/production_shifted_refs/hcl_ref08'
p4588
sg272
F-15.21191596
sg273
I21
sg274
g275
sbag3
(g4
g5
Ntp4589
Rp4590
(dp4591
g9
g10
sg11
S'hcl_ref09.out'
p4592
sg13
(dp4593
sg15
(dp4594
g17
(lp4595
(lp4596
g20
aS'2.603E-02'
p4597
aS'1.448E-03'
p4598
aS'-15.066735'
p4599
aS'0.000E+00'
p4600
aS'21.90\n'
p4601
aa(lp4602
g27
aS'1.380E-02'
p4603
aS'5.957E-04'
p4604
aS'-15.344606'
p4605
aS'-2.779E-01'
p4606
aS'22.17\n'
p4607
aa(lp4608
g34
aS'6.696E-03'
p4609
aS'2.733E-04'
p4610
aS'-15.390426'
p4611
aS'-4.582E-02'
p4612
aS'22.52\n'
p4613
aa(lp4614
g41
aS'5.053E-03'
p4615
aS'1.275E-04'
p4616
aS'-15.398795'
p4617
aS'-8.369E-03'
p4618
aS'21.87\n'
p4619
aa(lp4620
g48
aS'2.390E-03'
p4621
aS'7.569E-05'
p4622
aS'-15.400766'
p4623
aS'-1.971E-03'
p4624
aS'22.28\n'
p4625
aa(lp4626
g55
aS'9.920E-04'
p4627
aS'4.823E-05'
p4628
aS'-15.401342'
p4629
aS'-5.762E-04'
p4630
aS'21.99\n'
p4631
aa(lp4632
g62
aS'5.763E-04'
p4633
aS'2.893E-05'
p4634
aS'-15.401602'
p4635
aS'-2.602E-04'
p4636
aS'22.56\n'
p4637
aa(lp4638
g69
aS'2.514E-04'
p4639
aS'1.432E-05'
p4640
aS'-15.401722'
p4641
aS'-1.204E-04'
p4642
aS'23.40\n'
p4643
aa(lp4644
g76
aS'1.367E-04'
p4645
aS'5.928E-06'
p4646
aS'-15.401757'
p4647
aS'-3.491E-05'
p4648
aS'22.36\n'
p4649
aa(lp4650
S'10'
p4651
aS'5.692E-05'
p4652
aS'3.331E-06'
p4653
aS'-15.401763'
p4654
aS'-5.319E-06'
p4655
aS'23.25\n'
p4656
aa(lp4657
S'11'
p4658
aS'2.385E-05'
p4659
aS'2.034E-06'
p4660
aS'-15.401764'
p4661
aS'-1.516E-06'
p4662
aS'22.38\n'
p4663
aa(lp4664
S'12'
p4665
aS'1.636E-05'
p4666
aS'1.173E-06'
p4667
aS'-15.401765'
p4668
aS'-6.413E-07'
p4669
aS'22.66\n'
p4670
aa(lp4671
S'13'
p4672
aS'9.324E-06'
p4673
aS'6.128E-07'
p4674
aS'-15.401765'
p4675
aS'-2.301E-07'
p4676
aS'22.95\n'
p4677
aa(lp4678
S'14'
p4679
aS'6.090E-06'
p4680
aS'3.051E-07'
p4681
aS'-15.401765'
p4682
aS'-6.303E-08'
p4683
aS'23.39\n'
p4684
aa(lp4685
S'15'
p4686
aS'2.938E-06'
p4687
aS'1.371E-07'
p4688
aS'-15.401765'
p4689
aS'-1.138E-08'
p4690
aS'23.14\n'
p4691
aa(lp4692
S'16'
p4693
aS'1.264E-06'
p4694
aS'6.478E-08'
p4695
aS'-15.401765'
p4696
aS'-1.489E-09'
p4697
aS'24.03\n'
p4698
aa(lp4699
S'17'
p4700
aS'7.435E-07'
p4701
aS'3.278E-08'
p4702
aS'-15.401765'
p4703
aS'-2.871E-10'
p4704
aS'23.28\n'
p4705
aa(lp4706
S'18'
p4707
aS'4.684E-07'
p4708
aS'1.557E-08'
p4709
aS'-15.401765'
p4710
aS'-8.001E-11'
p4711
aS'20.66\n'
p4712
aa(lp4713
S'19'
p4714
aS'2.252E-07'
p4715
aS'7.056E-09'
p4716
aS'-15.401765'
p4717
aS'-2.422E-11'
p4718
aS'19.88\n'
p4719
aa(lp4720
S'20'
p4721
aS'6.240E-08'
p4722
aS'3.569E-09'
p4723
aS'-15.401765'
p4724
aS'-4.079E-12'
p4725
aS'19.26\n'
p4726
aasS'ESR'
p4727
F0.64370157
sS'ELECTROSTATIC ENERGY'
p4728
F-15.31721415
sS'EXCHANGE-CORRELATION ENERGY'
p4729
F-3.41232562
sS'LOCAL PSEUDOPOTENTIAL ENERGY'
p4730
F-7.09879616
sS'ESELF'
p4731
F16.62259502
sS'GRADIENT CORRECTION ENERGY'
p4732
F-0.07469183
sS'KINETIC ENERGY'
p4733
F6.59214785
sS'TOTAL ENERGY'
p4734
F-15.0667355
sS'N-L PSEUDOPOTENTIAL ENERGY'
p4735
F4.16945257
ssg182
Fnan
sg183
g3
(g184
g5
Ntp4736
Rp4737
(dp4738
g188
I00
sg189
g190
(g191
g4737
g184
tp4739
Rp4740
sg194
I00
sg195
S'GEOMETRY FILE / created by CPMD\n'
p4741
sg197
g190
(g198
g4737
g184
tp4742
Rp4743
sg201
(dp4744
sg203
I0
sg204
I00
sg205
(lp4745
sg207
I00
sg208
I0
sg209
(lp4746
g10
ag10
asg211
(dp4747
sg213
I2
sg214
(lp4748
g216
ag3968
asg218
g219
(g220
(I0
tp4749
g222
tp4750
Rp4751
(I1
(I2
I3
tp4752
g229
I00
S'\x01\xf8d\r\x00\x00\x14@\x01\xf8d\r\x00\x00\x14@\x01\xf8d\r\x00\x00\x14@\xcf\xe3\xce\x94\x99\x99\x17@\x01\xf8d\r\x00\x00\x14@\x01\xf8d\r\x00\x00\x14@'
p4753
tp4754
bsg234
I00
sg235
g219
(g220
(I0
tp4755
g222
tp4756
Rp4757
(I1
(I2
tp4758
g229
I00
S'\x00\x00\x00\x00\x00\x00\xf0?\x00\x00\x00\x00\x00\x001@'
p4759
tp4760
bsg242
I00
sg11
S'H1Cl1'
p4761
sg244
I1
sg245
I00
sg246
g219
(g220
(I0
tp4762
g222
tp4763
Rp4764
(I1
(I1
I0
tp4765
g229
I00
g10
tp4766
bsbsg252
(dp4767
g254
(lp4768
I0
aI0
aI0
asg256
(lp4769
F0.75
aF0.75
aI0
asg258
(lp4770
F0.5
aF0.5
aF0.5
asg260
(lp4771
F0.1
aF0.25
aF0.25
asg262
(lp4772
I1
aF0.25
aI0
asg264
(lp4773
I1
aI0
aI0
assg266
S'hcl_ref09'
p4774
sg268
S'.out'
p4775
sg270
S'/home/samio/project/a02_alchemy_diatomic/reproduce/production_shifted_refs/hcl_ref09'
p4776
sg272
F-15.40176498
sg273
I20
sg274
g275
sbag3
(g4
g5
Ntp4777
Rp4778
(dp4779
g9
g10
sg11
S'hcl_ref10.out'
p4780
sg13
(dp4781
sg15
(dp4782
g17
(lp4783
(lp4784
g20
aS'2.474E-02'
p4785
aS'1.374E-03'
p4786
aS'-15.220118'
p4787
aS'0.000E+00'
p4788
aS'20.63\n'
p4789
aa(lp4790
g27
aS'1.242E-02'
p4791
aS'5.561E-04'
p4792
aS'-15.456425'
p4793
aS'-2.363E-01'
p4794
aS'20.90\n'
p4795
aa(lp4796
g34
aS'4.613E-03'
p4797
aS'2.453E-04'
p4798
aS'-15.497301'
p4799
aS'-4.088E-02'
p4800
aS'20.77\n'
p4801
aa(lp4802
g41
aS'3.501E-03'
p4803
aS'1.080E-04'
p4804
aS'-15.503861'
p4805
aS'-6.559E-03'
p4806
aS'20.73\n'
p4807
aa(lp4808
g48
aS'1.737E-03'
p4809
aS'6.342E-05'
p4810
aS'-15.505267'
p4811
aS'-1.407E-03'
p4812
aS'20.56\n'
p4813
aa(lp4814
g55
aS'6.772E-04'
p4815
aS'4.036E-05'
p4816
aS'-15.505673'
p4817
aS'-4.059E-04'
p4818
aS'20.49\n'
p4819
aa(lp4820
g62
aS'3.899E-04'
p4821
aS'2.442E-05'
p4822
aS'-15.505852'
p4823
aS'-1.788E-04'
p4824
aS'20.50\n'
p4825
aa(lp4826
g69
aS'1.797E-04'
p4827
aS'1.240E-05'
p4828
aS'-15.505935'
p4829
aS'-8.314E-05'
p4830
aS'20.75\n'
p4831
aa(lp4832
g76
aS'1.016E-04'
p4833
aS'4.968E-06'
p4834
aS'-15.505961'
p4835
aS'-2.633E-05'
p4836
aS'20.77\n'
p4837
aa(lp4838
S'10'
p4839
aS'4.083E-05'
p4840
aS'2.612E-06'
p4841
aS'-15.505965'
p4842
aS'-3.879E-06'
p4843
aS'20.84\n'
p4844
aa(lp4845
S'11'
p4846
aS'1.636E-05'
p4847
aS'1.553E-06'
p4848
aS'-15.505966'
p4849
aS'-9.267E-07'
p4850
aS'20.80\n'
p4851
aa(lp4852
S'12'
p4853
aS'1.110E-05'
p4854
aS'8.929E-07'
p4855
aS'-15.505967'
p4856
aS'-3.695E-07'
p4857
aS'20.93\n'
p4858
aa(lp4859
S'13'
p4860
aS'7.725E-06'
p4861
aS'4.662E-07'
p4862
aS'-15.505967'
p4863
aS'-1.411E-07'
p4864
aS'20.75\n'
p4865
aa(lp4866
S'14'
p4867
aS'4.566E-06'
p4868
aS'2.309E-07'
p4869
aS'-15.505967'
p4870
aS'-4.074E-08'
p4871
aS'20.95\n'
p4872
aa(lp4873
S'15'
p4874
aS'2.330E-06'
p4875
aS'1.138E-07'
p4876
aS'-15.505967'
p4877
aS'-6.814E-09'
p4878
aS'20.87\n'
p4879
aa(lp4880
S'16'
p4881
aS'1.122E-06'
p4882
aS'5.552E-08'
p4883
aS'-15.505967'
p4884
aS'-1.071E-09'
p4885
aS'20.91\n'
p4886
aa(lp4887
S'17'
p4888
aS'6.037E-07'
p4889
aS'2.780E-08'
p4890
aS'-15.505967'
p4891
aS'-2.252E-10'
p4892
aS'20.98\n'
p4893
aa(lp4894
S'18'
p4895
aS'3.206E-07'
p4896
aS'1.166E-08'
p4897
aS'-15.505967'
p4898
aS'-6.544E-11'
p4899
aS'21.10\n'
p4900
aa(lp4901
S'19'
p4902
aS'1.396E-07'
p4903
aS'4.978E-09'
p4904
aS'-15.505967'
p4905
aS'-1.210E-11'
p4906
aS'20.30\n'
p4907
aa(lp4908
S'20'
p4909
aS'4.131E-08'
p4910
aS'2.551E-09'
p4911
aS'-15.505967'
p4912
aS'-5.240E-12'
p4913
aS'19.04\n'
p4914
aasS'ESR'
p4915
F0.42713276
sS'ELECTROSTATIC ENERGY'
p4916
F-15.54006727
sS'EXCHANGE-CORRELATION ENERGY'
p4917
F-3.39110425
sS'LOCAL PSEUDOPOTENTIAL ENERGY'
p4918
F-6.92781676
sS'ESELF'
p4919
F16.62259502
sS'GRADIENT CORRECTION ENERGY'
p4920
F-0.0744638
sS'KINETIC ENERGY'
p4921
F6.52456295
sS'TOTAL ENERGY'
p4922
F-15.22011821
sS'N-L PSEUDOPOTENTIAL ENERGY'
p4923
F4.11430713
ssg182
Fnan
sg183
g3
(g184
g5
Ntp4924
Rp4925
(dp4926
g188
I00
sg189
g190
(g191
g4925
g184
tp4927
Rp4928
sg194
I00
sg195
S'GEOMETRY FILE / created by CPMD\n'
p4929
sg197
g190
(g198
g4925
g184
tp4930
Rp4931
sg201
(dp4932
sg203
I0
sg204
I00
sg205
(lp4933
sg207
I00
sg208
I0
sg209
(lp4934
g10
ag10
asg211
(dp4935
sg213
I2
sg214
(lp4936
g216
ag3968
asg218
g219
(g220
(I0
tp4937
g222
tp4938
Rp4939
(I1
(I2
I3
tp4940
g229
I00
S'\x01\xf8d\r\x00\x00\x14@\x01\xf8d\r\x00\x00\x14@\x01\xf8d\r\x00\x00\x14@\x02\x86\xf8\x08\x00\x00\x18@\x01\xf8d\r\x00\x00\x14@\x01\xf8d\r\x00\x00\x14@'
p4941
tp4942
bsg234
I00
sg235
g219
(g220
(I0
tp4943
g222
tp4944
Rp4945
(I1
(I2
tp4946
g229
I00
S'\x00\x00\x00\x00\x00\x00\xf0?\x00\x00\x00\x00\x00\x001@'
p4947
tp4948
bsg242
I00
sg11
S'H1Cl1'
p4949
sg244
I1
sg245
I00
sg246
g219
(g220
(I0
tp4950
g222
tp4951
Rp4952
(I1
(I1
I0
tp4953
g229
I00
g10
tp4954
bsbsg252
(dp4955
g254
(lp4956
I0
aI0
aI0
asg256
(lp4957
F0.75
aF0.75
aI0
asg258
(lp4958
F0.5
aF0.5
aF0.5
asg260
(lp4959
F0.1
aF0.25
aF0.25
asg262
(lp4960
I1
aF0.25
aI0
asg264
(lp4961
I1
aI0
aI0
assg266
S'hcl_ref10'
p4962
sg268
S'.out'
p4963
sg270
S'/home/samio/project/a02_alchemy_diatomic/reproduce/production_shifted_refs/hcl_ref10'
p4964
sg272
F-15.50596672
sg273
I20
sg274
g275
sbag3
(g4
g5
Ntp4965
Rp4966
(dp4967
g9
g10
sg11
S'hcl_ref11.out'
p4968
sg13
(dp4969
sg15
(dp4970
g17
(lp4971
(lp4972
g20
aS'2.319E-02'
p4973
aS'1.317E-03'
p4974
aS'-15.311078'
p4975
aS'0.000E+00'
p4976
aS'22.59\n'
p4977
aa(lp4978
g27
aS'1.148E-02'
p4979
aS'5.294E-04'
p4980
aS'-15.514060'
p4981
aS'-2.030E-01'
p4982
aS'22.16\n'
p4983
aa(lp4984
g34
aS'4.381E-03'
p4985
aS'2.278E-04'
p4986
aS'-15.552047'
p4987
aS'-3.799E-02'
p4988
aS'22.21\n'
p4989
aa(lp4990
g41
aS'2.346E-03'
p4991
aS'9.609E-05'
p4992
aS'-15.557591'
p4993
aS'-5.544E-03'
p4994
aS'22.62\n'
p4995
aa(lp4996
g48
aS'1.166E-03'
p4997
aS'5.462E-05'
p4998
aS'-15.558709'
p4999
aS'-1.118E-03'
p5000
aS'23.23\n'
p5001
aa(lp5002
g55
aS'4.728E-04'
p5003
aS'3.445E-05'
p5004
aS'-15.559015'
p5005
aS'-3.065E-04'
p5006
aS'22.71\n'
p5007
aa(lp5008
g62
aS'2.393E-04'
p5009
aS'2.110E-05'
p5010
aS'-15.559144'
p5011
aS'-1.289E-04'
p5012
aS'22.67\n'
p5013
aa(lp5014
g69
aS'1.274E-04'
p5015
aS'1.109E-05'
p5016
aS'-15.559205'
p5017
aS'-6.034E-05'
p5018
aS'23.04\n'
p5019
aa(lp5020
g76
aS'5.755E-05'
p5021
aS'4.401E-06'
p5022
aS'-15.559226'
p5023
aS'-2.102E-05'
p5024
aS'23.57\n'
p5025
aa(lp5026
S'10'
p5027
aS'2.303E-05'
p5028
aS'2.145E-06'
p5029
aS'-15.559229'
p5030
aS'-3.206E-06'
p5031
aS'23.78\n'
p5032
aa(lp5033
S'11'
p5034
aS'1.201E-05'
p5035
aS'1.205E-06'
p5036
aS'-15.559230'
p5037
aS'-6.583E-07'
p5038
aS'23.89\n'
p5039
aa(lp5040
S'12'
p5041
aS'7.616E-06'
p5042
aS'6.771E-07'
p5043
aS'-15.559230'
p5044
aS'-2.290E-07'
p5045
aS'23.26\n'
p5046
aa(lp5047
S'13'
p5048
aS'5.815E-06'
p5049
aS'3.469E-07'
p5050
aS'-15.559230'
p5051
aS'-8.959E-08'
p5052
aS'23.64\n'
p5053
aa(lp5054
S'14'
p5055
aS'2.975E-06'
p5056
aS'1.846E-07'
p5057
aS'-15.559230'
p5058
aS'-2.518E-08'
p5059
aS'23.16\n'
p5060
aa(lp5061
S'15'
p5062
aS'1.472E-06'
p5063
aS'9.637E-08'
p5064
aS'-15.559230'
p5065
aS'-4.683E-09'
p5066
aS'23.67\n'
p5067
aa(lp5068
S'16'
p5069
aS'6.945E-07'
p5070
aS'4.916E-08'
p5071
aS'-15.559230'
p5072
aS'-8.608E-10'
p5073
aS'23.29\n'
p5074
aa(lp5075
S'17'
p5076
aS'3.433E-07'
p5077
aS'2.348E-08'
p5078
aS'-15.559230'
p5079
aS'-2.107E-10'
p5080
aS'22.78\n'
p5081
aa(lp5082
S'18'
p5083
aS'1.763E-07'
p5084
aS'9.286E-09'
p5085
aS'-15.559230'
p5086
aS'-5.492E-11'
p5087
aS'20.79\n'
p5088
aa(lp5089
S'19'
p5090
aS'7.719E-08'
p5091
aS'4.072E-09'
p5092
aS'-15.559230'
p5093
aS'-1.090E-11'
p5094
aS'20.25\n'
p5095
aasS'ESR'
p5096
F0.28027377
sS'ELECTROSTATIC ENERGY'
p5097
F-15.69294934
sS'EXCHANGE-CORRELATION ENERGY'
p5098
F-3.37021963
sS'LOCAL PSEUDOPOTENTIAL ENERGY'
p5099
F-6.78673683
sS'ESELF'
p5100
F16.62259502
sS'GRADIENT CORRECTION ENERGY'
p5101
F-0.07429742
sS'KINETIC ENERGY'
p5102
F6.46350345
sS'TOTAL ENERGY'
p5103
F-15.31107755
sS'N-L PSEUDOPOTENTIAL ENERGY'
p5104
F4.07532481
ssg182
Fnan
sg183
g3
(g184
g5
Ntp5105
Rp5106
(dp5107
g188
I00
sg189
g190
(g191
g5106
g184
tp5108
Rp5109
sg194
I00
sg195
S'GEOMETRY FILE / created by CPMD\n'
p5110
sg197
g190
(g198
g5106
g184
tp5111
Rp5112
sg201
(dp5113
sg203
I0
sg204
I00
sg205
(lp5114
sg207
I00
sg208
I0
sg209
(lp5115
g10
ag10
asg211
(dp5116
sg213
I2
sg214
(lp5117
g216
ag3968
asg218
g219
(g220
(I0
tp5118
g222
tp5119
Rp5120
(I1
(I2
I3
tp5121
g229
I00
S'\x01\xf8d\r\x00\x00\x14@\x01\xf8d\r\x00\x00\x14@\x01\xf8d\r\x00\x00\x14@7\xf6\x9eYff\x18@\x01\xf8d\r\x00\x00\x14@\x01\xf8d\r\x00\x00\x14@'
p5122
tp5123
bsg234
I00
sg235
g219
(g220
(I0
tp5124
g222
tp5125
Rp5126
(I1
(I2
tp5127
g229
I00
S'\x00\x00\x00\x00\x00\x00\xf0?\x00\x00\x00\x00\x00\x001@'
p5128
tp5129
bsg242
I00
sg11
S'H1Cl1'
p5130
sg244
I1
sg245
I00
sg246
g219
(g220
(I0
tp5131
g222
tp5132
Rp5133
(I1
(I1
I0
tp5134
g229
I00
g10
tp5135
bsbsg252
(dp5136
g254
(lp5137
I0
aI0
aI0
asg256
(lp5138
F0.75
aF0.75
aI0
asg258
(lp5139
F0.5
aF0.5
aF0.5
asg260
(lp5140
F0.1
aF0.25
aF0.25
asg262
(lp5141
I1
aF0.25
aI0
asg264
(lp5142
I1
aI0
aI0
assg266
S'hcl_ref11'
p5143
sg268
S'.out'
p5144
sg270
S'/home/samio/project/a02_alchemy_diatomic/reproduce/production_shifted_refs/hcl_ref11'
p5145
sg272
F-15.55922986
sg273
I19
sg274
g275
sbag3
(g4
g5
Ntp5146
Rp5147
(dp5148
g9
g10
sg11
S'hcl_ref12.out'
p5149
sg13
(dp5150
sg15
(dp5151
g17
(lp5152
(lp5153
g20
aS'2.141E-02'
p5154
aS'1.276E-03'
p5155
aS'-15.362152'
p5156
aS'0.000E+00'
p5157
aS'19.90\n'
p5158
aa(lp5159
g27
aS'1.124E-02'
p5160
aS'5.118E-04'
p5161
aS'-15.539234'
p5162
aS'-1.771E-01'
p5163
aS'20.14\n'
p5164
aa(lp5165
g34
aS'4.541E-03'
p5166
aS'2.156E-04'
p5167
aS'-15.575806'
p5168
aS'-3.657E-02'
p5169
aS'19.97\n'
p5170
aa(lp5171
g41
aS'2.140E-03'
p5172
aS'8.778E-05'
p5173
aS'-15.580729'
p5174
aS'-4.923E-03'
p5175
aS'19.99\n'
p5176
aa(lp5177
g48
aS'9.044E-04'
p5178
aS'4.828E-05'
p5179
aS'-15.581686'
p5180
aS'-9.569E-04'
p5181
aS'20.27\n'
p5182
aa(lp5183
g55
aS'3.752E-04'
p5184
aS'2.981E-05'
p5185
aS'-15.581932'
p5186
aS'-2.462E-04'
p5187
aS'20.62\n'
p5188
aa(lp5189
g62
aS'2.067E-04'
p5190
aS'1.827E-05'
p5191
aS'-15.582029'
p5192
aS'-9.675E-05'
p5193
aS'20.25\n'
p5194
aa(lp5195
g69
aS'1.165E-04'
p5196
aS'9.946E-06'
p5197
aS'-15.582073'
p5198
aS'-4.439E-05'
p5199
aS'20.32\n'
p5200
aa(lp5201
g76
aS'4.809E-05'
p5202
aS'4.112E-06'
p5203
aS'-15.582090'
p5204
aS'-1.670E-05'
p5205
aS'20.60\n'
p5206
aa(lp5207
S'10'
p5208
aS'2.005E-05'
p5209
aS'1.890E-06'
p5210
aS'-15.582093'
p5211
aS'-2.849E-06'
p5212
aS'20.38\n'
p5213
aa(lp5214
S'11'
p5215
aS'1.019E-05'
p5216
aS'9.700E-07'
p5217
aS'-15.582093'
p5218
aS'-5.460E-07'
p5219
aS'20.80\n'
p5220
aa(lp5221
S'12'
p5222
aS'4.802E-06'
p5223
aS'5.258E-07'
p5224
aS'-15.582093'
p5225
aS'-1.534E-07'
p5226
aS'21.00\n'
p5227
aa(lp5228
S'13'
p5229
aS'3.559E-06'
p5230
aS'2.637E-07'
p5231
aS'-15.582094'
p5232
aS'-5.974E-08'
p5233
aS'20.72\n'
p5234
aa(lp5235
S'14'
p5236
aS'1.761E-06'
p5237
aS'1.517E-07'
p5238
aS'-15.582094'
p5239
aS'-1.635E-08'
p5240
aS'20.82\n'
p5241
aa(lp5242
S'15'
p5243
aS'8.535E-07'
p5244
aS'8.359E-08'
p5245
aS'-15.582094'
p5246
aS'-3.515E-09'
p5247
aS'20.81\n'
p5248
aa(lp5249
S'16'
p5250
aS'4.508E-07'
p5251
aS'4.436E-08'
p5252
aS'-15.582094'
p5253
aS'-7.463E-10'
p5254
aS'20.99\n'
p5255
aa(lp5256
S'17'
p5257
aS'2.224E-07'
p5258
aS'2.091E-08'
p5259
aS'-15.582094'
p5260
aS'-2.069E-10'
p5261
aS'20.64\n'
p5262
aa(lp5263
S'18'
p5264
aS'1.225E-07'
p5265
aS'8.225E-09'
p5266
aS'-15.582094'
p5267
aS'-5.294E-11'
p5268
aS'20.82\n'
p5269
aa(lp5270
S'19'
p5271
aS'5.206E-08'
p5272
aS'4.361E-09'
p5273
aS'-15.582094'
p5274
aS'-6.761E-12'
p5275
aS'20.71\n'
p5276
aasS'ESR'
p5277
F0.18149111
sS'ELECTROSTATIC ENERGY'
p5278
F-15.79688906
sS'EXCHANGE-CORRELATION ENERGY'
p5279
F-3.34995535
sS'LOCAL PSEUDOPOTENTIAL ENERGY'
p5280
F-6.67330848
sS'ESELF'
p5281
F16.62259502
sS'GRADIENT CORRECTION ENERGY'
p5282
F-0.07420871
sS'KINETIC ENERGY'
p5283
F6.40950374
sS'TOTAL ENERGY'
p5284
F-15.36215174
sS'N-L PSEUDOPOTENTIAL ENERGY'
p5285
F4.04849741
ssg182
Fnan
sg183
g3
(g184
g5
Ntp5286
Rp5287
(dp5288
g188
I00
sg189
g190
(g191
g5287
g184
tp5289
Rp5290
sg194
I00
sg195
S'GEOMETRY FILE / created by CPMD\n'
p5291
sg197
g190
(g198
g5287
g184
tp5292
Rp5293
sg201
(dp5294
sg203
I0
sg204
I00
sg205
(lp5295
sg207
I00
sg208
I0
sg209
(lp5296
g10
ag10
asg211
(dp5297
sg213
I2
sg214
(lp5298
g216
ag3968
asg218
g219
(g220
(I0
tp5299
g222
tp5300
Rp5301
(I1
(I2
I3
tp5302
g229
I00
S'\x01\xf8d\r\x00\x00\x14@\x01\xf8d\r\x00\x00\x14@\x01\xf8d\r\x00\x00\x14@i\x98\xc8\xcd\xcc\xcc\x18@\x01\xf8d\r\x00\x00\x14@\x01\xf8d\r\x00\x00\x14@'
p5303
tp5304
bsg234
I00
sg235
g219
(g220
(I0
tp5305
g222
tp5306
Rp5307
(I1
(I2
tp5308
g229
I00
S'\x00\x00\x00\x00\x00\x00\xf0?\x00\x00\x00\x00\x00\x001@'
p5309
tp5310
bsg242
I00
sg11
S'H1Cl1'
p5311
sg244
I1
sg245
I00
sg246
g219
(g220
(I0
tp5312
g222
tp5313
Rp5314
(I1
(I1
I0
tp5315
g229
I00
g10
tp5316
bsbsg252
(dp5317
g254
(lp5318
I0
aI0
aI0
asg256
(lp5319
F0.75
aF0.75
aI0
asg258
(lp5320
F0.5
aF0.5
aF0.5
asg260
(lp5321
F0.1
aF0.25
aF0.25
asg262
(lp5322
I1
aF0.25
aI0
asg264
(lp5323
I1
aI0
aI0
assg266
S'hcl_ref12'
p5324
sg268
S'.out'
p5325
sg270
S'/home/samio/project/a02_alchemy_diatomic/reproduce/production_shifted_refs/hcl_ref12'
p5326
sg272
F-15.58209355
sg273
I19
sg274
g275
sbag3
(g4
g5
Ntp5327
Rp5328
(dp5329
g9
g10
sg11
S'hcl_ref13.out'
p5330
sg13
(dp5331
sg15
(dp5332
g17
(lp5333
(lp5334
g20
aS'1.947E-02'
p5335
aS'1.246E-03'
p5336
aS'-15.387823'
p5337
aS'0.000E+00'
p5338
aS'20.86\n'
p5339
aa(lp5340
g27
aS'1.114E-02'
p5341
aS'5.011E-04'
p5342
aS'-15.545012'
p5343
aS'-1.572E-01'
p5344
aS'20.95\n'
p5345
aa(lp5346
g34
aS'4.670E-03'
p5347
aS'2.072E-04'
p5348
aS'-15.581159'
p5349
aS'-3.615E-02'
p5350
aS'20.94\n'
p5351
aa(lp5352
g41
aS'2.477E-03'
p5353
aS'8.216E-05'
p5354
aS'-15.585680'
p5355
aS'-4.521E-03'
p5356
aS'20.95\n'
p5357
aa(lp5358
g48
aS'1.153E-03'
p5359
aS'4.382E-05'
p5360
aS'-15.586560'
p5361
aS'-8.804E-04'
p5362
aS'20.80\n'
p5363
aa(lp5364
g55
aS'4.975E-04'
p5365
aS'2.650E-05'
p5366
aS'-15.586774'
p5367
aS'-2.134E-04'
p5368
aS'20.69\n'
p5369
aa(lp5370
g62
aS'2.260E-04'
p5371
aS'1.609E-05'
p5372
aS'-15.586853'
p5373
aS'-7.905E-05'
p5374
aS'20.73\n'
p5375
aa(lp5376
g69
aS'1.221E-04'
p5377
aS'8.855E-06'
p5378
aS'-15.586888'
p5379
aS'-3.506E-05'
p5380
aS'20.94\n'
p5381
aa(lp5382
g76
aS'5.487E-05'
p5383
aS'3.896E-06'
p5384
aS'-15.586901'
p5385
aS'-1.319E-05'
p5386
aS'20.81\n'
p5387
aa(lp5388
S'10'
p5389
aS'2.162E-05'
p5390
aS'1.777E-06'
p5391
aS'-15.586904'
p5392
aS'-2.574E-06'
p5393
aS'20.80\n'
p5394
aa(lp5395
S'11'
p5396
aS'8.392E-06'
p5397
aS'8.562E-07'
p5398
aS'-15.586904'
p5399
aS'-4.995E-07'
p5400
aS'20.87\n'
p5401
aa(lp5402
S'12'
p5403
aS'4.538E-06'
p5404
aS'4.385E-07'
p5405
aS'-15.586904'
p5406
aS'-1.218E-07'
p5407
aS'20.82\n'
p5408
aa(lp5409
S'13'
p5410
aS'2.533E-06'
p5411
aS'2.139E-07'
p5412
aS'-15.586904'
p5413
aS'-4.353E-08'
p5414
aS'20.90\n'
p5415
aa(lp5416
S'14'
p5417
aS'1.699E-06'
p5418
aS'1.290E-07'
p5419
aS'-15.586904'
p5420
aS'-1.137E-08'
p5421
aS'20.91\n'
p5422
aa(lp5423
S'15'
p5424
aS'9.761E-07'
p5425
aS'7.421E-08'
p5426
aS'-15.586904'
p5427
aS'-2.846E-09'
p5428
aS'21.02\n'
p5429
aa(lp5430
S'16'
p5431
aS'4.345E-07'
p5432
aS'4.042E-08'
p5433
aS'-15.586904'
p5434
aS'-6.834E-10'
p5435
aS'20.95\n'
p5436
aa(lp5437
S'17'
p5438
aS'2.723E-07'
p5439
aS'1.941E-08'
p5440
aS'-15.586904'
p5441
aS'-2.009E-10'
p5442
aS'20.77\n'
p5443
aa(lp5444
S'18'
p5445
aS'1.405E-07'
p5446
aS'8.535E-09'
p5447
aS'-15.586904'
p5448
aS'-5.372E-11'
p5449
aS'20.89\n'
p5450
aa(lp5451
S'19'
p5452
aS'6.566E-08'
p5453
aS'4.890E-09'
p5454
aS'-15.586904'
p5455
aS'-8.978E-12'
p5456
aS'20.24\n'
p5457
aasS'ESR'
p5458
F0.11579492
sS'ELECTROSTATIC ENERGY'
p5459
F-15.86647771
sS'EXCHANGE-CORRELATION ENERGY'
p5460
F-3.33059621
sS'LOCAL PSEUDOPOTENTIAL ENERGY'
p5461
F-6.58406891
sS'ESELF'
p5462
F16.62259502
sS'GRADIENT CORRECTION ENERGY'
p5463
F-0.07421588
sS'KINETIC ENERGY'
p5464
F6.36295081
sS'TOTAL ENERGY'
p5465
F-15.38782292
sS'N-L PSEUDOPOTENTIAL ENERGY'
p5466
F4.03036909
ssg182
Fnan
sg183
g3
(g184
g5
Ntp5467
Rp5468
(dp5469
g188
I00
sg189
g190
(g191
g5468
g184
tp5470
Rp5471
sg194
I00
sg195
S'GEOMETRY FILE / created by CPMD\n'
p5472
sg197
g190
(g198
g5468
g184
tp5473
Rp5474
sg201
(dp5475
sg203
I0
sg204
I00
sg205
(lp5476
sg207
I00
sg208
I0
sg209
(lp5477
g10
ag10
asg211
(dp5478
sg213
I2
sg214
(lp5479
g216
ag3968
asg218
g219
(g220
(I0
tp5480
g222
tp5481
Rp5482
(I1
(I2
I3
tp5483
g229
I00
S'\x01\xf8d\r\x00\x00\x14@\x01\xf8d\r\x00\x00\x14@\x01\xf8d\r\x00\x00\x14@\x9a:\xf2A33\x19@\x01\xf8d\r\x00\x00\x14@\x01\xf8d\r\x00\x00\x14@'
p5484
tp5485
bsg234
I00
sg235
g219
(g220
(I0
tp5486
g222
tp5487
Rp5488
(I1
(I2
tp5489
g229
I00
S'\x00\x00\x00\x00\x00\x00\xf0?\x00\x00\x00\x00\x00\x001@'
p5490
tp5491
bsg242
I00
sg11
S'H1Cl1'
p5492
sg244
I1
sg245
I00
sg246
g219
(g220
(I0
tp5493
g222
tp5494
Rp5495
(I1
(I1
I0
tp5496
g229
I00
g10
tp5497
bsbsg252
(dp5498
g254
(lp5499
I0
aI0
aI0
asg256
(lp5500
F0.75
aF0.75
aI0
asg258
(lp5501
F0.5
aF0.5
aF0.5
asg260
(lp5502
F0.1
aF0.25
aF0.25
asg262
(lp5503
I1
aF0.25
aI0
asg264
(lp5504
I1
aI0
aI0
assg266
S'hcl_ref13'
p5505
sg268
S'.out'
p5506
sg270
S'/home/samio/project/a02_alchemy_diatomic/reproduce/production_shifted_refs/hcl_ref13'
p5507
sg272
F-15.58690432
sg273
I19
sg274
g275
sbag3
(g4
g5
Ntp5508
Rp5509
(dp5510
g9
g10
sg11
S'hcl_ref14.out'
p5511
sg13
(dp5512
sg15
(dp5513
g17
(lp5514
(lp5515
g20
aS'1.990E-02'
p5516
aS'1.225E-03'
p5517
aS'-15.397401'
p5518
aS'0.000E+00'
p5519
aS'20.53\n'
p5520
aa(lp5521
g27
aS'1.127E-02'
p5522
aS'4.928E-04'
p5523
aS'-15.539847'
p5524
aS'-1.424E-01'
p5525
aS'20.64\n'
p5526
aa(lp5527
g34
aS'4.749E-03'
p5528
aS'2.007E-04'
p5529
aS'-15.575752'
p5530
aS'-3.590E-02'
p5531
aS'20.61\n'
p5532
aa(lp5533
g41
aS'2.472E-03'
p5534
aS'7.838E-05'
p5535
aS'-15.580020'
p5536
aS'-4.269E-03'
p5537
aS'20.38\n'
p5538
aa(lp5539
g48
aS'1.089E-03'
p5540
aS'4.056E-05'
p5541
aS'-15.580875'
p5542
aS'-8.544E-04'
p5543
aS'20.40\n'
p5544
aa(lp5545
g55
aS'4.695E-04'
p5546
aS'2.395E-05'
p5547
aS'-15.581069'
p5548
aS'-1.941E-04'
p5549
aS'20.59\n'
p5550
aa(lp5551
g62
aS'2.101E-04'
p5552
aS'1.423E-05'
p5553
aS'-15.581138'
p5554
aS'-6.890E-05'
p5555
aS'20.61\n'
p5556
aa(lp5557
g69
aS'1.119E-04'
p5558
aS'7.790E-06'
p5559
aS'-15.581167'
p5560
aS'-2.912E-05'
p5561
aS'20.73\n'
p5562
aa(lp5563
g76
aS'4.666E-05'
p5564
aS'3.622E-06'
p5565
aS'-15.581177'
p5566
aS'-1.039E-05'
p5567
aS'20.53\n'
p5568
aa(lp5569
S'10'
p5570
aS'1.902E-05'
p5571
aS'1.695E-06'
p5572
aS'-15.581180'
p5573
aS'-2.249E-06'
p5574
aS'20.76\n'
p5575
aa(lp5576
S'11'
p5577
aS'8.999E-06'
p5578
aS'8.028E-07'
p5579
aS'-15.581180'
p5580
aS'-4.645E-07'
p5581
aS'20.98\n'
p5582
aa(lp5583
S'12'
p5584
aS'4.520E-06'
p5585
aS'4.018E-07'
p5586
aS'-15.581180'
p5587
aS'-1.059E-07'
p5588
aS'20.93\n'
p5589
aa(lp5590
S'13'
p5591
aS'2.984E-06'
p5592
aS'1.900E-07'
p5593
aS'-15.581180'
p5594
aS'-3.507E-08'
p5595
aS'20.97\n'
p5596
aa(lp5597
S'14'
p5598
aS'2.093E-06'
p5599
aS'1.122E-07'
p5600
aS'-15.581180'
p5601
aS'-8.807E-09'
p5602
aS'21.02\n'
p5603
aa(lp5604
S'15'
p5605
aS'1.100E-06'
p5606
aS'6.617E-08'
p5607
aS'-15.581180'
p5608
aS'-2.342E-09'
p5609
aS'21.13\n'
p5610
aa(lp5611
S'16'
p5612
aS'5.558E-07'
p5613
aS'3.723E-08'
p5614
aS'-15.581180'
p5615
aS'-6.117E-10'
p5616
aS'21.00\n'
p5617
aa(lp5618
S'17'
p5619
aS'2.771E-07'
p5620
aS'1.832E-08'
p5621
aS'-15.581180'
p5622
aS'-1.997E-10'
p5623
aS'21.03\n'
p5624
aa(lp5625
S'18'
p5626
aS'1.380E-07'
p5627
aS'8.810E-09'
p5628
aS'-15.581180'
p5629
aS'-5.337E-11'
p5630
aS'20.98\n'
p5631
aa(lp5632
S'19'
p5633
aS'5.758E-08'
p5634
aS'5.222E-09'
p5635
aS'-15.581180'
p5636
aS'-8.651E-12'
p5637
aS'20.19\n'
p5638
aasS'ESR'
p5639
F0.07269975
sS'ELECTROSTATIC ENERGY'
p5640
F-15.91200709
sS'EXCHANGE-CORRELATION ENERGY'
p5641
F-3.31238596
sS'LOCAL PSEUDOPOTENTIAL ENERGY'
p5642
F-6.51521445
sS'ESELF'
p5643
F16.62259502
sS'GRADIENT CORRECTION ENERGY'
p5644
F-0.07433159
sS'KINETIC ENERGY'
p5645
F6.32397826
sS'TOTAL ENERGY'
p5646
F-15.39740135
sS'N-L PSEUDOPOTENTIAL ENERGY'
p5647
F4.0182279
ssg182
Fnan
sg183
g3
(g184
g5
Ntp5648
Rp5649
(dp5650
g188
I00
sg189
g190
(g191
g5649
g184
tp5651
Rp5652
sg194
I00
sg195
S'GEOMETRY FILE / created by CPMD\n'
p5653
sg197
g190
(g198
g5649
g184
tp5654
Rp5655
sg201
(dp5656
sg203
I0
sg204
I00
sg205
(lp5657
sg207
I00
sg208
I0
sg209
(lp5658
g10
ag10
asg211
(dp5659
sg213
I2
sg214
(lp5660
g216
ag3968
asg218
g219
(g220
(I0
tp5661
g222
tp5662
Rp5663
(I1
(I2
I3
tp5664
g229
I00
S'\x01\xf8d\r\x00\x00\x14@\x01\xf8d\r\x00\x00\x14@\x01\xf8d\r\x00\x00\x14@\xd0\xaa\x98\x92\x99\x99\x19@\x01\xf8d\r\x00\x00\x14@\x01\xf8d\r\x00\x00\x14@'
p5665
tp5666
bsg234
I00
sg235
g219
(g220
(I0
tp5667
g222
tp5668
Rp5669
(I1
(I2
tp5670
g229
I00
S'\x00\x00\x00\x00\x00\x00\xf0?\x00\x00\x00\x00\x00\x001@'
p5671
tp5672
bsg242
I00
sg11
S'H1Cl1'
p5673
sg244
I1
sg245
I00
sg246
g219
(g220
(I0
tp5674
g222
tp5675
Rp5676
(I1
(I1
I0
tp5677
g229
I00
g10
tp5678
bsbsg252
(dp5679
g254
(lp5680
I0
aI0
aI0
asg256
(lp5681
F0.75
aF0.75
aI0
asg258
(lp5682
F0.5
aF0.5
aF0.5
asg260
(lp5683
F0.1
aF0.25
aF0.25
asg262
(lp5684
I1
aF0.25
aI0
asg264
(lp5685
I1
aI0
aI0
assg266
S'hcl_ref14'
p5686
sg268
S'.out'
p5687
sg270
S'/home/samio/project/a02_alchemy_diatomic/reproduce/production_shifted_refs/hcl_ref14'
p5688
sg272
F-15.58118029
sg273
I19
sg274
g275
sbag3
(g4
g5
Ntp5689
Rp5690
(dp5691
g9
g10
sg11
S'hcl_ref15.out'
p5692
sg13
(dp5693
sg15
(dp5694
g17
(lp5695
(lp5696
g20
aS'1.992E-02'
p5697
aS'1.211E-03'
p5698
aS'-15.396892'
p5699
aS'0.000E+00'
p5700
aS'22.99\n'
p5701
aa(lp5702
g27
aS'1.123E-02'
p5703
aS'4.889E-04'
p5704
aS'-15.528211'
p5705
aS'-1.313E-01'
p5706
aS'22.53\n'
p5707
aa(lp5708
g34
aS'4.790E-03'
p5709
aS'1.964E-04'
p5710
aS'-15.564272'
p5711
aS'-3.606E-02'
p5712
aS'22.82\n'
p5713
aa(lp5714
g41
aS'2.561E-03'
p5715
aS'7.581E-05'
p5716
aS'-15.568394'
p5717
aS'-4.123E-03'
p5718
aS'22.94\n'
p5719
aa(lp5720
g48
aS'1.082E-03'
p5721
aS'3.830E-05'
p5722
aS'-15.569253'
p5723
aS'-8.583E-04'
p5724
aS'23.12\n'
p5725
aa(lp5726
g55
aS'4.937E-04'
p5727
aS'2.209E-05'
p5728
aS'-15.569438'
p5729
aS'-1.857E-04'
p5730
aS'23.57\n'
p5731
aa(lp5732
g62
aS'2.283E-04'
p5733
aS'1.276E-05'
p5734
aS'-15.569502'
p5735
aS'-6.386E-05'
p5736
aS'23.45\n'
p5737
aa(lp5738
g69
aS'1.166E-04'
p5739
aS'6.870E-06'
p5740
aS'-15.569528'
p5741
aS'-2.535E-05'
p5742
aS'24.41\n'
p5743
aa(lp5744
g76
aS'4.418E-05'
p5745
aS'3.345E-06'
p5746
aS'-15.569536'
p5747
aS'-8.299E-06'
p5748
aS'24.80\n'
p5749
aa(lp5750
S'10'
p5751
aS'1.816E-05'
p5752
aS'1.615E-06'
p5753
aS'-15.569538'
p5754
aS'-1.948E-06'
p5755
aS'24.21\n'
p5756
aa(lp5757
S'11'
p5758
aS'9.271E-06'
p5759
aS'7.657E-07'
p5760
aS'-15.569538'
p5761
aS'-4.355E-07'
p5762
aS'24.19\n'
p5763
aa(lp5764
S'12'
p5765
aS'5.001E-06'
p5766
aS'3.862E-07'
p5767
aS'-15.569538'
p5768
aS'-9.560E-08'
p5769
aS'24.19\n'
p5770
aa(lp5771
S'13'
p5772
aS'3.089E-06'
p5773
aS'1.803E-07'
p5774
aS'-15.569538'
p5775
aS'-3.067E-08'
p5776
aS'24.06\n'
p5777
aa(lp5778
S'14'
p5779
aS'1.820E-06'
p5780
aS'1.016E-07'
p5781
aS'-15.569538'
p5782
aS'-7.312E-09'
p5783
aS'24.12\n'
p5784
aa(lp5785
S'15'
p5786
aS'7.618E-07'
p5787
aS'5.926E-08'
p5788
aS'-15.569538'
p5789
aS'-1.944E-09'
p5790
aS'24.33\n'
p5791
aa(lp5792
S'16'
p5793
aS'4.283E-07'
p5794
aS'3.366E-08'
p5795
aS'-15.569538'
p5796
aS'-5.374E-10'
p5797
aS'25.04\n'
p5798
aa(lp5799
S'17'
p5800
aS'2.147E-07'
p5801
aS'1.702E-08'
p5802
aS'-15.569538'
p5803
aS'-1.817E-10'
p5804
aS'21.65\n'
p5805
aa(lp5806
S'18'
p5807
aS'1.022E-07'
p5808
aS'8.834E-09'
p5809
aS'-15.569538'
p5810
aS'-5.236E-11'
p5811
aS'20.74\n'
p5812
aa(lp5813
S'19'
p5814
aS'5.248E-08'
p5815
aS'5.302E-09'
p5816
aS'-15.569538'
p5817
aS'-7.693E-12'
p5818
aS'20.20\n'
p5819
aasS'ESR'
p5820
F0.04486802
sS'ELECTROSTATIC ENERGY'
p5821
F-15.94078838
sS'EXCHANGE-CORRELATION ENERGY'
p5822
F-3.2955112
sS'LOCAL PSEUDOPOTENTIAL ENERGY'
p5823
F-6.46305745
sS'ESELF'
p5824
F16.62259502
sS'GRADIENT CORRECTION ENERGY'
p5825
F-0.07456208
sS'KINETIC ENERGY'
p5826
F6.29242377
sS'TOTAL ENERGY'
p5827
F-15.39689196
sS'N-L PSEUDOPOTENTIAL ENERGY'
p5828
F4.0100413
ssg182
Fnan
sg183
g3
(g184
g5
Ntp5829
Rp5830
(dp5831
g188
I00
sg189
g190
(g191
g5830
g184
tp5832
Rp5833
sg194
I00
sg195
S'GEOMETRY FILE / created by CPMD\n'
p5834
sg197
g190
(g198
g5830
g184
tp5835
Rp5836
sg201
(dp5837
sg203
I0
sg204
I00
sg205
(lp5838
sg207
I00
sg208
I0
sg209
(lp5839
g10
ag10
asg211
(dp5840
sg213
I2
sg214
(lp5841
g216
ag3968
asg218
g219
(g220
(I0
tp5842
g222
tp5843
Rp5844
(I1
(I2
I3
tp5845
g229
I00
S'\x01\xf8d\r\x00\x00\x14@\x01\xf8d\r\x00\x00\x14@\x01\xf8d\r\x00\x00\x14@\x02M\xc2\x06\x00\x00\x1a@\x01\xf8d\r\x00\x00\x14@\x01\xf8d\r\x00\x00\x14@'
p5846
tp5847
bsg234
I00
sg235
g219
(g220
(I0
tp5848
g222
tp5849
Rp5850
(I1
(I2
tp5851
g229
I00
S'\x00\x00\x00\x00\x00\x00\xf0?\x00\x00\x00\x00\x00\x001@'
p5852
tp5853
bsg242
I00
sg11
S'H1Cl1'
p5854
sg244
I1
sg245
I00
sg246
g219
(g220
(I0
tp5855
g222
tp5856
Rp5857
(I1
(I1
I0
tp5858
g229
I00
g10
tp5859
bsbsg252
(dp5860
g254
(lp5861
I0
aI0
aI0
asg256
(lp5862
F0.75
aF0.75
aI0
asg258
(lp5863
F0.5
aF0.5
aF0.5
asg260
(lp5864
F0.1
aF0.25
aF0.25
asg262
(lp5865
I1
aF0.25
aI0
asg264
(lp5866
I1
aI0
aI0
assg266
S'hcl_ref15'
p5867
sg268
S'.out'
p5868
sg270
S'/home/samio/project/a02_alchemy_diatomic/reproduce/production_shifted_refs/hcl_ref15'
p5869
sg272
F-15.56953836
sg273
I19
sg274
g275
sbag3
(g4
g5
Ntp5870
Rp5871
(dp5872
g9
g10
sg11
S'hcl_ref16.out'
p5873
sg13
(dp5874
sg15
(dp5875
g17
(lp5876
(lp5877
g20
aS'1.987E-02'
p5878
aS'1.201E-03'
p5879
aS'-15.390180'
p5880
aS'0.000E+00'
p5881
aS'20.78\n'
p5882
aa(lp5883
g27
aS'1.105E-02'
p5884
aS'4.859E-04'
p5885
aS'-15.513555'
p5886
aS'-1.234E-01'
p5887
aS'20.88\n'
p5888
aa(lp5889
g34
aS'4.859E-03'
p5890
aS'1.933E-04'
p5891
aS'-15.549656'
p5892
aS'-3.610E-02'
p5893
aS'20.79\n'
p5894
aa(lp5895
g41
aS'2.621E-03'
p5896
aS'7.423E-05'
p5897
aS'-15.553674'
p5898
aS'-4.018E-03'
p5899
aS'20.73\n'
p5900
aa(lp5901
g48
aS'1.081E-03'
p5902
aS'3.696E-05'
p5903
aS'-15.554551'
p5904
aS'-8.768E-04'
p5905
aS'20.73\n'
p5906
aa(lp5907
g55
aS'5.137E-04'
p5908
aS'2.081E-05'
p5909
aS'-15.554735'
p5910
aS'-1.840E-04'
p5911
aS'20.53\n'
p5912
aa(lp5913
g62
aS'2.553E-04'
p5914
aS'1.167E-05'
p5915
aS'-15.554796'
p5916
aS'-6.132E-05'
p5917
aS'20.68\n'
p5918
aa(lp5919
g69
aS'1.299E-04'
p5920
aS'6.134E-06'
p5921
aS'-15.554819'
p5922
aS'-2.301E-05'
p5923
aS'20.85\n'
p5924
aa(lp5925
g76
aS'4.736E-05'
p5926
aS'3.116E-06'
p5927
aS'-15.554826'
p5928
aS'-6.726E-06'
p5929
aS'20.64\n'
p5930
aa(lp5931
S'10'
p5932
aS'2.023E-05'
p5933
aS'1.539E-06'
p5934
aS'-15.554827'
p5935
aS'-1.709E-06'
p5936
aS'20.72\n'
p5937
aa(lp5938
S'11'
p5939
aS'9.079E-06'
p5940
aS'7.366E-07'
p5941
aS'-15.554828'
p5942
aS'-4.056E-07'
p5943
aS'20.80\n'
p5944
aa(lp5945
S'12'
p5946
aS'5.060E-06'
p5947
aS'3.788E-07'
p5948
aS'-15.554828'
p5949
aS'-8.712E-08'
p5950
aS'20.80\n'
p5951
aa(lp5952
S'13'
p5953
aS'3.126E-06'
p5954
aS'1.771E-07'
p5955
aS'-15.554828'
p5956
aS'-2.813E-08'
p5957
aS'20.70\n'
p5958
aa(lp5959
S'14'
p5960
aS'1.688E-06'
p5961
aS'9.520E-08'
p5962
aS'-15.554828'
p5963
aS'-6.505E-09'
p5964
aS'20.91\n'
p5965
aa(lp5966
S'15'
p5967
aS'8.382E-07'
p5968
aS'5.406E-08'
p5969
aS'-15.554828'
p5970
aS'-1.614E-09'
p5971
aS'21.00\n'
p5972
aa(lp5973
S'16'
p5974
aS'3.766E-07'
p5975
aS'3.079E-08'
p5976
aS'-15.554828'
p5977
aS'-4.522E-10'
p5978
aS'20.96\n'
p5979
aa(lp5980
S'17'
p5981
aS'2.192E-07'
p5982
aS'1.587E-08'
p5983
aS'-15.554828'
p5984
aS'-1.643E-10'
p5985
aS'20.90\n'
p5986
aa(lp5987
S'18'
p5988
aS'9.291E-08'
p5989
aS'8.627E-09'
p5990
aS'-15.554828'
p5991
aS'-4.740E-11'
p5992
aS'20.90\n'
p5993
aasS'ESR'
p5994
F0.02719761
sS'ELECTROSTATIC ENERGY'
p5995
F-15.95801645
sS'EXCHANGE-CORRELATION ENERGY'
p5996
F-3.28009812
sS'LOCAL PSEUDOPOTENTIAL ENERGY'
p5997
F-6.424265
sS'ESELF'
p5998
F16.62259502
sS'GRADIENT CORRECTION ENERGY'
p5999
F-0.07490864
sS'KINETIC ENERGY'
p6000
F6.26785766
sS'TOTAL ENERGY'
p6001
F-15.39017953
sS'N-L PSEUDOPOTENTIAL ENERGY'
p6002
F4.00434238
ssg182
Fnan
sg183
g3
(g184
g5
Ntp6003
Rp6004
(dp6005
g188
I00
sg189
g190
(g191
g6004
g184
tp6006
Rp6007
sg194
I00
sg195
S'GEOMETRY FILE / created by CPMD\n'
p6008
sg197
g190
(g198
g6004
g184
tp6009
Rp6010
sg201
(dp6011
sg203
I0
sg204
I00
sg205
(lp6012
sg207
I00
sg208
I0
sg209
(lp6013
g10
ag10
asg211
(dp6014
sg213
I2
sg214
(lp6015
g216
ag3968
asg218
g219
(g220
(I0
tp6016
g222
tp6017
Rp6018
(I1
(I2
I3
tp6019
g229
I00
S'\x01\xf8d\r\x00\x00\x14@\x01\xf8d\r\x00\x00\x14@\x01\xf8d\r\x00\x00\x14@7\xbdhWff\x1a@\x01\xf8d\r\x00\x00\x14@\x01\xf8d\r\x00\x00\x14@'
p6020
tp6021
bsg234
I00
sg235
g219
(g220
(I0
tp6022
g222
tp6023
Rp6024
(I1
(I2
tp6025
g229
I00
S'\x00\x00\x00\x00\x00\x00\xf0?\x00\x00\x00\x00\x00\x001@'
p6026
tp6027
bsg242
I00
sg11
S'H1Cl1'
p6028
sg244
I1
sg245
I00
sg246
g219
(g220
(I0
tp6029
g222
tp6030
Rp6031
(I1
(I1
I0
tp6032
g229
I00
g10
tp6033
bsbsg252
(dp6034
g254
(lp6035
I0
aI0
aI0
asg256
(lp6036
F0.75
aF0.75
aI0
asg258
(lp6037
F0.5
aF0.5
aF0.5
asg260
(lp6038
F0.1
aF0.25
aF0.25
asg262
(lp6039
I1
aF0.25
aI0
asg264
(lp6040
I1
aI0
aI0
assg266
S'hcl_ref16'
p6041
sg268
S'.out'
p6042
sg270
S'/home/samio/project/a02_alchemy_diatomic/reproduce/production_shifted_refs/hcl_ref16'
p6043
sg272
F-15.55482802
sg273
I18
sg274
g275
sbag3
(g4
g5
Ntp6044
Rp6045
(dp6046
g9
g10
sg11
S'hcl_ref17.out'
p6047
sg13
(dp6048
sg15
(dp6049
g17
(lp6050
(lp6051
g20
aS'1.977E-02'
p6052
aS'1.195E-03'
p6053
aS'-15.379770'
p6054
aS'0.000E+00'
p6055
aS'18.08\n'
p6056
aa(lp6057
g27
aS'1.095E-02'
p6058
aS'4.833E-04'
p6059
aS'-15.497627'
p6060
aS'-1.179E-01'
p6061
aS'17.31\n'
p6062
aa(lp6063
g34
aS'4.848E-03'
p6064
aS'1.915E-04'
p6065
aS'-15.533630'
p6066
aS'-3.600E-02'
p6067
aS'16.61\n'
p6068
aa(lp6069
g41
aS'2.676E-03'
p6070
aS'7.348E-05'
p6071
aS'-15.537623'
p6072
aS'-3.993E-03'
p6073
aS'17.57\n'
p6074
aa(lp6075
g48
aS'1.124E-03'
p6076
aS'3.614E-05'
p6077
aS'-15.538528'
p6078
aS'-9.054E-04'
p6079
aS'16.43\n'
p6080
aa(lp6081
g55
aS'5.438E-04'
p6082
aS'2.006E-05'
p6083
aS'-15.538717'
p6084
aS'-1.885E-04'
p6085
aS'18.23\n'
p6086
aa(lp6087
g62
aS'2.776E-04'
p6088
aS'1.094E-05'
p6089
aS'-15.538779'
p6090
aS'-6.166E-05'
p6091
aS'18.53\n'
p6092
aa(lp6093
g69
aS'1.383E-04'
p6094
aS'5.599E-06'
p6095
aS'-15.538800'
p6096
aS'-2.180E-05'
p6097
aS'16.55\n'
p6098
aa(lp6099
g76
aS'4.912E-05'
p6100
aS'2.929E-06'
p6101
aS'-15.538806'
p6102
aS'-5.649E-06'
p6103
aS'19.98\n'
p6104
aa(lp6105
S'10'
p6106
aS'2.068E-05'
p6107
aS'1.480E-06'
p6108
aS'-15.538808'
p6109
aS'-1.507E-06'
p6110
aS'19.89\n'
p6111
aa(lp6112
S'11'
p6113
aS'8.936E-06'
p6114
aS'7.267E-07'
p6115
aS'-15.538808'
p6116
aS'-3.784E-07'
p6117
aS'18.93\n'
p6118
aa(lp6119
S'12'
p6120
aS'5.050E-06'
p6121
aS'3.787E-07'
p6122
aS'-15.538808'
p6123
aS'-8.555E-08'
p6124
aS'18.41\n'
p6125
aa(lp6126
S'13'
p6127
aS'3.591E-06'
p6128
aS'1.771E-07'
p6129
aS'-15.538808'
p6130
aS'-2.754E-08'
p6131
aS'17.35\n'
p6132
aa(lp6133
S'14'
p6134
aS'1.800E-06'
p6135
aS'9.227E-08'
p6136
aS'-15.538808'
p6137
aS'-6.176E-09'
p6138
aS'17.34\n'
p6139
aa(lp6140
S'15'
p6141
aS'6.756E-07'
p6142
aS'5.077E-08'
p6143
aS'-15.538808'
p6144
aS'-1.426E-09'
p6145
aS'17.31\n'
p6146
aa(lp6147
S'16'
p6148
aS'2.928E-07'
p6149
aS'2.860E-08'
p6150
aS'-15.538808'
p6151
aS'-3.956E-10'
p6152
aS'17.32\n'
p6153
aa(lp6154
S'17'
p6155
aS'1.848E-07'
p6156
aS'1.508E-08'
p6157
aS'-15.538808'
p6158
aS'-1.405E-10'
p6159
aS'17.35\n'
p6160
aa(lp6161
S'18'
p6162
aS'9.445E-08'
p6163
aS'8.300E-09'
p6164
aS'-15.538808'
p6165
aS'-4.463E-11'
p6166
aS'17.38\n'
p6167
aasS'ESR'
p6168
F0.01618095
sS'ELECTROSTATIC ENERGY'
p6169
F-15.96735848
sS'EXCHANGE-CORRELATION ENERGY'
p6170
F-3.2662134
sS'LOCAL PSEUDOPOTENTIAL ENERGY'
p6171
F-6.39596793
sS'ESELF'
p6172
F16.62259502
sS'GRADIENT CORRECTION ENERGY'
p6173
F-0.07536548
sS'KINETIC ENERGY'
p6174
F6.2496694
sS'TOTAL ENERGY'
p6175
F-15.37976973
sS'N-L PSEUDOPOTENTIAL ENERGY'
p6176
F4.00010069
ssg182
Fnan
sg183
g3
(g184
g5
Ntp6177
Rp6178
(dp6179
g188
I00
sg189
g190
(g191
g6178
g184
tp6180
Rp6181
sg194
I00
sg195
S'GEOMETRY FILE / created by CPMD\n'
p6182
sg197
g190
(g198
g6178
g184
tp6183
Rp6184
sg201
(dp6185
sg203
I0
sg204
I00
sg205
(lp6186
sg207
I00
sg208
I0
sg209
(lp6187
g10
ag10
asg211
(dp6188
sg213
I2
sg214
(lp6189
g216
ag3968
asg218
g219
(g220
(I0
tp6190
g222
tp6191
Rp6192
(I1
(I2
I3
tp6193
g229
I00
S'\x01\xf8d\r\x00\x00\x14@\x01\xf8d\r\x00\x00\x14@\x01\xf8d\r\x00\x00\x14@i_\x92\xcb\xcc\xcc\x1a@\x01\xf8d\r\x00\x00\x14@\x01\xf8d\r\x00\x00\x14@'
p6194
tp6195
bsg234
I00
sg235
g219
(g220
(I0
tp6196
g222
tp6197
Rp6198
(I1
(I2
tp6199
g229
I00
S'\x00\x00\x00\x00\x00\x00\xf0?\x00\x00\x00\x00\x00\x001@'
p6200
tp6201
bsg242
I00
sg11
S'H1Cl1'
p6202
sg244
I1
sg245
I00
sg246
g219
(g220
(I0
tp6203
g222
tp6204
Rp6205
(I1
(I1
I0
tp6206
g229
I00
g10
tp6207
bsbsg252
(dp6208
g254
(lp6209
I0
aI0
aI0
asg256
(lp6210
F0.75
aF0.75
aI0
asg258
(lp6211
F0.5
aF0.5
aF0.5
asg260
(lp6212
F0.1
aF0.25
aF0.25
asg262
(lp6213
I1
aF0.25
aI0
asg264
(lp6214
I1
aI0
aI0
assg266
S'hcl_ref17'
p6215
sg268
S'.out'
p6216
sg270
S'/home/samio/project/a02_alchemy_diatomic/reproduce/production_shifted_refs/hcl_ref17'
p6217
sg272
F-15.53880803
sg273
I18
sg274
g275
sbag3
(g4
g5
Ntp6218
Rp6219
(dp6220
g9
g10
sg11
S'hcl_ref18.out'
p6221
sg13
(dp6222
sg15
(dp6223
g17
(lp6224
(lp6225
g20
aS'1.962E-02'
p6226
aS'1.190E-03'
p6227
aS'-15.367293'
p6228
aS'0.000E+00'
p6229
aS'16.58\n'
p6230
aa(lp6231
g27
aS'1.083E-02'
p6232
aS'4.821E-04'
p6233
aS'-15.481454'
p6234
aS'-1.142E-01'
p6235
aS'16.52\n'
p6236
aa(lp6237
g34
aS'4.847E-03'
p6238
aS'1.906E-04'
p6239
aS'-15.517340'
p6240
aS'-3.589E-02'
p6241
aS'16.45\n'
p6242
aa(lp6243
g41
aS'2.523E-03'
p6244
aS'7.307E-05'
p6245
aS'-15.521337'
p6246
aS'-3.997E-03'
p6247
aS'16.47\n'
p6248
aa(lp6249
g48
aS'1.014E-03'
p6250
aS'3.558E-05'
p6251
aS'-15.522272'
p6252
aS'-9.355E-04'
p6253
aS'16.43\n'
p6254
aa(lp6255
g55
aS'5.098E-04'
p6256
aS'1.945E-05'
p6257
aS'-15.522468'
p6258
aS'-1.959E-04'
p6259
aS'16.38\n'
p6260
aa(lp6261
g62
aS'2.612E-04'
p6262
aS'1.031E-05'
p6263
aS'-15.522530'
p6264
aS'-6.247E-05'
p6265
aS'16.44\n'
p6266
aa(lp6267
g69
aS'1.171E-04'
p6268
aS'5.213E-06'
p6269
aS'-15.522551'
p6270
aS'-2.021E-05'
p6271
aS'16.53\n'
p6272
aa(lp6273
g76
aS'3.955E-05'
p6274
aS'2.762E-06'
p6275
aS'-15.522556'
p6276
aS'-4.851E-06'
p6277
aS'16.53\n'
p6278
aa(lp6279
S'10'
p6280
aS'1.658E-05'
p6281
aS'1.408E-06'
p6282
aS'-15.522557'
p6283
aS'-1.334E-06'
p6284
aS'16.57\n'
p6285
aa(lp6286
S'11'
p6287
aS'8.672E-06'
p6288
aS'6.984E-07'
p6289
aS'-15.522557'
p6290
aS'-3.506E-07'
p6291
aS'16.53\n'
p6292
aa(lp6293
S'12'
p6294
aS'4.963E-06'
p6295
aS'3.711E-07'
p6296
aS'-15.522557'
p6297
aS'-7.956E-08'
p6298
aS'16.51\n'
p6299
aa(lp6300
S'13'
p6301
aS'2.963E-06'
p6302
aS'1.747E-07'
p6303
aS'-15.522557'
p6304
aS'-2.649E-08'
p6305
aS'16.52\n'
p6306
aa(lp6307
S'14'
p6308
aS'1.613E-06'
p6309
aS'8.776E-08'
p6310
aS'-15.522557'
p6311
aS'-5.889E-09'
p6312
aS'16.55\n'
p6313
aa(lp6314
S'15'
p6315
aS'6.946E-07'
p6316
aS'4.719E-08'
p6317
aS'-15.522557'
p6318
aS'-1.229E-09'
p6319
aS'16.57\n'
p6320
aa(lp6321
S'16'
p6322
aS'3.857E-07'
p6323
aS'2.642E-08'
p6324
aS'-15.522557'
p6325
aS'-3.285E-10'
p6326
aS'16.54\n'
p6327
aa(lp6328
S'17'
p6329
aS'1.920E-07'
p6330
aS'1.423E-08'
p6331
aS'-15.522557'
p6332
aS'-1.157E-10'
p6333
aS'16.54\n'
p6334
aa(lp6335
S'18'
p6336
aS'1.134E-07'
p6337
aS'7.789E-09'
p6338
aS'-15.522557'
p6339
aS'-4.184E-11'
p6340
aS'16.57\n'
p6341
aa(lp6342
S'19'
p6343
aS'5.787E-08'
p6344
aS'4.789E-09'
p6345
aS'-15.522557'
p6346
aS'-8.477E-12'
p6347
aS'16.64\n'
p6348
aasS'ESR'
p6349
F0.00944265
sS'ELECTROSTATIC ENERGY'
p6350
F-15.97135793
sS'EXCHANGE-CORRELATION ENERGY'
p6351
F-3.25386574
sS'LOCAL PSEUDOPOTENTIAL ENERGY'
p6352
F-6.37573877
sS'ESELF'
p6353
F16.62259502
sS'GRADIENT CORRECTION ENERGY'
p6354
F-0.07592391
sS'KINETIC ENERGY'
p6355
F6.23707266
sS'TOTAL ENERGY'
p6356
F-15.36729267
sS'N-L PSEUDOPOTENTIAL ENERGY'
p6357
F3.9965971
ssg182
Fnan
sg183
g3
(g184
g5
Ntp6358
Rp6359
(dp6360
g188
I00
sg189
g190
(g191
g6359
g184
tp6361
Rp6362
sg194
I00
sg195
S'GEOMETRY FILE / created by CPMD\n'
p6363
sg197
g190
(g198
g6359
g184
tp6364
Rp6365
sg201
(dp6366
sg203
I0
sg204
I00
sg205
(lp6367
sg207
I00
sg208
I0
sg209
(lp6368
g10
ag10
asg211
(dp6369
sg213
I2
sg214
(lp6370
g216
ag3968
asg218
g219
(g220
(I0
tp6371
g222
tp6372
Rp6373
(I1
(I2
I3
tp6374
g229
I00
S'\x01\xf8d\r\x00\x00\x14@\x01\xf8d\r\x00\x00\x14@\x01\xf8d\r\x00\x00\x14@\x9b\x01\xbc?33\x1b@\x01\xf8d\r\x00\x00\x14@\x01\xf8d\r\x00\x00\x14@'
p6375
tp6376
bsg234
I00
sg235
g219
(g220
(I0
tp6377
g222
tp6378
Rp6379
(I1
(I2
tp6380
g229
I00
S'\x00\x00\x00\x00\x00\x00\xf0?\x00\x00\x00\x00\x00\x001@'
p6381
tp6382
bsg242
I00
sg11
S'H1Cl1'
p6383
sg244
I1
sg245
I00
sg246
g219
(g220
(I0
tp6384
g222
tp6385
Rp6386
(I1
(I1
I0
tp6387
g229
I00
g10
tp6388
bsbsg252
(dp6389
g254
(lp6390
I0
aI0
aI0
asg256
(lp6391
F0.75
aF0.75
aI0
asg258
(lp6392
F0.5
aF0.5
aF0.5
asg260
(lp6393
F0.1
aF0.25
aF0.25
asg262
(lp6394
I1
aF0.25
aI0
asg264
(lp6395
I1
aI0
aI0
assg266
S'hcl_ref18'
p6396
sg268
S'.out'
p6397
sg270
S'/home/samio/project/a02_alchemy_diatomic/reproduce/production_shifted_refs/hcl_ref18'
p6398
sg272
F-15.52255731
sg273
I19
sg274
g275
sbag3
(g4
g5
Ntp6399
Rp6400
(dp6401
g9
g10
sg11
S'hcl_ref19.out'
p6402
sg13
(dp6403
sg15
(dp6404
g17
(lp6405
(lp6406
g20
aS'1.943E-02'
p6407
aS'1.188E-03'
p6408
aS'-15.353786'
p6409
aS'0.000E+00'
p6410
aS'16.42\n'
p6411
aa(lp6412
g27
aS'1.084E-02'
p6413
aS'4.806E-04'
p6414
aS'-15.465883'
p6415
aS'-1.121E-01'
p6416
aS'16.38\n'
p6417
aa(lp6418
g34
aS'4.885E-03'
p6419
aS'1.900E-04'
p6420
aS'-15.501443'
p6421
aS'-3.556E-02'
p6422
aS'16.36\n'
p6423
aa(lp6424
g41
aS'2.642E-03'
p6425
aS'7.304E-05'
p6426
aS'-15.505468'
p6427
aS'-4.025E-03'
p6428
aS'16.33\n'
p6429
aa(lp6430
g48
aS'1.082E-03'
p6431
aS'3.532E-05'
p6432
aS'-15.506433'
p6433
aS'-9.645E-04'
p6434
aS'16.69\n'
p6435
aa(lp6436
g55
aS'5.435E-04'
p6437
aS'1.911E-05'
p6438
aS'-15.506639'
p6439
aS'-2.064E-04'
p6440
aS'16.42\n'
p6441
aa(lp6442
g62
aS'2.930E-04'
p6443
aS'9.836E-06'
p6444
aS'-15.506703'
p6445
aS'-6.399E-05'
p6446
aS'16.48\n'
p6447
aa(lp6448
g69
aS'1.322E-04'
p6449
aS'4.916E-06'
p6450
aS'-15.506722'
p6451
aS'-1.901E-05'
p6452
aS'16.53\n'
p6453
aa(lp6454
g76
aS'4.389E-05'
p6455
aS'2.635E-06'
p6456
aS'-15.506726'
p6457
aS'-4.209E-06'
p6458
aS'16.51\n'
p6459
aa(lp6460
S'10'
p6461
aS'1.672E-05'
p6462
aS'1.358E-06'
p6463
aS'-15.506727'
p6464
aS'-1.181E-06'
p6465
aS'16.47\n'
p6466
aa(lp6467
S'11'
p6468
aS'8.480E-06'
p6469
aS'6.773E-07'
p6470
aS'-15.506728'
p6471
aS'-3.301E-07'
p6472
aS'16.50\n'
p6473
aa(lp6474
S'12'
p6475
aS'4.719E-06'
p6476
aS'3.672E-07'
p6477
aS'-15.506728'
p6478
aS'-7.459E-08'
p6479
aS'16.51\n'
p6480
aa(lp6481
S'13'
p6482
aS'2.656E-06'
p6483
aS'1.750E-07'
p6484
aS'-15.506728'
p6485
aS'-2.585E-08'
p6486
aS'16.53\n'
p6487
aa(lp6488
S'14'
p6489
aS'1.659E-06'
p6490
aS'8.724E-08'
p6491
aS'-15.506728'
p6492
aS'-5.768E-09'
p6493
aS'16.53\n'
p6494
aa(lp6495
S'15'
p6496
aS'7.855E-07'
p6497
aS'4.492E-08'
p6498
aS'-15.506728'
p6499
aS'-1.220E-09'
p6500
aS'16.54\n'
p6501
aa(lp6502
S'16'
p6503
aS'4.218E-07'
p6504
aS'2.472E-08'
p6505
aS'-15.506728'
p6506
aS'-2.873E-10'
p6507
aS'16.54\n'
p6508
aa(lp6509
S'17'
p6510
aS'1.981E-07'
p6511
aS'1.335E-08'
p6512
aS'-15.506728'
p6513
aS'-9.696E-11'
p6514
aS'16.54\n'
p6515
aa(lp6516
S'18'
p6517
aS'1.192E-07'
p6518
aS'7.257E-09'
p6519
aS'-15.506728'
p6520
aS'-3.644E-11'
p6521
aS'16.52\n'
p6522
aa(lp6523
S'19'
p6524
aS'6.787E-08'
p6525
aS'4.420E-09'
p6526
aS'-15.506728'
p6527
aS'-8.901E-12'
p6528
aS'16.01\n'
p6529
aasS'ESR'
p6530
F0.00540226
sS'ELECTROSTATIC ENERGY'
p6531
F-15.97172881
sS'EXCHANGE-CORRELATION ENERGY'
p6532
F-3.24300801
sS'LOCAL PSEUDOPOTENTIAL ENERGY'
p6533
F-6.36156927
sS'ESELF'
p6534
F16.62259502
sS'GRADIENT CORRECTION ENERGY'
p6535
F-0.07657045
sS'KINETIC ENERGY'
p6536
F6.22919648
sS'TOTAL ENERGY'
p6537
F-15.3537856
sS'N-L PSEUDOPOTENTIAL ENERGY'
p6538
F3.99332401
ssg182
Fnan
sg183
g3
(g184
g5
Ntp6539
Rp6540
(dp6541
g188
I00
sg189
g190
(g191
g6540
g184
tp6542
Rp6543
sg194
I00
sg195
S'GEOMETRY FILE / created by CPMD\n'
p6544
sg197
g190
(g198
g6540
g184
tp6545
Rp6546
sg201
(dp6547
sg203
I0
sg204
I00
sg205
(lp6548
sg207
I00
sg208
I0
sg209
(lp6549
g10
ag10
asg211
(dp6550
sg213
I2
sg214
(lp6551
g216
ag3968
asg218
g219
(g220
(I0
tp6552
g222
tp6553
Rp6554
(I1
(I2
I3
tp6555
g229
I00
S'\x01\xf8d\r\x00\x00\x14@\x01\xf8d\r\x00\x00\x14@\x01\xf8d\r\x00\x00\x14@\xd1qb\x90\x99\x99\x1b@\x01\xf8d\r\x00\x00\x14@\x01\xf8d\r\x00\x00\x14@'
p6556
tp6557
bsg234
I00
sg235
g219
(g220
(I0
tp6558
g222
tp6559
Rp6560
(I1
(I2
tp6561
g229
I00
S'\x00\x00\x00\x00\x00\x00\xf0?\x00\x00\x00\x00\x00\x001@'
p6562
tp6563
bsg242
I00
sg11
S'H1Cl1'
p6564
sg244
I1
sg245
I00
sg246
g219
(g220
(I0
tp6565
g222
tp6566
Rp6567
(I1
(I1
I0
tp6568
g229
I00
g10
tp6569
bsbsg252
(dp6570
g254
(lp6571
I0
aI0
aI0
asg256
(lp6572
F0.75
aF0.75
aI0
asg258
(lp6573
F0.5
aF0.5
aF0.5
asg260
(lp6574
F0.1
aF0.25
aF0.25
asg262
(lp6575
I1
aF0.25
aI0
asg264
(lp6576
I1
aI0
aI0
assg266
S'hcl_ref19'
p6577
sg268
S'.out'
p6578
sg270
S'/home/samio/project/a02_alchemy_diatomic/reproduce/production_shifted_refs/hcl_ref19'
p6579
sg272
F-15.50672793
sg273
I19
sg274
g275
sbag3
(g4
g5
Ntp6580
Rp6581
(dp6582
g9
g10
sg11
S'hcl_ref20.out'
p6583
sg13
(dp6584
sg15
(dp6585
g17
(lp6586
(lp6587
g20
aS'1.922E-02'
p6588
aS'1.186E-03'
p6589
aS'-15.339907'
p6590
aS'0.000E+00'
p6591
aS'16.41\n'
p6592
aa(lp6593
g27
aS'1.092E-02'
p6594
aS'4.791E-04'
p6595
aS'-15.451084'
p6596
aS'-1.112E-01'
p6597
aS'16.39\n'
p6598
aa(lp6599
g34
aS'4.900E-03'
p6600
aS'1.900E-04'
p6601
aS'-15.486323'
p6602
aS'-3.524E-02'
p6603
aS'16.40\n'
p6604
aa(lp6605
g41
aS'2.557E-03'
p6606
aS'7.300E-05'
p6607
aS'-15.490409'
p6608
aS'-4.086E-03'
p6609
aS'16.38\n'
p6610
aa(lp6611
g48
aS'1.027E-03'
p6612
aS'3.513E-05'
p6613
aS'-15.491393'
p6614
aS'-9.844E-04'
p6615
aS'16.33\n'
p6616
aa(lp6617
g55
aS'5.287E-04'
p6618
aS'1.890E-05'
p6619
aS'-15.491613'
p6620
aS'-2.192E-04'
p6621
aS'16.39\n'
p6622
aa(lp6623
g62
aS'2.965E-04'
p6624
aS'9.563E-06'
p6625
aS'-15.491678'
p6626
aS'-6.527E-05'
p6627
aS'16.45\n'
p6628
aa(lp6629
g69
aS'1.256E-04'
p6630
aS'4.721E-06'
p6631
aS'-15.491696'
p6632
aS'-1.805E-05'
p6633
aS'16.46\n'
p6634
aa(lp6635
g76
aS'3.928E-05'
p6636
aS'2.543E-06'
p6637
aS'-15.491700'
p6638
aS'-3.708E-06'
p6639
aS'16.41\n'
p6640
aa(lp6641
S'10'
p6642
aS'1.675E-05'
p6643
aS'1.316E-06'
p6644
aS'-15.491701'
p6645
aS'-1.065E-06'
p6646
aS'16.43\n'
p6647
aa(lp6648
S'11'
p6649
aS'7.567E-06'
p6650
aS'6.634E-07'
p6651
aS'-15.491701'
p6652
aS'-3.082E-07'
p6653
aS'16.45\n'
p6654
aa(lp6655
S'12'
p6656
aS'4.586E-06'
p6657
aS'3.605E-07'
p6658
aS'-15.491701'
p6659
aS'-7.296E-08'
p6660
aS'16.47\n'
p6661
aa(lp6662
S'13'
p6663
aS'2.932E-06'
p6664
aS'1.754E-07'
p6665
aS'-15.491701'
p6666
aS'-2.497E-08'
p6667
aS'16.51\n'
p6668
aa(lp6669
S'14'
p6670
aS'1.563E-06'
p6671
aS'8.653E-08'
p6672
aS'-15.491701'
p6673
aS'-5.817E-09'
p6674
aS'16.53\n'
p6675
aa(lp6676
S'15'
p6677
aS'6.059E-07'
p6678
aS'4.328E-08'
p6679
aS'-15.491701'
p6680
aS'-1.203E-09'
p6681
aS'16.49\n'
p6682
aa(lp6683
S'16'
p6684
aS'3.033E-07'
p6685
aS'2.323E-08'
p6686
aS'-15.491701'
p6687
aS'-2.658E-10'
p6688
aS'16.49\n'
p6689
aa(lp6690
S'17'
p6691
aS'1.566E-07'
p6692
aS'1.285E-08'
p6693
aS'-15.491701'
p6694
aS'-8.325E-11'
p6695
aS'16.49\n'
p6696
aa(lp6697
S'18'
p6698
aS'7.749E-08'
p6699
aS'6.999E-09'
p6700
aS'-15.491701'
p6701
aS'-3.221E-11'
p6702
aS'16.36\n'
p6703
aasS'ESR'
p6704
F0.00302869
sS'ELECTROSTATIC ENERGY'
p6705
F-15.96956707
sS'EXCHANGE-CORRELATION ENERGY'
p6706
F-3.23354389
sS'LOCAL PSEUDOPOTENTIAL ENERGY'
p6707
F-6.35179116
sS'ESELF'
p6708
F16.62259502
sS'GRADIENT CORRECTION ENERGY'
p6709
F-0.07729048
sS'KINETIC ENERGY'
p6710
F6.22509144
sS'TOTAL ENERGY'
p6711
F-15.3399068
sS'N-L PSEUDOPOTENTIAL ENERGY'
p6712
F3.98990388
ssg182
Fnan
sg183
g3
(g184
g5
Ntp6713
Rp6714
(dp6715
g188
I00
sg189
g190
(g191
g6714
g184
tp6716
Rp6717
sg194
I00
sg195
S'GEOMETRY FILE / created by CPMD\n'
p6718
sg197
g190
(g198
g6714
g184
tp6719
Rp6720
sg201
(dp6721
sg203
I0
sg204
I00
sg205
(lp6722
sg207
I00
sg208
I0
sg209
(lp6723
g10
ag10
asg211
(dp6724
sg213
I2
sg214
(lp6725
g216
ag3968
asg218
g219
(g220
(I0
tp6726
g222
tp6727
Rp6728
(I1
(I2
I3
tp6729
g229
I00
S'\x01\xf8d\r\x00\x00\x14@\x01\xf8d\r\x00\x00\x14@\x01\xf8d\r\x00\x00\x14@\x02\x14\x8c\x04\x00\x00\x1c@\x01\xf8d\r\x00\x00\x14@\x01\xf8d\r\x00\x00\x14@'
p6730
tp6731
bsg234
I00
sg235
g219
(g220
(I0
tp6732
g222
tp6733
Rp6734
(I1
(I2
tp6735
g229
I00
S'\x00\x00\x00\x00\x00\x00\xf0?\x00\x00\x00\x00\x00\x001@'
p6736
tp6737
bsg242
I00
sg11
S'H1Cl1'
p6738
sg244
I1
sg245
I00
sg246
g219
(g220
(I0
tp6739
g222
tp6740
Rp6741
(I1
(I1
I0
tp6742
g229
I00
g10
tp6743
bsbsg252
(dp6744
g254
(lp6745
I0
aI0
aI0
asg256
(lp6746
F0.75
aF0.75
aI0
asg258
(lp6747
F0.5
aF0.5
aF0.5
asg260
(lp6748
F0.1
aF0.25
aF0.25
asg262
(lp6749
I1
aF0.25
aI0
asg264
(lp6750
I1
aI0
aI0
assg266
S'hcl_ref20'
p6751
sg268
S'.out'
p6752
sg270
S'/home/samio/project/a02_alchemy_diatomic/reproduce/production_shifted_refs/hcl_ref20'
p6753
sg272
F-15.49170103
sg273
I18
sg274
g275
sbag3
(g4
g5
Ntp6754
Rp6755
(dp6756
g9
g10
sg11
S'hcl_ref21.out'
p6757
sg13
(dp6758
sg15
(dp6759
g17
(lp6760
(lp6761
g20
aS'1.898E-02'
p6762
aS'1.185E-03'
p6763
aS'-15.326044'
p6764
aS'0.000E+00'
p6765
aS'16.67\n'
p6766
aa(lp6767
g27
aS'1.104E-02'
p6768
aS'4.780E-04'
p6769
aS'-15.437564'
p6770
aS'-1.115E-01'
p6771
aS'16.39\n'
p6772
aa(lp6773
g34
aS'4.925E-03'
p6774
aS'1.908E-04'
p6775
aS'-15.472161'
p6776
aS'-3.460E-02'
p6777
aS'16.37\n'
p6778
aa(lp6779
g41
aS'2.622E-03'
p6780
aS'7.405E-05'
p6781
aS'-15.476342'
p6782
aS'-4.180E-03'
p6783
aS'16.49\n'
p6784
aa(lp6785
g48
aS'1.040E-03'
p6786
aS'3.538E-05'
p6787
aS'-15.477362'
p6788
aS'-1.020E-03'
p6789
aS'16.49\n'
p6790
aa(lp6791
g55
aS'5.351E-04'
p6792
aS'1.892E-05'
p6793
aS'-15.477596'
p6794
aS'-2.342E-04'
p6795
aS'16.45\n'
p6796
aa(lp6797
g62
aS'3.038E-04'
p6798
aS'9.389E-06'
p6799
aS'-15.477664'
p6800
aS'-6.736E-05'
p6801
aS'16.59\n'
p6802
aa(lp6803
g69
aS'1.158E-04'
p6804
aS'4.570E-06'
p6805
aS'-15.477681'
p6806
aS'-1.725E-05'
p6807
aS'16.55\n'
p6808
aa(lp6809
g76
aS'4.017E-05'
p6810
aS'2.427E-06'
p6811
aS'-15.477684'
p6812
aS'-3.331E-06'
p6813
aS'16.59\n'
p6814
aa(lp6815
S'10'
p6816
aS'1.521E-05'
p6817
aS'1.267E-06'
p6818
aS'-15.477685'
p6819
aS'-9.153E-07'
p6820
aS'16.59\n'
p6821
aa(lp6822
S'11'
p6823
aS'7.401E-06'
p6824
aS'6.396E-07'
p6825
aS'-15.477685'
p6826
aS'-2.813E-07'
p6827
aS'16.61\n'
p6828
aa(lp6829
S'12'
p6830
aS'4.249E-06'
p6831
aS'3.494E-07'
p6832
aS'-15.477685'
p6833
aS'-6.864E-08'
p6834
aS'16.60\n'
p6835
aa(lp6836
S'13'
p6837
aS'2.261E-06'
p6838
aS'1.732E-07'
p6839
aS'-15.477685'
p6840
aS'-2.325E-08'
p6841
aS'16.61\n'
p6842
aa(lp6843
S'14'
p6844
aS'1.411E-06'
p6845
aS'8.545E-08'
p6846
aS'-15.477685'
p6847
aS'-5.678E-09'
p6848
aS'16.64\n'
p6849
aa(lp6850
S'15'
p6851
aS'6.651E-07'
p6852
aS'4.137E-08'
p6853
aS'-15.477685'
p6854
aS'-1.193E-09'
p6855
aS'16.61\n'
p6856
aa(lp6857
S'16'
p6858
aS'3.747E-07'
p6859
aS'2.161E-08'
p6860
aS'-15.477685'
p6861
aS'-2.395E-10'
p6862
aS'16.60\n'
p6863
aa(lp6864
S'17'
p6865
aS'1.795E-07'
p6866
aS'1.182E-08'
p6867
aS'-15.477685'
p6868
aS'-6.892E-11'
p6869
aS'16.61\n'
p6870
aa(lp6871
S'18'
p6872
aS'8.799E-08'
p6873
aS'6.547E-09'
p6874
aS'-15.477685'
p6875
aS'-2.546E-11'
p6876
aS'16.52\n'
p6877
aasS'ESR'
p6878
F0.00166327
sS'ELECTROSTATIC ENERGY'
p6879
F-15.96550811
sS'EXCHANGE-CORRELATION ENERGY'
p6880
F-3.22533382
sS'LOCAL PSEUDOPOTENTIAL ENERGY'
p6881
F-6.34502464
sS'ESELF'
p6882
F16.62259502
sS'GRADIENT CORRECTION ENERGY'
p6883
F-0.07806792
sS'KINETIC ENERGY'
p6884
F6.22378917
sS'TOTAL ENERGY'
p6885
F-15.32604362
sS'N-L PSEUDOPOTENTIAL ENERGY'
p6886
F3.98603379
ssg182
Fnan
sg183
g3
(g184
g5
Ntp6887
Rp6888
(dp6889
g188
I00
sg189
g190
(g191
g6888
g184
tp6890
Rp6891
sg194
I00
sg195
S'GEOMETRY FILE / created by CPMD\n'
p6892
sg197
g190
(g198
g6888
g184
tp6893
Rp6894
sg201
(dp6895
sg203
I0
sg204
I00
sg205
(lp6896
sg207
I00
sg208
I0
sg209
(lp6897
g10
ag10
asg211
(dp6898
sg213
I2
sg214
(lp6899
g216
ag3968
asg218
g219
(g220
(I0
tp6900
g222
tp6901
Rp6902
(I1
(I2
I3
tp6903
g229
I00
S'\x01\xf8d\r\x00\x00\x14@\x01\xf8d\r\x00\x00\x14@\x01\xf8d\r\x00\x00\x14@7\x842Uff\x1c@\x01\xf8d\r\x00\x00\x14@\x01\xf8d\r\x00\x00\x14@'
p6904
tp6905
bsg234
I00
sg235
g219
(g220
(I0
tp6906
g222
tp6907
Rp6908
(I1
(I2
tp6909
g229
I00
S'\x00\x00\x00\x00\x00\x00\xf0?\x00\x00\x00\x00\x00\x001@'
p6910
tp6911
bsg242
I00
sg11
S'H1Cl1'
p6912
sg244
I1
sg245
I00
sg246
g219
(g220
(I0
tp6913
g222
tp6914
Rp6915
(I1
(I1
I0
tp6916
g229
I00
g10
tp6917
bsbsg252
(dp6918
g254
(lp6919
I0
aI0
aI0
asg256
(lp6920
F0.75
aF0.75
aI0
asg258
(lp6921
F0.5
aF0.5
aF0.5
asg260
(lp6922
F0.1
aF0.25
aF0.25
asg262
(lp6923
I1
aF0.25
aI0
asg264
(lp6924
I1
aI0
aI0
assg266
S'hcl_ref21'
p6925
sg268
S'.out'
p6926
sg270
S'/home/samio/project/a02_alchemy_diatomic/reproduce/production_shifted_refs/hcl_ref21'
p6927
sg272
F-15.47768543
sg273
I18
sg274
g275
sbag3
(g4
g5
Ntp6928
Rp6929
(dp6930
g9
g10
sg11
S'hcl_ref22.out'
p6931
sg13
(dp6932
sg15
(dp6933
g17
(lp6934
(lp6935
g20
aS'1.873E-02'
p6936
aS'1.184E-03'
p6937
aS'-15.312393'
p6938
aS'0.000E+00'
p6939
aS'16.56\n'
p6940
aa(lp6941
g27
aS'1.117E-02'
p6942
aS'4.766E-04'
p6943
aS'-15.425142'
p6944
aS'-1.127E-01'
p6945
aS'16.38\n'
p6946
aa(lp6947
g34
aS'4.972E-03'
p6948
aS'1.916E-04'
p6949
aS'-15.459089'
p6950
aS'-3.395E-02'
p6951
aS'16.44\n'
p6952
aa(lp6953
g41
aS'2.458E-03'
p6954
aS'7.455E-05'
p6955
aS'-15.463398'
p6956
aS'-4.309E-03'
p6957
aS'16.55\n'
p6958
aa(lp6959
g48
aS'1.053E-03'
p6960
aS'3.559E-05'
p6961
aS'-15.464438'
p6962
aS'-1.040E-03'
p6963
aS'16.49\n'
p6964
aa(lp6965
g55
aS'5.534E-04'
p6966
aS'1.892E-05'
p6967
aS'-15.464690'
p6968
aS'-2.522E-04'
p6969
aS'16.50\n'
p6970
aa(lp6971
g62
aS'3.214E-04'
p6972
aS'9.252E-06'
p6973
aS'-15.464759'
p6974
aS'-6.885E-05'
p6975
aS'16.61\n'
p6976
aa(lp6977
g69
aS'1.288E-04'
p6978
aS'4.478E-06'
p6979
aS'-15.464775'
p6980
aS'-1.631E-05'
p6981
aS'16.58\n'
p6982
aa(lp6983
g76
aS'3.881E-05'
p6984
aS'2.371E-06'
p6985
aS'-15.464778'
p6986
aS'-2.968E-06'
p6987
aS'16.61\n'
p6988
aa(lp6989
S'10'
p6990
aS'1.634E-05'
p6991
aS'1.227E-06'
p6992
aS'-15.464779'
p6993
aS'-8.212E-07'
p6994
aS'16.64\n'
p6995
aa(lp6996
S'11'
p6997
aS'7.262E-06'
p6998
aS'6.254E-07'
p6999
aS'-15.464779'
p7000
aS'-2.582E-07'
p7001
aS'16.62\n'
p7002
aa(lp7003
S'12'
p7004
aS'4.073E-06'
p7005
aS'3.440E-07'
p7006
aS'-15.464779'
p7007
aS'-6.444E-08'
p7008
aS'16.64\n'
p7009
aa(lp7010
S'13'
p7011
aS'2.370E-06'
p7012
aS'1.707E-07'
p7013
aS'-15.464779'
p7014
aS'-2.251E-08'
p7015
aS'16.65\n'
p7016
aa(lp7017
S'14'
p7018
aS'1.212E-06'
p7019
aS'8.362E-08'
p7020
aS'-15.464779'
p7021
aS'-5.525E-09'
p7022
aS'16.65\n'
p7023
aa(lp7024
S'15'
p7025
aS'5.828E-07'
p7026
aS'4.078E-08'
p7027
aS'-15.464779'
p7028
aS'-1.121E-09'
p7029
aS'16.61\n'
p7030
aa(lp7031
S'16'
p7032
aS'2.956E-07'
p7033
aS'2.086E-08'
p7034
aS'-15.464779'
p7035
aS'-2.361E-10'
p7036
aS'16.70\n'
p7037
aa(lp7038
S'17'
p7039
aS'1.891E-07'
p7040
aS'1.134E-08'
p7041
aS'-15.464779'
p7042
aS'-6.275E-11'
p7043
aS'16.74\n'
p7044
aa(lp7045
S'18'
p7046
aS'9.688E-08'
p7047
aS'6.434E-09'
p7048
aS'-15.464779'
p7049
aS'-2.347E-11'
p7050
aS'16.50\n'
p7051
aasS'ESR'
p7052
F0.00089444
sS'ELECTROSTATIC ENERGY'
p7053
F-15.95984718
sS'EXCHANGE-CORRELATION ENERGY'
p7054
F-3.21820705
sS'LOCAL PSEUDOPOTENTIAL ENERGY'
p7055
F-6.34012573
sS'ESELF'
p7056
F16.62259502
sS'GRADIENT CORRECTION ENERGY'
p7057
F-0.07888659
sS'KINETIC ENERGY'
p7058
F6.22433553
sS'TOTAL ENERGY'
p7059
F-15.31239284
sS'N-L PSEUDOPOTENTIAL ENERGY'
p7060
F3.98145158
ssg182
Fnan
sg183
g3
(g184
g5
Ntp7061
Rp7062
(dp7063
g188
I00
sg189
g190
(g191
g7062
g184
tp7064
Rp7065
sg194
I00
sg195
S'GEOMETRY FILE / created by CPMD\n'
p7066
sg197
g190
(g198
g7062
g184
tp7067
Rp7068
sg201
(dp7069
sg203
I0
sg204
I00
sg205
(lp7070
sg207
I00
sg208
I0
sg209
(lp7071
g10
ag10
asg211
(dp7072
sg213
I2
sg214
(lp7073
g216
ag3968
asg218
g219
(g220
(I0
tp7074
g222
tp7075
Rp7076
(I1
(I2
I3
tp7077
g229
I00
S'\x01\xf8d\r\x00\x00\x14@\x01\xf8d\r\x00\x00\x14@\x01\xf8d\r\x00\x00\x14@j&\\\xc9\xcc\xcc\x1c@\x01\xf8d\r\x00\x00\x14@\x01\xf8d\r\x00\x00\x14@'
p7078
tp7079
bsg234
I00
sg235
g219
(g220
(I0
tp7080
g222
tp7081
Rp7082
(I1
(I2
tp7083
g229
I00
S'\x00\x00\x00\x00\x00\x00\xf0?\x00\x00\x00\x00\x00\x001@'
p7084
tp7085
bsg242
I00
sg11
S'H1Cl1'
p7086
sg244
I1
sg245
I00
sg246
g219
(g220
(I0
tp7087
g222
tp7088
Rp7089
(I1
(I1
I0
tp7090
g229
I00
g10
tp7091
bsbsg252
(dp7092
g254
(lp7093
I0
aI0
aI0
asg256
(lp7094
F0.75
aF0.75
aI0
asg258
(lp7095
F0.5
aF0.5
aF0.5
asg260
(lp7096
F0.1
aF0.25
aF0.25
asg262
(lp7097
I1
aF0.25
aI0
asg264
(lp7098
I1
aI0
aI0
assg266
S'hcl_ref22'
p7099
sg268
S'.out'
p7100
sg270
S'/home/samio/project/a02_alchemy_diatomic/reproduce/production_shifted_refs/hcl_ref22'
p7101
sg272
F-15.46477926
sg273
I18
sg274
g275
sbag3
(g4
g5
Ntp7102
Rp7103
(dp7104
g9
g10
sg11
S'hcl_ref23.out'
p7105
sg13
(dp7106
sg15
(dp7107
g17
(lp7108
(lp7109
g20
aS'1.844E-02'
p7110
aS'1.184E-03'
p7111
aS'-15.299010'
p7112
aS'0.000E+00'
p7113
aS'16.60\n'
p7114
aa(lp7115
g27
aS'1.095E-02'
p7116
aS'4.745E-04'
p7117
aS'-15.413948'
p7118
aS'-1.149E-01'
p7119
aS'16.30\n'
p7120
aa(lp7121
g34
aS'5.032E-03'
p7122
aS'1.927E-04'
p7123
aS'-15.447098'
p7124
aS'-3.315E-02'
p7125
aS'16.36\n'
p7126
aa(lp7127
g41
aS'2.355E-03'
p7128
aS'7.551E-05'
p7129
aS'-15.451580'
p7130
aS'-4.482E-03'
p7131
aS'16.40\n'
p7132
aa(lp7133
g48
aS'9.838E-04'
p7134
aS'3.591E-05'
p7135
aS'-15.452647'
p7136
aS'-1.067E-03'
p7137
aS'16.39\n'
p7138
aa(lp7139
g55
aS'5.303E-04'
p7140
aS'1.905E-05'
p7141
aS'-15.452920'
p7142
aS'-2.724E-04'
p7143
aS'16.38\n'
p7144
aa(lp7145
g62
aS'3.235E-04'
p7146
aS'9.145E-06'
p7147
aS'-15.452990'
p7148
aS'-7.084E-05'
p7149
aS'16.53\n'
p7150
aa(lp7151
g69
aS'1.068E-04'
p7152
aS'4.385E-06'
p7153
aS'-15.453006'
p7154
aS'-1.562E-05'
p7155
aS'16.52\n'
p7156
aa(lp7157
g76
aS'3.449E-05'
p7158
aS'2.277E-06'
p7159
aS'-15.453009'
p7160
aS'-2.690E-06'
p7161
aS'16.52\n'
p7162
aa(lp7163
S'10'
p7164
aS'1.326E-05'
p7165
aS'1.174E-06'
p7166
aS'-15.453009'
p7167
aS'-7.036E-07'
p7168
aS'16.58\n'
p7169
aa(lp7170
S'11'
p7171
aS'6.598E-06'
p7172
aS'5.949E-07'
p7173
aS'-15.453010'
p7174
aS'-2.295E-07'
p7175
aS'16.59\n'
p7176
aa(lp7177
S'12'
p7178
aS'3.928E-06'
p7179
aS'3.264E-07'
p7180
aS'-15.453010'
p7181
aS'-5.856E-08'
p7182
aS'16.57\n'
p7183
aa(lp7184
S'13'
p7185
aS'2.613E-06'
p7186
aS'1.661E-07'
p7187
aS'-15.453010'
p7188
aS'-1.987E-08'
p7189
aS'16.59\n'
p7190
aa(lp7191
S'14'
p7192
aS'1.454E-06'
p7193
aS'8.202E-08'
p7194
aS'-15.453010'
p7195
aS'-5.272E-09'
p7196
aS'16.59\n'
p7197
aa(lp7198
S'15'
p7199
aS'6.814E-07'
p7200
aS'3.911E-08'
p7201
aS'-15.453010'
p7202
aS'-1.099E-09'
p7203
aS'16.57\n'
p7204
aa(lp7205
S'16'
p7206
aS'3.665E-07'
p7207
aS'1.951E-08'
p7208
aS'-15.453010'
p7209
aS'-2.171E-10'
p7210
aS'16.63\n'
p7211
aa(lp7212
S'17'
p7213
aS'1.778E-07'
p7214
aS'1.041E-08'
p7215
aS'-15.453010'
p7216
aS'-5.139E-11'
p7217
aS'16.58\n'
p7218
aa(lp7219
S'18'
p7220
aS'8.636E-08'
p7221
aS'5.982E-09'
p7222
aS'-15.453010'
p7223
aS'-1.706E-11'
p7224
aS'17.25\n'
p7225
aasS'ESR'
p7226
F0.00047086
sS'ELECTROSTATIC ENERGY'
p7227
F-15.95262201
sS'EXCHANGE-CORRELATION ENERGY'
p7228
F-3.21197196
sS'LOCAL PSEUDOPOTENTIAL ENERGY'
p7229
F-6.33613567
sS'ESELF'
p7230
F16.62259502
sS'GRADIENT CORRECTION ENERGY'
p7231
F-0.07973179
sS'KINETIC ENERGY'
p7232
F6.22580701
sS'TOTAL ENERGY'
p7233
F-15.29901027
sS'N-L PSEUDOPOTENTIAL ENERGY'
p7234
F3.97591235
ssg182
Fnan
sg183
g3
(g184
g5
Ntp7235
Rp7236
(dp7237
g188
I00
sg189
g190
(g191
g7236
g184
tp7238
Rp7239
sg194
I00
sg195
S'GEOMETRY FILE / created by CPMD\n'
p7240
sg197
g190
(g198
g7236
g184
tp7241
Rp7242
sg201
(dp7243
sg203
I0
sg204
I00
sg205
(lp7244
sg207
I00
sg208
I0
sg209
(lp7245
g10
ag10
asg211
(dp7246
sg213
I2
sg214
(lp7247
g216
ag3968
asg218
g219
(g220
(I0
tp7248
g222
tp7249
Rp7250
(I1
(I2
I3
tp7251
g229
I00
S'\x01\xf8d\r\x00\x00\x14@\x01\xf8d\r\x00\x00\x14@\x01\xf8d\r\x00\x00\x14@\x9b\xc8\x85=33\x1d@\x01\xf8d\r\x00\x00\x14@\x01\xf8d\r\x00\x00\x14@'
p7252
tp7253
bsg234
I00
sg235
g219
(g220
(I0
tp7254
g222
tp7255
Rp7256
(I1
(I2
tp7257
g229
I00
S'\x00\x00\x00\x00\x00\x00\xf0?\x00\x00\x00\x00\x00\x001@'
p7258
tp7259
bsg242
I00
sg11
S'H1Cl1'
p7260
sg244
I1
sg245
I00
sg246
g219
(g220
(I0
tp7261
g222
tp7262
Rp7263
(I1
(I1
I0
tp7264
g229
I00
g10
tp7265
bsbsg252
(dp7266
g254
(lp7267
I0
aI0
aI0
asg256
(lp7268
F0.75
aF0.75
aI0
asg258
(lp7269
F0.5
aF0.5
aF0.5
asg260
(lp7270
F0.1
aF0.25
aF0.25
asg262
(lp7271
I1
aF0.25
aI0
asg264
(lp7272
I1
aI0
aI0
assg266
S'hcl_ref23'
p7273
sg268
S'.out'
p7274
sg270
S'/home/samio/project/a02_alchemy_diatomic/reproduce/production_shifted_refs/hcl_ref23'
p7275
sg272
F-15.45300977
sg273
I18
sg274
g275
sbaa(lp7276
g3
(g4
g5
Ntp7277
Rp7278
(dp7279
g9
g10
sg11
S'hcl_prd05.out'
p7280
sg13
(dp7281
sg15
(dp7282
g17
(lp7283
(lp7284
g20
aS'2.078E-01'
p7285
aS'1.232E-02'
p7286
aS'-1.617217'
p7287
aS'0.000E+00'
p7288
aS'20.02\n'
p7289
aasS'ESR'
p7290
F3.19347022
sS'ELECTROSTATIC ENERGY'
p7291
F-11.62341606
sS'EXCHANGE-CORRELATION ENERGY'
p7292
F-5.36643325
sS'LOCAL PSEUDOPOTENTIAL ENERGY'
p7293
F-28.46510641
sS'ESELF'
p7294
F16.62259502
sS'GRADIENT CORRECTION ENERGY'
p7295
F-0.13811823
sS'KINETIC ENERGY'
p7296
F21.98057025
sS'TOTAL ENERGY'
p7297
F-1.61721679
sS'N-L PSEUDOPOTENTIAL ENERGY'
p7298
F21.85716867
ssg182
Fnan
sg183
g3
(g184
g5
Ntp7299
Rp7300
(dp7301
g188
I00
sg189
g190
(g191
g7300
g184
tp7302
Rp7303
sg194
I00
sg195
S'GEOMETRY FILE / created by CPMD\n'
p7304
sg197
g190
(g198
g7300
g184
tp7305
Rp7306
sg201
(dp7307
sg203
I0
sg204
I00
sg205
(lp7308
sg207
I00
sg208
I0
sg209
(lp7309
g10
ag10
asg211
(dp7310
sg213
I2
sg214
(lp7311
g216
ag3968
asg218
g219
(g220
(I0
tp7312
g222
tp7313
Rp7314
(I1
(I2
I3
tp7315
g229
I00
S'\x01\xf8d\r\x00\x00\x14@\x01\xf8d\r\x00\x00\x14@\x01\xf8d\r\x00\x00\x14@\x01\xbf.\x0b\x00\x00\x16@\x01\xf8d\r\x00\x00\x14@\x01\xf8d\r\x00\x00\x14@'
p7316
tp7317
bsg234
I00
sg235
g219
(g220
(I0
tp7318
g222
tp7319
Rp7320
(I1
(I2
tp7321
g229
I00
S'\x00\x00\x00\x00\x00\x00\xf0?\x00\x00\x00\x00\x00\x001@'
p7322
tp7323
bsg242
I00
sg11
S'H1Cl1'
p7324
sg244
I1
sg245
I00
sg246
g219
(g220
(I0
tp7325
g222
tp7326
Rp7327
(I1
(I1
I0
tp7328
g229
I00
g10
tp7329
bsbsg252
(dp7330
g254
(lp7331
I0
aI0
aI0
asg256
(lp7332
F0.75
aF0.75
aI0
asg258
(lp7333
F0.5
aF0.5
aF0.5
asg260
(lp7334
F0.1
aF0.25
aF0.25
asg262
(lp7335
I1
aF0.25
aI0
asg264
(lp7336
I1
aI0
aI0
assg266
S'hcl_prd05'
p7337
sg268
S'.out'
p7338
sg270
S'/home/samio/project/a02_alchemy_diatomic/reproduce/production_shifted_prds/hcl_prd05'
p7339
sg272
F-1.61721679
sg273
I1
sg274
g275
sbag3
(g4
g5
Ntp7340
Rp7341
(dp7342
g9
g10
sg11
S'hcl_prd06.out'
p7343
sg13
(dp7344
sg15
(dp7345
g17
(lp7346
(lp7347
g20
aS'1.757E-01'
p7348
aS'1.223E-02'
p7349
aS'-2.798841'
p7350
aS'0.000E+00'
p7351
aS'19.52\n'
p7352
aasS'ESR'
p7353
F2.1282639
sS'ELECTROSTATIC ENERGY'
p7354
F-12.87926865
sS'EXCHANGE-CORRELATION ENERGY'
p7355
F-5.248465
sS'LOCAL PSEUDOPOTENTIAL ENERGY'
p7356
F-26.96386123
sS'ESELF'
p7357
F16.62259502
sS'GRADIENT CORRECTION ENERGY'
p7358
F-0.13314014
sS'KINETIC ENERGY'
p7359
F21.12776367
sS'TOTAL ENERGY'
p7360
F-2.79884055
sS'N-L PSEUDOPOTENTIAL ENERGY'
p7361
F21.16499066
ssg182
Fnan
sg183
g3
(g184
g5
Ntp7362
Rp7363
(dp7364
g188
I00
sg189
g190
(g191
g7363
g184
tp7365
Rp7366
sg194
I00
sg195
S'GEOMETRY FILE / created by CPMD\n'
p7367
sg197
g190
(g198
g7363
g184
tp7368
Rp7369
sg201
(dp7370
sg203
I0
sg204
I00
sg205
(lp7371
sg207
I00
sg208
I0
sg209
(lp7372
g10
ag10
asg211
(dp7373
sg213
I2
sg214
(lp7374
g216
ag3968
asg218
g219
(g220
(I0
tp7375
g222
tp7376
Rp7377
(I1
(I2
I3
tp7378
g229
I00
S'\x01\xf8d\r\x00\x00\x14@\x01\xf8d\r\x00\x00\x14@\x01\xf8d\r\x00\x00\x14@6/\xd5[ff\x16@\x01\xf8d\r\x00\x00\x14@\x01\xf8d\r\x00\x00\x14@'
p7379
tp7380
bsg234
I00
sg235
g219
(g220
(I0
tp7381
g222
tp7382
Rp7383
(I1
(I2
tp7384
g229
I00
S'\x00\x00\x00\x00\x00\x00\xf0?\x00\x00\x00\x00\x00\x001@'
p7385
tp7386
bsg242
I00
sg11
S'H1Cl1'
p7387
sg244
I1
sg245
I00
sg246
g219
(g220
(I0
tp7388
g222
tp7389
Rp7390
(I1
(I1
I0
tp7391
g229
I00
g10
tp7392
bsbsg252
(dp7393
g254
(lp7394
I0
aI0
aI0
asg256
(lp7395
F0.75
aF0.75
aI0
asg258
(lp7396
F0.5
aF0.5
aF0.5
asg260
(lp7397
F0.1
aF0.25
aF0.25
asg262
(lp7398
I1
aF0.25
aI0
asg264
(lp7399
I1
aI0
aI0
assg266
S'hcl_prd06'
p7400
sg268
S'.out'
p7401
sg270
S'/home/samio/project/a02_alchemy_diatomic/reproduce/production_shifted_prds/hcl_prd06'
p7402
sg272
F-2.79884055
sg273
I1
sg274
g275
sbag3
(g4
g5
Ntp7403
Rp7404
(dp7405
g9
g10
sg11
S'hcl_prd07.out'
p7406
sg13
(dp7407
sg15
(dp7408
g17
(lp7409
(lp7410
g20
aS'1.866E-01'
p7411
aS'1.216E-02'
p7412
aS'-3.503004'
p7413
aS'0.000E+00'
p7414
aS'18.94\n'
p7415
aasS'ESR'
p7416
F1.43043893
sS'ELECTROSTATIC ENERGY'
p7417
F-13.69824751
sS'EXCHANGE-CORRELATION ENERGY'
p7418
F-5.15448571
sS'LOCAL PSEUDOPOTENTIAL ENERGY'
p7419
F-25.87788296
sS'ESELF'
p7420
F16.62259502
sS'GRADIENT CORRECTION ENERGY'
p7421
F-0.12948949
sS'KINETIC ENERGY'
p7422
F20.53132658
sS'TOTAL ENERGY'
p7423
F-3.50300421
sS'N-L PSEUDOPOTENTIAL ENERGY'
p7424
F20.69628538
ssg182
Fnan
sg183
g3
(g184
g5
Ntp7425
Rp7426
(dp7427
g188
I00
sg189
g190
(g191
g7426
g184
tp7428
Rp7429
sg194
I00
sg195
S'GEOMETRY FILE / created by CPMD\n'
p7430
sg197
g190
(g198
g7426
g184
tp7431
Rp7432
sg201
(dp7433
sg203
I0
sg204
I00
sg205
(lp7434
sg207
I00
sg208
I0
sg209
(lp7435
g10
ag10
asg211
(dp7436
sg213
I2
sg214
(lp7437
g216
ag3968
asg218
g219
(g220
(I0
tp7438
g222
tp7439
Rp7440
(I1
(I2
I3
tp7441
g229
I00
S'\x01\xf8d\r\x00\x00\x14@\x01\xf8d\r\x00\x00\x14@\x01\xf8d\r\x00\x00\x14@i\xd1\xfe\xcf\xcc\xcc\x16@\x01\xf8d\r\x00\x00\x14@\x01\xf8d\r\x00\x00\x14@'
p7442
tp7443
bsg234
I00
sg235
g219
(g220
(I0
tp7444
g222
tp7445
Rp7446
(I1
(I2
tp7447
g229
I00
S'\x00\x00\x00\x00\x00\x00\xf0?\x00\x00\x00\x00\x00\x001@'
p7448
tp7449
bsg242
I00
sg11
S'H1Cl1'
p7450
sg244
I1
sg245
I00
sg246
g219
(g220
(I0
tp7451
g222
tp7452
Rp7453
(I1
(I1
I0
tp7454
g229
I00
g10
tp7455
bsbsg252
(dp7456
g254
(lp7457
I0
aI0
aI0
asg256
(lp7458
F0.75
aF0.75
aI0
asg258
(lp7459
F0.5
aF0.5
aF0.5
asg260
(lp7460
F0.1
aF0.25
aF0.25
asg262
(lp7461
I1
aF0.25
aI0
asg264
(lp7462
I1
aI0
aI0
assg266
S'hcl_prd07'
p7463
sg268
S'.out'
p7464
sg270
S'/home/samio/project/a02_alchemy_diatomic/reproduce/production_shifted_prds/hcl_prd07'
p7465
sg272
F-3.50300421
sg273
I1
sg274
g275
sbag3
(g4
g5
Ntp7466
Rp7467
(dp7468
g9
g10
sg11
S'hcl_prd08.out'
p7469
sg13
(dp7470
sg15
(dp7471
g17
(lp7472
(lp7473
g20
aS'1.890E-01'
p7474
aS'1.210E-02'
p7475
aS'-3.924723'
p7476
aS'0.000E+00'
p7477
aS'20.10\n'
p7478
aasS'ESR'
p7479
F0.96187658
sS'ELECTROSTATIC ENERGY'
p7480
F-14.2400395
sS'EXCHANGE-CORRELATION ENERGY'
p7481
F-5.07991511
sS'LOCAL PSEUDOPOTENTIAL ENERGY'
p7482
F-25.10348075
sS'ESELF'
p7483
F16.62259502
sS'GRADIENT CORRECTION ENERGY'
p7484
F-0.12695051
sS'KINETIC ENERGY'
p7485
F20.10913853
sS'TOTAL ENERGY'
p7486
F-3.92472292
sS'N-L PSEUDOPOTENTIAL ENERGY'
p7487
F20.3895739
ssg182
Fnan
sg183
g3
(g184
g5
Ntp7488
Rp7489
(dp7490
g188
I00
sg189
g190
(g191
g7489
g184
tp7491
Rp7492
sg194
I00
sg195
S'GEOMETRY FILE / created by CPMD\n'
p7493
sg197
g190
(g198
g7489
g184
tp7494
Rp7495
sg201
(dp7496
sg203
I0
sg204
I00
sg205
(lp7497
sg207
I00
sg208
I0
sg209
(lp7498
g10
ag10
asg211
(dp7499
sg213
I2
sg214
(lp7500
g216
ag3968
asg218
g219
(g220
(I0
tp7501
g222
tp7502
Rp7503
(I1
(I2
I3
tp7504
g229
I00
S'\x01\xf8d\r\x00\x00\x14@\x01\xf8d\r\x00\x00\x14@\x01\xf8d\r\x00\x00\x14@\x9as(D33\x17@\x01\xf8d\r\x00\x00\x14@\x01\xf8d\r\x00\x00\x14@'
p7505
tp7506
bsg234
I00
sg235
g219
(g220
(I0
tp7507
g222
tp7508
Rp7509
(I1
(I2
tp7510
g229
I00
S'\x00\x00\x00\x00\x00\x00\xf0?\x00\x00\x00\x00\x00\x001@'
p7511
tp7512
bsg242
I00
sg11
S'H1Cl1'
p7513
sg244
I1
sg245
I00
sg246
g219
(g220
(I0
tp7514
g222
tp7515
Rp7516
(I1
(I1
I0
tp7517
g229
I00
g10
tp7518
bsbsg252
(dp7519
g254
(lp7520
I0
aI0
aI0
asg256
(lp7521
F0.75
aF0.75
aI0
asg258
(lp7522
F0.5
aF0.5
aF0.5
asg260
(lp7523
F0.1
aF0.25
aF0.25
asg262
(lp7524
I1
aF0.25
aI0
asg264
(lp7525
I1
aI0
aI0
assg266
S'hcl_prd08'
p7526
sg268
S'.out'
p7527
sg270
S'/home/samio/project/a02_alchemy_diatomic/reproduce/production_shifted_prds/hcl_prd08'
p7528
sg272
F-3.92472292
sg273
I1
sg274
g275
sbag3
(g4
g5
Ntp7529
Rp7530
(dp7531
g9
g10
sg11
S'hcl_prd09.out'
p7532
sg13
(dp7533
sg15
(dp7534
g17
(lp7535
(lp7536
g20
aS'1.913E-01'
p7537
aS'1.205E-02'
p7538
aS'-4.177123'
p7539
aS'0.000E+00'
p7540
aS'18.79\n'
p7541
aasS'ESR'
p7542
F0.64370157
sS'ELECTROSTATIC ENERGY'
p7543
F-14.60042053
sS'EXCHANGE-CORRELATION ENERGY'
p7544
F-5.02063724
sS'LOCAL PSEUDOPOTENTIAL ENERGY'
p7545
F-24.55582494
sS'ESELF'
p7546
F16.62259502
sS'GRADIENT CORRECTION ENERGY'
p7547
F-0.12529113
sS'KINETIC ENERGY'
p7548
F19.80877484
sS'TOTAL ENERGY'
p7549
F-4.17712288
sS'N-L PSEUDOPOTENTIAL ENERGY'
p7550
F20.19098498
ssg182
Fnan
sg183
g3
(g184
g5
Ntp7551
Rp7552
(dp7553
g188
I00
sg189
g190
(g191
g7552
g184
tp7554
Rp7555
sg194
I00
sg195
S'GEOMETRY FILE / created by CPMD\n'
p7556
sg197
g190
(g198
g7552
g184
tp7557
Rp7558
sg201
(dp7559
sg203
I0
sg204
I00
sg205
(lp7560
sg207
I00
sg208
I0
sg209
(lp7561
g10
ag10
asg211
(dp7562
sg213
I2
sg214
(lp7563
g216
ag3968
asg218
g219
(g220
(I0
tp7564
g222
tp7565
Rp7566
(I1
(I2
I3
tp7567
g229
I00
S'\x01\xf8d\r\x00\x00\x14@\x01\xf8d\r\x00\x00\x14@\x01\xf8d\r\x00\x00\x14@\xcf\xe3\xce\x94\x99\x99\x17@\x01\xf8d\r\x00\x00\x14@\x01\xf8d\r\x00\x00\x14@'
p7568
tp7569
bsg234
I00
sg235
g219
(g220
(I0
tp7570
g222
tp7571
Rp7572
(I1
(I2
tp7573
g229
I00
S'\x00\x00\x00\x00\x00\x00\xf0?\x00\x00\x00\x00\x00\x001@'
p7574
tp7575
bsg242
I00
sg11
S'H1Cl1'
p7576
sg244
I1
sg245
I00
sg246
g219
(g220
(I0
tp7577
g222
tp7578
Rp7579
(I1
(I1
I0
tp7580
g229
I00
g10
tp7581
bsbsg252
(dp7582
g254
(lp7583
I0
aI0
aI0
asg256
(lp7584
F0.75
aF0.75
aI0
asg258
(lp7585
F0.5
aF0.5
aF0.5
asg260
(lp7586
F0.1
aF0.25
aF0.25
asg262
(lp7587
I1
aF0.25
aI0
asg264
(lp7588
I1
aI0
aI0
assg266
S'hcl_prd09'
p7589
sg268
S'.out'
p7590
sg270
S'/home/samio/project/a02_alchemy_diatomic/reproduce/production_shifted_prds/hcl_prd09'
p7591
sg272
F-4.17712288
sg273
I1
sg274
g275
sbag3
(g4
g5
Ntp7592
Rp7593
(dp7594
g9
g10
sg11
S'hcl_prd10.out'
p7595
sg13
(dp7596
sg15
(dp7597
g17
(lp7598
(lp7599
g20
aS'1.958E-01'
p7600
aS'1.202E-02'
p7601
aS'-4.327210'
p7602
aS'0.000E+00'
p7603
aS'19.14\n'
p7604
aasS'ESR'
p7605
F0.42713276
sS'ELECTROSTATIC ENERGY'
p7606
F-14.84026511
sS'EXCHANGE-CORRELATION ENERGY'
p7607
F-4.97323293
sS'LOCAL PSEUDOPOTENTIAL ENERGY'
p7608
F-24.16967636
sS'ESELF'
p7609
F16.62259502
sS'GRADIENT CORRECTION ENERGY'
p7610
F-0.12429086
sS'KINETIC ENERGY'
p7611
F19.59398813
sS'TOTAL ENERGY'
p7612
F-4.32720997
sS'N-L PSEUDOPOTENTIAL ENERGY'
p7613
F20.0619763
ssg182
Fnan
sg183
g3
(g184
g5
Ntp7614
Rp7615
(dp7616
g188
I00
sg189
g190
(g191
g7615
g184
tp7617
Rp7618
sg194
I00
sg195
S'GEOMETRY FILE / created by CPMD\n'
p7619
sg197
g190
(g198
g7615
g184
tp7620
Rp7621
sg201
(dp7622
sg203
I0
sg204
I00
sg205
(lp7623
sg207
I00
sg208
I0
sg209
(lp7624
g10
ag10
asg211
(dp7625
sg213
I2
sg214
(lp7626
g216
ag3968
asg218
g219
(g220
(I0
tp7627
g222
tp7628
Rp7629
(I1
(I2
I3
tp7630
g229
I00
S'\x01\xf8d\r\x00\x00\x14@\x01\xf8d\r\x00\x00\x14@\x01\xf8d\r\x00\x00\x14@\x02\x86\xf8\x08\x00\x00\x18@\x01\xf8d\r\x00\x00\x14@\x01\xf8d\r\x00\x00\x14@'
p7631
tp7632
bsg234
I00
sg235
g219
(g220
(I0
tp7633
g222
tp7634
Rp7635
(I1
(I2
tp7636
g229
I00
S'\x00\x00\x00\x00\x00\x00\xf0?\x00\x00\x00\x00\x00\x001@'
p7637
tp7638
bsg242
I00
sg11
S'H1Cl1'
p7639
sg244
I1
sg245
I00
sg246
g219
(g220
(I0
tp7640
g222
tp7641
Rp7642
(I1
(I1
I0
tp7643
g229
I00
g10
tp7644
bsbsg252
(dp7645
g254
(lp7646
I0
aI0
aI0
asg256
(lp7647
F0.75
aF0.75
aI0
asg258
(lp7648
F0.5
aF0.5
aF0.5
asg260
(lp7649
F0.1
aF0.25
aF0.25
asg262
(lp7650
I1
aF0.25
aI0
asg264
(lp7651
I1
aI0
aI0
assg266
S'hcl_prd10'
p7652
sg268
S'.out'
p7653
sg270
S'/home/samio/project/a02_alchemy_diatomic/reproduce/production_shifted_prds/hcl_prd10'
p7654
sg272
F-4.32720997
sg273
I1
sg274
g275
sbag3
(g4
g5
Ntp7655
Rp7656
(dp7657
g9
g10
sg11
S'hcl_prd11.out'
p7658
sg13
(dp7659
sg15
(dp7660
g17
(lp7661
(lp7662
g20
aS'2.186E-01'
p7663
aS'1.200E-02'
p7664
aS'-4.414581'
p7665
aS'0.000E+00'
p7666
aS'18.88\n'
p7667
aasS'ESR'
p7668
F0.28027377
sS'ELECTROSTATIC ENERGY'
p7669
F-14.99943986
sS'EXCHANGE-CORRELATION ENERGY'
p7670
F-4.93509569
sS'LOCAL PSEUDOPOTENTIAL ENERGY'
p7671
F-23.89823836
sS'ESELF'
p7672
F16.62259502
sS'GRADIENT CORRECTION ENERGY'
p7673
F-0.12378105
sS'KINETIC ENERGY'
p7674
F19.44090169
sS'TOTAL ENERGY'
p7675
F-4.41458063
sS'N-L PSEUDOPOTENTIAL ENERGY'
p7676
F19.97729159
ssg182
Fnan
sg183
g3
(g184
g5
Ntp7677
Rp7678
(dp7679
g188
I00
sg189
g190
(g191
g7678
g184
tp7680
Rp7681
sg194
I00
sg195
S'GEOMETRY FILE / created by CPMD\n'
p7682
sg197
g190
(g198
g7678
g184
tp7683
Rp7684
sg201
(dp7685
sg203
I0
sg204
I00
sg205
(lp7686
sg207
I00
sg208
I0
sg209
(lp7687
g10
ag10
asg211
(dp7688
sg213
I2
sg214
(lp7689
g216
ag3968
asg218
g219
(g220
(I0
tp7690
g222
tp7691
Rp7692
(I1
(I2
I3
tp7693
g229
I00
S'\x01\xf8d\r\x00\x00\x14@\x01\xf8d\r\x00\x00\x14@\x01\xf8d\r\x00\x00\x14@7\xf6\x9eYff\x18@\x01\xf8d\r\x00\x00\x14@\x01\xf8d\r\x00\x00\x14@'
p7694
tp7695
bsg234
I00
sg235
g219
(g220
(I0
tp7696
g222
tp7697
Rp7698
(I1
(I2
tp7699
g229
I00
S'\x00\x00\x00\x00\x00\x00\xf0?\x00\x00\x00\x00\x00\x001@'
p7700
tp7701
bsg242
I00
sg11
S'H1Cl1'
p7702
sg244
I1
sg245
I00
sg246
g219
(g220
(I0
tp7703
g222
tp7704
Rp7705
(I1
(I1
I0
tp7706
g229
I00
g10
tp7707
bsbsg252
(dp7708
g254
(lp7709
I0
aI0
aI0
asg256
(lp7710
F0.75
aF0.75
aI0
asg258
(lp7711
F0.5
aF0.5
aF0.5
asg260
(lp7712
F0.1
aF0.25
aF0.25
asg262
(lp7713
I1
aF0.25
aI0
asg264
(lp7714
I1
aI0
aI0
assg266
S'hcl_prd11'
p7715
sg268
S'.out'
p7716
sg270
S'/home/samio/project/a02_alchemy_diatomic/reproduce/production_shifted_prds/hcl_prd11'
p7717
sg272
F-4.41458063
sg273
I1
sg274
g275
sbag3
(g4
g5
Ntp7718
Rp7719
(dp7720
g9
g10
sg11
S'hcl_prd12.out'
p7721
sg13
(dp7722
sg15
(dp7723
g17
(lp7724
(lp7725
g20
aS'2.200E-01'
p7726
aS'1.198E-02'
p7727
aS'-4.463082'
p7728
aS'0.000E+00'
p7729
aS'19.58\n'
p7730
aasS'ESR'
p7731
F0.18149111
sS'ELECTROSTATIC ENERGY'
p7732
F-15.10453933
sS'EXCHANGE-CORRELATION ENERGY'
p7733
F-4.90424841
sS'LOCAL PSEUDOPOTENTIAL ENERGY'
p7734
F-23.70768935
sS'ESELF'
p7735
F16.62259502
sS'GRADIENT CORRECTION ENERGY'
p7736
F-0.12363523
sS'KINETIC ENERGY'
p7737
F19.33250357
sS'TOTAL ENERGY'
p7738
F-4.46308184
sS'N-L PSEUDOPOTENTIAL ENERGY'
p7739
F19.92089168
ssg182
Fnan
sg183
g3
(g184
g5
Ntp7740
Rp7741
(dp7742
g188
I00
sg189
g190
(g191
g7741
g184
tp7743
Rp7744
sg194
I00
sg195
S'GEOMETRY FILE / created by CPMD\n'
p7745
sg197
g190
(g198
g7741
g184
tp7746
Rp7747
sg201
(dp7748
sg203
I0
sg204
I00
sg205
(lp7749
sg207
I00
sg208
I0
sg209
(lp7750
g10
ag10
asg211
(dp7751
sg213
I2
sg214
(lp7752
g216
ag3968
asg218
g219
(g220
(I0
tp7753
g222
tp7754
Rp7755
(I1
(I2
I3
tp7756
g229
I00
S'\x01\xf8d\r\x00\x00\x14@\x01\xf8d\r\x00\x00\x14@\x01\xf8d\r\x00\x00\x14@i\x98\xc8\xcd\xcc\xcc\x18@\x01\xf8d\r\x00\x00\x14@\x01\xf8d\r\x00\x00\x14@'
p7757
tp7758
bsg234
I00
sg235
g219
(g220
(I0
tp7759
g222
tp7760
Rp7761
(I1
(I2
tp7762
g229
I00
S'\x00\x00\x00\x00\x00\x00\xf0?\x00\x00\x00\x00\x00\x001@'
p7763
tp7764
bsg242
I00
sg11
S'H1Cl1'
p7765
sg244
I1
sg245
I00
sg246
g219
(g220
(I0
tp7766
g222
tp7767
Rp7768
(I1
(I1
I0
tp7769
g229
I00
g10
tp7770
bsbsg252
(dp7771
g254
(lp7772
I0
aI0
aI0
asg256
(lp7773
F0.75
aF0.75
aI0
asg258
(lp7774
F0.5
aF0.5
aF0.5
asg260
(lp7775
F0.1
aF0.25
aF0.25
asg262
(lp7776
I1
aF0.25
aI0
asg264
(lp7777
I1
aI0
aI0
assg266
S'hcl_prd12'
p7778
sg268
S'.out'
p7779
sg270
S'/home/samio/project/a02_alchemy_diatomic/reproduce/production_shifted_prds/hcl_prd12'
p7780
sg272
F-4.46308184
sg273
I1
sg274
g275
sbag3
(g4
g5
Ntp7781
Rp7782
(dp7783
g9
g10
sg11
S'hcl_prd13.out'
p7784
sg13
(dp7785
sg15
(dp7786
g17
(lp7787
(lp7788
g20
aS'2.210E-01'
p7789
aS'1.197E-02'
p7790
aS'-4.487167'
p7791
aS'0.000E+00'
p7792
aS'18.93\n'
p7793
aasS'ESR'
p7794
F0.11579492
sS'ELECTROSTATIC ENERGY'
p7795
F-15.17346509
sS'EXCHANGE-CORRELATION ENERGY'
p7796
F-4.87920705
sS'LOCAL PSEUDOPOTENTIAL ENERGY'
p7797
F-23.57432543
sS'ESELF'
p7798
F16.62259502
sS'GRADIENT CORRECTION ENERGY'
p7799
F-0.1237624
sS'KINETIC ENERGY'
p7800
F19.25697039
sS'TOTAL ENERGY'
p7801
F-4.48716747
sS'N-L PSEUDOPOTENTIAL ENERGY'
p7802
F19.88285972
ssg182
Fnan
sg183
g3
(g184
g5
Ntp7803
Rp7804
(dp7805
g188
I00
sg189
g190
(g191
g7804
g184
tp7806
Rp7807
sg194
I00
sg195
S'GEOMETRY FILE / created by CPMD\n'
p7808
sg197
g190
(g198
g7804
g184
tp7809
Rp7810
sg201
(dp7811
sg203
I0
sg204
I00
sg205
(lp7812
sg207
I00
sg208
I0
sg209
(lp7813
g10
ag10
asg211
(dp7814
sg213
I2
sg214
(lp7815
g216
ag3968
asg218
g219
(g220
(I0
tp7816
g222
tp7817
Rp7818
(I1
(I2
I3
tp7819
g229
I00
S'\x01\xf8d\r\x00\x00\x14@\x01\xf8d\r\x00\x00\x14@\x01\xf8d\r\x00\x00\x14@\x9a:\xf2A33\x19@\x01\xf8d\r\x00\x00\x14@\x01\xf8d\r\x00\x00\x14@'
p7820
tp7821
bsg234
I00
sg235
g219
(g220
(I0
tp7822
g222
tp7823
Rp7824
(I1
(I2
tp7825
g229
I00
S'\x00\x00\x00\x00\x00\x00\xf0?\x00\x00\x00\x00\x00\x001@'
p7826
tp7827
bsg242
I00
sg11
S'H1Cl1'
p7828
sg244
I1
sg245
I00
sg246
g219
(g220
(I0
tp7829
g222
tp7830
Rp7831
(I1
(I1
I0
tp7832
g229
I00
g10
tp7833
bsbsg252
(dp7834
g254
(lp7835
I0
aI0
aI0
asg256
(lp7836
F0.75
aF0.75
aI0
asg258
(lp7837
F0.5
aF0.5
aF0.5
asg260
(lp7838
F0.1
aF0.25
aF0.25
asg262
(lp7839
I1
aF0.25
aI0
asg264
(lp7840
I1
aI0
aI0
assg266
S'hcl_prd13'
p7841
sg268
S'.out'
p7842
sg270
S'/home/samio/project/a02_alchemy_diatomic/reproduce/production_shifted_prds/hcl_prd13'
p7843
sg272
F-4.48716747
sg273
I1
sg274
g275
sbag3
(g4
g5
Ntp7844
Rp7845
(dp7846
g9
g10
sg11
S'hcl_prd14.out'
p7847
sg13
(dp7848
sg15
(dp7849
g17
(lp7850
(lp7851
g20
aS'2.216E-01'
p7852
aS'1.196E-02'
p7853
aS'-4.495923'
p7854
aS'0.000E+00'
p7855
aS'19.16\n'
p7856
aasS'ESR'
p7857
F0.07269975
sS'ELECTROSTATIC ENERGY'
p7858
F-15.21831791
sS'EXCHANGE-CORRELATION ENERGY'
p7859
F-4.85881854
sS'LOCAL PSEUDOPOTENTIAL ENERGY'
p7860
F-23.48131358
sS'ESELF'
p7861
F16.62259502
sS'GRADIENT CORRECTION ENERGY'
p7862
F-0.1240824
sS'KINETIC ENERGY'
p7863
F19.20555864
sS'TOTAL ENERGY'
p7864
F-4.4959227
sS'N-L PSEUDOPOTENTIAL ENERGY'
p7865
F19.85696868
ssg182
Fnan
sg183
g3
(g184
g5
Ntp7866
Rp7867
(dp7868
g188
I00
sg189
g190
(g191
g7867
g184
tp7869
Rp7870
sg194
I00
sg195
S'GEOMETRY FILE / created by CPMD\n'
p7871
sg197
g190
(g198
g7867
g184
tp7872
Rp7873
sg201
(dp7874
sg203
I0
sg204
I00
sg205
(lp7875
sg207
I00
sg208
I0
sg209
(lp7876
g10
ag10
asg211
(dp7877
sg213
I2
sg214
(lp7878
g216
ag3968
asg218
g219
(g220
(I0
tp7879
g222
tp7880
Rp7881
(I1
(I2
I3
tp7882
g229
I00
S'\x01\xf8d\r\x00\x00\x14@\x01\xf8d\r\x00\x00\x14@\x01\xf8d\r\x00\x00\x14@\xd0\xaa\x98\x92\x99\x99\x19@\x01\xf8d\r\x00\x00\x14@\x01\xf8d\r\x00\x00\x14@'
p7883
tp7884
bsg234
I00
sg235
g219
(g220
(I0
tp7885
g222
tp7886
Rp7887
(I1
(I2
tp7888
g229
I00
S'\x00\x00\x00\x00\x00\x00\xf0?\x00\x00\x00\x00\x00\x001@'
p7889
tp7890
bsg242
I00
sg11
S'H1Cl1'
p7891
sg244
I1
sg245
I00
sg246
g219
(g220
(I0
tp7892
g222
tp7893
Rp7894
(I1
(I1
I0
tp7895
g229
I00
g10
tp7896
bsbsg252
(dp7897
g254
(lp7898
I0
aI0
aI0
asg256
(lp7899
F0.75
aF0.75
aI0
asg258
(lp7900
F0.5
aF0.5
aF0.5
asg260
(lp7901
F0.1
aF0.25
aF0.25
asg262
(lp7902
I1
aF0.25
aI0
asg264
(lp7903
I1
aI0
aI0
assg266
S'hcl_prd14'
p7904
sg268
S'.out'
p7905
sg270
S'/home/samio/project/a02_alchemy_diatomic/reproduce/production_shifted_prds/hcl_prd14'
p7906
sg272
F-4.4959227
sg273
I1
sg274
g275
sbag3
(g4
g5
Ntp7907
Rp7908
(dp7909
g9
g10
sg11
S'hcl_prd15.out'
p7910
sg13
(dp7911
sg15
(dp7912
g17
(lp7913
(lp7914
g20
aS'2.220E-01'
p7915
aS'1.195E-02'
p7916
aS'-4.495210'
p7917
aS'0.000E+00'
p7918
aS'19.70\n'
p7919
aasS'ESR'
p7920
F0.04486802
sS'ELECTROSTATIC ENERGY'
p7921
F-15.24728914
sS'EXCHANGE-CORRELATION ENERGY'
p7922
F-4.84217421
sS'LOCAL PSEUDOPOTENTIAL ENERGY'
p7923
F-23.41669243
sS'ESELF'
p7924
F16.62259502
sS'GRADIENT CORRECTION ENERGY'
p7925
F-0.12453015
sS'KINETIC ENERGY'
p7926
F19.17168037
sS'TOTAL ENERGY'
p7927
F-4.49520979
sS'N-L PSEUDOPOTENTIAL ENERGY'
p7928
F19.83926563
ssg182
Fnan
sg183
g3
(g184
g5
Ntp7929
Rp7930
(dp7931
g188
I00
sg189
g190
(g191
g7930
g184
tp7932
Rp7933
sg194
I00
sg195
S'GEOMETRY FILE / created by CPMD\n'
p7934
sg197
g190
(g198
g7930
g184
tp7935
Rp7936
sg201
(dp7937
sg203
I0
sg204
I00
sg205
(lp7938
sg207
I00
sg208
I0
sg209
(lp7939
g10
ag10
asg211
(dp7940
sg213
I2
sg214
(lp7941
g216
ag3968
asg218
g219
(g220
(I0
tp7942
g222
tp7943
Rp7944
(I1
(I2
I3
tp7945
g229
I00
S'\x01\xf8d\r\x00\x00\x14@\x01\xf8d\r\x00\x00\x14@\x01\xf8d\r\x00\x00\x14@\x02M\xc2\x06\x00\x00\x1a@\x01\xf8d\r\x00\x00\x14@\x01\xf8d\r\x00\x00\x14@'
p7946
tp7947
bsg234
I00
sg235
g219
(g220
(I0
tp7948
g222
tp7949
Rp7950
(I1
(I2
tp7951
g229
I00
S'\x00\x00\x00\x00\x00\x00\xf0?\x00\x00\x00\x00\x00\x001@'
p7952
tp7953
bsg242
I00
sg11
S'H1Cl1'
p7954
sg244
I1
sg245
I00
sg246
g219
(g220
(I0
tp7955
g222
tp7956
Rp7957
(I1
(I1
I0
tp7958
g229
I00
g10
tp7959
bsbsg252
(dp7960
g254
(lp7961
I0
aI0
aI0
asg256
(lp7962
F0.75
aF0.75
aI0
asg258
(lp7963
F0.5
aF0.5
aF0.5
asg260
(lp7964
F0.1
aF0.25
aF0.25
asg262
(lp7965
I1
aF0.25
aI0
asg264
(lp7966
I1
aI0
aI0
assg266
S'hcl_prd15'
p7967
sg268
S'.out'
p7968
sg270
S'/home/samio/project/a02_alchemy_diatomic/reproduce/production_shifted_prds/hcl_prd15'
p7969
sg272
F-4.49520979
sg273
I1
sg274
g275
sbag3
(g4
g5
Ntp7970
Rp7971
(dp7972
g9
g10
sg11
S'hcl_prd16.out'
p7973
sg13
(dp7974
sg15
(dp7975
g17
(lp7976
(lp7977
g20
aS'2.223E-01'
p7978
aS'1.195E-02'
p7979
aS'-4.488778'
p7980
aS'0.000E+00'
p7981
aS'20.13\n'
p7982
aasS'ESR'
p7983
F0.02719761
sS'ELECTROSTATIC ENERGY'
p7984
F-15.26587038
sS'EXCHANGE-CORRELATION ENERGY'
p7985
F-4.82857709
sS'LOCAL PSEUDOPOTENTIAL ENERGY'
p7986
F-23.37221556
sS'ESELF'
p7987
F16.62259502
sS'GRADIENT CORRECTION ENERGY'
p7988
F-0.12505794
sS'KINETIC ENERGY'
p7989
F19.15064194
sS'TOTAL ENERGY'
p7990
F-4.48877801
sS'N-L PSEUDOPOTENTIAL ENERGY'
p7991
F19.8272431
ssg182
Fnan
sg183
g3
(g184
g5
Ntp7992
Rp7993
(dp7994
g188
I00
sg189
g190
(g191
g7993
g184
tp7995
Rp7996
sg194
I00
sg195
S'GEOMETRY FILE / created by CPMD\n'
p7997
sg197
g190
(g198
g7993
g184
tp7998
Rp7999
sg201
(dp8000
sg203
I0
sg204
I00
sg205
(lp8001
sg207
I00
sg208
I0
sg209
(lp8002
g10
ag10
asg211
(dp8003
sg213
I2
sg214
(lp8004
g216
ag3968
asg218
g219
(g220
(I0
tp8005
g222
tp8006
Rp8007
(I1
(I2
I3
tp8008
g229
I00
S'\x01\xf8d\r\x00\x00\x14@\x01\xf8d\r\x00\x00\x14@\x01\xf8d\r\x00\x00\x14@7\xbdhWff\x1a@\x01\xf8d\r\x00\x00\x14@\x01\xf8d\r\x00\x00\x14@'
p8009
tp8010
bsg234
I00
sg235
g219
(g220
(I0
tp8011
g222
tp8012
Rp8013
(I1
(I2
tp8014
g229
I00
S'\x00\x00\x00\x00\x00\x00\xf0?\x00\x00\x00\x00\x00\x001@'
p8015
tp8016
bsg242
I00
sg11
S'H1Cl1'
p8017
sg244
I1
sg245
I00
sg246
g219
(g220
(I0
tp8018
g222
tp8019
Rp8020
(I1
(I1
I0
tp8021
g229
I00
g10
tp8022
bsbsg252
(dp8023
g254
(lp8024
I0
aI0
aI0
asg256
(lp8025
F0.75
aF0.75
aI0
asg258
(lp8026
F0.5
aF0.5
aF0.5
asg260
(lp8027
F0.1
aF0.25
aF0.25
asg262
(lp8028
I1
aF0.25
aI0
asg264
(lp8029
I1
aI0
aI0
assg266
S'hcl_prd16'
p8030
sg268
S'.out'
p8031
sg270
S'/home/samio/project/a02_alchemy_diatomic/reproduce/production_shifted_prds/hcl_prd16'
p8032
sg272
F-4.48877801
sg273
I1
sg274
g275
sbag3
(g4
g5
Ntp8033
Rp8034
(dp8035
g9
g10
sg11
S'hcl_prd17.out'
p8036
sg13
(dp8037
sg15
(dp8038
g17
(lp8039
(lp8040
g20
aS'2.223E-01'
p8041
aS'1.194E-02'
p8042
aS'-4.478982'
p8043
aS'0.000E+00'
p8044
aS'18.69\n'
p8045
aasS'ESR'
p8046
F0.01618095
sS'ELECTROSTATIC ENERGY'
p8047
F-15.27768338
sS'EXCHANGE-CORRELATION ENERGY'
p8048
F-4.81750545
sS'LOCAL PSEUDOPOTENTIAL ENERGY'
p8049
F-23.34203972
sS'ESELF'
p8050
F16.62259502
sS'GRADIENT CORRECTION ENERGY'
p8051
F-0.12564189
sS'KINETIC ENERGY'
p8052
F19.13900369
sS'TOTAL ENERGY'
p8053
F-4.47898181
sS'N-L PSEUDOPOTENTIAL ENERGY'
p8054
F19.81924306
ssg182
Fnan
sg183
g3
(g184
g5
Ntp8055
Rp8056
(dp8057
g188
I00
sg189
g190
(g191
g8056
g184
tp8058
Rp8059
sg194
I00
sg195
S'GEOMETRY FILE / created by CPMD\n'
p8060
sg197
g190
(g198
g8056
g184
tp8061
Rp8062
sg201
(dp8063
sg203
I0
sg204
I00
sg205
(lp8064
sg207
I00
sg208
I0
sg209
(lp8065
g10
ag10
asg211
(dp8066
sg213
I2
sg214
(lp8067
g216
ag3968
asg218
g219
(g220
(I0
tp8068
g222
tp8069
Rp8070
(I1
(I2
I3
tp8071
g229
I00
S'\x01\xf8d\r\x00\x00\x14@\x01\xf8d\r\x00\x00\x14@\x01\xf8d\r\x00\x00\x14@i_\x92\xcb\xcc\xcc\x1a@\x01\xf8d\r\x00\x00\x14@\x01\xf8d\r\x00\x00\x14@'
p8072
tp8073
bsg234
I00
sg235
g219
(g220
(I0
tp8074
g222
tp8075
Rp8076
(I1
(I2
tp8077
g229
I00
S'\x00\x00\x00\x00\x00\x00\xf0?\x00\x00\x00\x00\x00\x001@'
p8078
tp8079
bsg242
I00
sg11
S'H1Cl1'
p8080
sg244
I1
sg245
I00
sg246
g219
(g220
(I0
tp8081
g222
tp8082
Rp8083
(I1
(I1
I0
tp8084
g229
I00
g10
tp8085
bsbsg252
(dp8086
g254
(lp8087
I0
aI0
aI0
asg256
(lp8088
F0.75
aF0.75
aI0
asg258
(lp8089
F0.5
aF0.5
aF0.5
asg260
(lp8090
F0.1
aF0.25
aF0.25
asg262
(lp8091
I1
aF0.25
aI0
asg264
(lp8092
I1
aI0
aI0
assg266
S'hcl_prd17'
p8093
sg268
S'.out'
p8094
sg270
S'/home/samio/project/a02_alchemy_diatomic/reproduce/production_shifted_prds/hcl_prd17'
p8095
sg272
F-4.47898181
sg273
I1
sg274
g275
sbag3
(g4
g5
Ntp8096
Rp8097
(dp8098
g9
g10
sg11
S'hcl_prd18.out'
p8099
sg13
(dp8100
sg15
(dp8101
g17
(lp8102
(lp8103
g20
aS'2.223E-01'
p8104
aS'1.194E-02'
p8105
aS'-4.467262'
p8106
aS'0.000E+00'
p8107
aS'18.53\n'
p8108
aasS'ESR'
p8109
F0.00944265
sS'ELECTROSTATIC ENERGY'
p8110
F-15.28510315
sS'EXCHANGE-CORRELATION ENERGY'
p8111
F-4.80856024
sS'LOCAL PSEUDOPOTENTIAL ENERGY'
p8112
F-23.32227146
sS'ESELF'
p8113
F16.62259502
sS'GRADIENT CORRECTION ENERGY'
p8114
F-0.1262661
sS'KINETIC ENERGY'
p8115
F19.13448683
sS'TOTAL ENERGY'
p8116
F-4.46726174
sS'N-L PSEUDOPOTENTIAL ENERGY'
p8117
F19.81418627
ssg182
Fnan
sg183
g3
(g184
g5
Ntp8118
Rp8119
(dp8120
g188
I00
sg189
g190
(g191
g8119
g184
tp8121
Rp8122
sg194
I00
sg195
S'GEOMETRY FILE / created by CPMD\n'
p8123
sg197
g190
(g198
g8119
g184
tp8124
Rp8125
sg201
(dp8126
sg203
I0
sg204
I00
sg205
(lp8127
sg207
I00
sg208
I0
sg209
(lp8128
g10
ag10
asg211
(dp8129
sg213
I2
sg214
(lp8130
g216
ag3968
asg218
g219
(g220
(I0
tp8131
g222
tp8132
Rp8133
(I1
(I2
I3
tp8134
g229
I00
S'\x01\xf8d\r\x00\x00\x14@\x01\xf8d\r\x00\x00\x14@\x01\xf8d\r\x00\x00\x14@\x9b\x01\xbc?33\x1b@\x01\xf8d\r\x00\x00\x14@\x01\xf8d\r\x00\x00\x14@'
p8135
tp8136
bsg234
I00
sg235
g219
(g220
(I0
tp8137
g222
tp8138
Rp8139
(I1
(I2
tp8140
g229
I00
S'\x00\x00\x00\x00\x00\x00\xf0?\x00\x00\x00\x00\x00\x001@'
p8141
tp8142
bsg242
I00
sg11
S'H1Cl1'
p8143
sg244
I1
sg245
I00
sg246
g219
(g220
(I0
tp8144
g222
tp8145
Rp8146
(I1
(I1
I0
tp8147
g229
I00
g10
tp8148
bsbsg252
(dp8149
g254
(lp8150
I0
aI0
aI0
asg256
(lp8151
F0.75
aF0.75
aI0
asg258
(lp8152
F0.5
aF0.5
aF0.5
asg260
(lp8153
F0.1
aF0.25
aF0.25
asg262
(lp8154
I1
aF0.25
aI0
asg264
(lp8155
I1
aI0
aI0
assg266
S'hcl_prd18'
p8156
sg268
S'.out'
p8157
sg270
S'/home/samio/project/a02_alchemy_diatomic/reproduce/production_shifted_prds/hcl_prd18'
p8158
sg272
F-4.46726174
sg273
I1
sg274
g275
sbag3
(g4
g5
Ntp8159
Rp8160
(dp8161
g9
g10
sg11
S'hcl_prd19.out'
p8162
sg13
(dp8163
sg15
(dp8164
g17
(lp8165
(lp8166
g20
aS'2.221E-01'
p8167
aS'1.194E-02'
p8168
aS'-4.454688'
p8169
aS'0.000E+00'
p8170
aS'20.03\n'
p8171
aasS'ESR'
p8172
F0.00540226
sS'ELECTROSTATIC ENERGY'
p8173
F-15.28970369
sS'EXCHANGE-CORRELATION ENERGY'
p8174
F-4.80139078
sS'LOCAL PSEUDOPOTENTIAL ENERGY'
p8175
F-23.30991776
sS'ESELF'
p8176
F16.62259502
sS'GRADIENT CORRECTION ENERGY'
p8177
F-0.12691143
sS'KINETIC ENERGY'
p8178
F19.13507138
sS'TOTAL ENERGY'
p8179
F-4.45468801
sS'N-L PSEUDOPOTENTIAL ENERGY'
p8180
F19.81125283
ssg182
Fnan
sg183
g3
(g184
g5
Ntp8181
Rp8182
(dp8183
g188
I00
sg189
g190
(g191
g8182
g184
tp8184
Rp8185
sg194
I00
sg195
S'GEOMETRY FILE / created by CPMD\n'
p8186
sg197
g190
(g198
g8182
g184
tp8187
Rp8188
sg201
(dp8189
sg203
I0
sg204
I00
sg205
(lp8190
sg207
I00
sg208
I0
sg209
(lp8191
g10
ag10
asg211
(dp8192
sg213
I2
sg214
(lp8193
g216
ag3968
asg218
g219
(g220
(I0
tp8194
g222
tp8195
Rp8196
(I1
(I2
I3
tp8197
g229
I00
S'\x01\xf8d\r\x00\x00\x14@\x01\xf8d\r\x00\x00\x14@\x01\xf8d\r\x00\x00\x14@\xd1qb\x90\x99\x99\x1b@\x01\xf8d\r\x00\x00\x14@\x01\xf8d\r\x00\x00\x14@'
p8198
tp8199
bsg234
I00
sg235
g219
(g220
(I0
tp8200
g222
tp8201
Rp8202
(I1
(I2
tp8203
g229
I00
S'\x00\x00\x00\x00\x00\x00\xf0?\x00\x00\x00\x00\x00\x001@'
p8204
tp8205
bsg242
I00
sg11
S'H1Cl1'
p8206
sg244
I1
sg245
I00
sg246
g219
(g220
(I0
tp8207
g222
tp8208
Rp8209
(I1
(I1
I0
tp8210
g229
I00
g10
tp8211
bsbsg252
(dp8212
g254
(lp8213
I0
aI0
aI0
asg256
(lp8214
F0.75
aF0.75
aI0
asg258
(lp8215
F0.5
aF0.5
aF0.5
asg260
(lp8216
F0.1
aF0.25
aF0.25
asg262
(lp8217
I1
aF0.25
aI0
asg264
(lp8218
I1
aI0
aI0
assg266
S'hcl_prd19'
p8219
sg268
S'.out'
p8220
sg270
S'/home/samio/project/a02_alchemy_diatomic/reproduce/production_shifted_prds/hcl_prd19'
p8221
sg272
F-4.45468801
sg273
I1
sg274
g275
sbag3
(g4
g5
Ntp8222
Rp8223
(dp8224
g9
g10
sg11
S'hcl_prd20.out'
p8225
sg13
(dp8226
sg15
(dp8227
g17
(lp8228
(lp8229
g20
aS'2.219E-01'
p8230
aS'1.194E-02'
p8231
aS'-4.442021'
p8232
aS'0.000E+00'
p8233
aS'18.89\n'
p8234
aasS'ESR'
p8235
F0.00302869
sS'ELECTROSTATIC ENERGY'
p8236
F-15.29253836
sS'EXCHANGE-CORRELATION ENERGY'
p8237
F-4.7956911
sS'LOCAL PSEUDOPOTENTIAL ENERGY'
p8238
F-23.30284138
sS'ESELF'
p8239
F16.62259502
sS'GRADIENT CORRECTION ENERGY'
p8240
F-0.12755515
sS'KINETIC ENERGY'
p8241
F19.13923806
sS'TOTAL ENERGY'
p8242
F-4.44202067
sS'N-L PSEUDOPOTENTIAL ENERGY'
p8243
F19.80981211
ssg182
Fnan
sg183
g3
(g184
g5
Ntp8244
Rp8245
(dp8246
g188
I00
sg189
g190
(g191
g8245
g184
tp8247
Rp8248
sg194
I00
sg195
S'GEOMETRY FILE / created by CPMD\n'
p8249
sg197
g190
(g198
g8245
g184
tp8250
Rp8251
sg201
(dp8252
sg203
I0
sg204
I00
sg205
(lp8253
sg207
I00
sg208
I0
sg209
(lp8254
g10
ag10
asg211
(dp8255
sg213
I2
sg214
(lp8256
g216
ag3968
asg218
g219
(g220
(I0
tp8257
g222
tp8258
Rp8259
(I1
(I2
I3
tp8260
g229
I00
S'\x01\xf8d\r\x00\x00\x14@\x01\xf8d\r\x00\x00\x14@\x01\xf8d\r\x00\x00\x14@\x02\x14\x8c\x04\x00\x00\x1c@\x01\xf8d\r\x00\x00\x14@\x01\xf8d\r\x00\x00\x14@'
p8261
tp8262
bsg234
I00
sg235
g219
(g220
(I0
tp8263
g222
tp8264
Rp8265
(I1
(I2
tp8266
g229
I00
S'\x00\x00\x00\x00\x00\x00\xf0?\x00\x00\x00\x00\x00\x001@'
p8267
tp8268
bsg242
I00
sg11
S'H1Cl1'
p8269
sg244
I1
sg245
I00
sg246
g219
(g220
(I0
tp8270
g222
tp8271
Rp8272
(I1
(I1
I0
tp8273
g229
I00
g10
tp8274
bsbsg252
(dp8275
g254
(lp8276
I0
aI0
aI0
asg256
(lp8277
F0.75
aF0.75
aI0
asg258
(lp8278
F0.5
aF0.5
aF0.5
asg260
(lp8279
F0.1
aF0.25
aF0.25
asg262
(lp8280
I1
aF0.25
aI0
asg264
(lp8281
I1
aI0
aI0
assg266
S'hcl_prd20'
p8282
sg268
S'.out'
p8283
sg270
S'/home/samio/project/a02_alchemy_diatomic/reproduce/production_shifted_prds/hcl_prd20'
p8284
sg272
F-4.44202067
sg273
I1
sg274
g275
sbag3
(g4
g5
Ntp8285
Rp8286
(dp8287
g9
g10
sg11
S'hcl_prd21.out'
p8288
sg13
(dp8289
sg15
(dp8290
g17
(lp8291
(lp8292
g20
aS'2.217E-01'
p8293
aS'1.194E-02'
p8294
aS'-4.429791'
p8295
aS'0.000E+00'
p8296
aS'18.94\n'
p8297
aasS'ESR'
p8298
F0.00166327
sS'ELECTROSTATIC ENERGY'
p8299
F-15.2942892
sS'EXCHANGE-CORRELATION ENERGY'
p8300
F-4.79120195
sS'LOCAL PSEUDOPOTENTIAL ENERGY'
p8301
F-23.29945357
sS'ESELF'
p8302
F16.62259502
sS'GRADIENT CORRECTION ENERGY'
p8303
F-0.12817978
sS'KINETIC ENERGY'
p8304
F19.14572819
sS'TOTAL ENERGY'
p8305
F-4.42979093
sS'N-L PSEUDOPOTENTIAL ENERGY'
p8306
F19.8094256
ssg182
Fnan
sg183
g3
(g184
g5
Ntp8307
Rp8308
(dp8309
g188
I00
sg189
g190
(g191
g8308
g184
tp8310
Rp8311
sg194
I00
sg195
S'GEOMETRY FILE / created by CPMD\n'
p8312
sg197
g190
(g198
g8308
g184
tp8313
Rp8314
sg201
(dp8315
sg203
I0
sg204
I00
sg205
(lp8316
sg207
I00
sg208
I0
sg209
(lp8317
g10
ag10
asg211
(dp8318
sg213
I2
sg214
(lp8319
g216
ag3968
asg218
g219
(g220
(I0
tp8320
g222
tp8321
Rp8322
(I1
(I2
I3
tp8323
g229
I00
S'\x01\xf8d\r\x00\x00\x14@\x01\xf8d\r\x00\x00\x14@\x01\xf8d\r\x00\x00\x14@7\x842Uff\x1c@\x01\xf8d\r\x00\x00\x14@\x01\xf8d\r\x00\x00\x14@'
p8324
tp8325
bsg234
I00
sg235
g219
(g220
(I0
tp8326
g222
tp8327
Rp8328
(I1
(I2
tp8329
g229
I00
S'\x00\x00\x00\x00\x00\x00\xf0?\x00\x00\x00\x00\x00\x001@'
p8330
tp8331
bsg242
I00
sg11
S'H1Cl1'
p8332
sg244
I1
sg245
I00
sg246
g219
(g220
(I0
tp8333
g222
tp8334
Rp8335
(I1
(I1
I0
tp8336
g229
I00
g10
tp8337
bsbsg252
(dp8338
g254
(lp8339
I0
aI0
aI0
asg256
(lp8340
F0.75
aF0.75
aI0
asg258
(lp8341
F0.5
aF0.5
aF0.5
asg260
(lp8342
F0.1
aF0.25
aF0.25
asg262
(lp8343
I1
aF0.25
aI0
asg264
(lp8344
I1
aI0
aI0
assg266
S'hcl_prd21'
p8345
sg268
S'.out'
p8346
sg270
S'/home/samio/project/a02_alchemy_diatomic/reproduce/production_shifted_prds/hcl_prd21'
p8347
sg272
F-4.42979093
sg273
I1
sg274
g275
sbag3
(g4
g5
Ntp8348
Rp8349
(dp8350
g9
g10
sg11
S'hcl_prd22.out'
p8351
sg13
(dp8352
sg15
(dp8353
g17
(lp8354
(lp8355
g20
aS'2.214E-01'
p8356
aS'1.194E-02'
p8357
aS'-4.418202'
p8358
aS'0.000E+00'
p8359
aS'19.25\n'
p8360
aasS'ESR'
p8361
F0.00089444
sS'ELECTROSTATIC ENERGY'
p8362
F-15.29535701
sS'EXCHANGE-CORRELATION ENERGY'
p8363
F-4.78773626
sS'LOCAL PSEUDOPOTENTIAL ENERGY'
p8364
F-23.29868617
sS'ESELF'
p8365
F16.62259502
sS'GRADIENT CORRECTION ENERGY'
p8366
F-0.12878224
sS'KINETIC ENERGY'
p8367
F19.15380257
sS'TOTAL ENERGY'
p8368
F-4.41820172
sS'N-L PSEUDOPOTENTIAL ENERGY'
p8369
F19.80977516
ssg182
Fnan
sg183
g3
(g184
g5
Ntp8370
Rp8371
(dp8372
g188
I00
sg189
g190
(g191
g8371
g184
tp8373
Rp8374
sg194
I00
sg195
S'GEOMETRY FILE / created by CPMD\n'
p8375
sg197
g190
(g198
g8371
g184
tp8376
Rp8377
sg201
(dp8378
sg203
I0
sg204
I00
sg205
(lp8379
sg207
I00
sg208
I0
sg209
(lp8380
g10
ag10
asg211
(dp8381
sg213
I2
sg214
(lp8382
g216
ag3968
asg218
g219
(g220
(I0
tp8383
g222
tp8384
Rp8385
(I1
(I2
I3
tp8386
g229
I00
S'\x01\xf8d\r\x00\x00\x14@\x01\xf8d\r\x00\x00\x14@\x01\xf8d\r\x00\x00\x14@j&\\\xc9\xcc\xcc\x1c@\x01\xf8d\r\x00\x00\x14@\x01\xf8d\r\x00\x00\x14@'
p8387
tp8388
bsg234
I00
sg235
g219
(g220
(I0
tp8389
g222
tp8390
Rp8391
(I1
(I2
tp8392
g229
I00
S'\x00\x00\x00\x00\x00\x00\xf0?\x00\x00\x00\x00\x00\x001@'
p8393
tp8394
bsg242
I00
sg11
S'H1Cl1'
p8395
sg244
I1
sg245
I00
sg246
g219
(g220
(I0
tp8396
g222
tp8397
Rp8398
(I1
(I1
I0
tp8399
g229
I00
g10
tp8400
bsbsg252
(dp8401
g254
(lp8402
I0
aI0
aI0
asg256
(lp8403
F0.75
aF0.75
aI0
asg258
(lp8404
F0.5
aF0.5
aF0.5
asg260
(lp8405
F0.1
aF0.25
aF0.25
asg262
(lp8406
I1
aF0.25
aI0
asg264
(lp8407
I1
aI0
aI0
assg266
S'hcl_prd22'
p8408
sg268
S'.out'
p8409
sg270
S'/home/samio/project/a02_alchemy_diatomic/reproduce/production_shifted_prds/hcl_prd22'
p8410
sg272
F-4.41820172
sg273
I1
sg274
g275
sbag3
(g4
g5
Ntp8411
Rp8412
(dp8413
g9
g10
sg11
S'hcl_prd23.out'
p8414
sg13
(dp8415
sg15
(dp8416
g17
(lp8417
(lp8418
g20
aS'2.213E-01'
p8419
aS'1.194E-02'
p8420
aS'-4.407303'
p8421
aS'0.000E+00'
p8422
aS'18.69\n'
p8423
aasS'ESR'
p8424
F0.00047086
sS'ELECTROSTATIC ENERGY'
p8425
F-15.29598144
sS'EXCHANGE-CORRELATION ENERGY'
p8426
F-4.78514479
sS'LOCAL PSEUDOPOTENTIAL ENERGY'
p8427
F-23.29987035
sS'ESELF'
p8428
F16.62259502
sS'GRADIENT CORRECTION ENERGY'
p8429
F-0.12936319
sS'KINETIC ENERGY'
p8430
F19.16302466
sS'TOTAL ENERGY'
p8431
F-4.40730275
sS'N-L PSEUDOPOTENTIAL ENERGY'
p8432
F19.81066917
ssg182
Fnan
sg183
g3
(g184
g5
Ntp8433
Rp8434
(dp8435
g188
I00
sg189
g190
(g191
g8434
g184
tp8436
Rp8437
sg194
I00
sg195
S'GEOMETRY FILE / created by CPMD\n'
p8438
sg197
g190
(g198
g8434
g184
tp8439
Rp8440
sg201
(dp8441
sg203
I0
sg204
I00
sg205
(lp8442
sg207
I00
sg208
I0
sg209
(lp8443
g10
ag10
asg211
(dp8444
sg213
I2
sg214
(lp8445
g216
ag3968
asg218
g219
(g220
(I0
tp8446
g222
tp8447
Rp8448
(I1
(I2
I3
tp8449
g229
I00
S'\x01\xf8d\r\x00\x00\x14@\x01\xf8d\r\x00\x00\x14@\x01\xf8d\r\x00\x00\x14@\x9b\xc8\x85=33\x1d@\x01\xf8d\r\x00\x00\x14@\x01\xf8d\r\x00\x00\x14@'
p8450
tp8451
bsg234
I00
sg235
g219
(g220
(I0
tp8452
g222
tp8453
Rp8454
(I1
(I2
tp8455
g229
I00
S'\x00\x00\x00\x00\x00\x00\xf0?\x00\x00\x00\x00\x00\x001@'
p8456
tp8457
bsg242
I00
sg11
S'H1Cl1'
p8458
sg244
I1
sg245
I00
sg246
g219
(g220
(I0
tp8459
g222
tp8460
Rp8461
(I1
(I1
I0
tp8462
g229
I00
g10
tp8463
bsbsg252
(dp8464
g254
(lp8465
I0
aI0
aI0
asg256
(lp8466
F0.75
aF0.75
aI0
asg258
(lp8467
F0.5
aF0.5
aF0.5
asg260
(lp8468
F0.1
aF0.25
aF0.25
asg262
(lp8469
I1
aF0.25
aI0
asg264
(lp8470
I1
aI0
aI0
assg266
S'hcl_prd23'
p8471
sg268
S'.out'
p8472
sg270
S'/home/samio/project/a02_alchemy_diatomic/reproduce/production_shifted_prds/hcl_prd23'
p8473
sg272
F-4.40730275
sg273
I1
sg274
g275
sbaaag219
(g220
(I0
tp8474
g222
tp8475
Rp8476
(I1
(I19
tp8477
g229
I00
S'\x01\xbf.\x0b\x00\x00\x16@6/\xd5[ff\x16@i\xd1\xfe\xcf\xcc\xcc\x16@\x9as(D33\x17@\xcf\xe3\xce\x94\x99\x99\x17@\x02\x86\xf8\x08\x00\x00\x18@7\xf6\x9eYff\x18@i\x98\xc8\xcd\xcc\xcc\x18@\x9a:\xf2A33\x19@\xd0\xaa\x98\x92\x99\x99\x19@\x02M\xc2\x06\x00\x00\x1a@7\xbdhWff\x1a@i_\x92\xcb\xcc\xcc\x1a@\x9b\x01\xbc?33\x1b@\xd1qb\x90\x99\x99\x1b@\x02\x14\x8c\x04\x00\x00\x1c@7\x842Uff\x1c@j&\\\xc9\xcc\xcc\x1c@\x9b\xc8\x85=33\x1d@'
p8478
tp8479
ba(lp8480
g219
(g220
(I0
tp8481
g222
tp8482
Rp8483
(I1
(I19
tp8484
g229
I00
S'\\\x0f\x91`\xcb\x1e8\xc0u\xbbn|\xb3\x888\xc0%=\xca\x90|\xb88\xc0g\xe6\xd1\xa6M\xcc8\xc0\x8b\xe6\\\xe5d\xd28\xc0*X>&\xad\xd18\xc0=\xf4\x17Y\xb6\xcd8\xc0w\xcb@+Q\xc88\xc0;Hx\x10u\xc28\xc0\xcb`1\x8f\xa1\xbc8\xc0+\xdd\x9f\x83\x15\xb78\xc0\x9c=\x86}\xf1\xb18\xc0\xc7\r\x01\xb8@\xad8\xc0a\xff3R\x08\xa98\xc0\xc0j\xd9\x18C\xa58\xc0\xd0\x19([\xea\xa18\xc0\xc4d\xc3\xfd\xf4\x9e8\xc01\xb8bVZ\x9c8\xc0\xb50\xd1A\x13\x9a8\xc0'
p8485
tp8486
bag219
(g220
(I0
tp8487
g222
tp8488
Rp8489
(I1
(I19
tp8490
g229
I00
S'/\xc5\xf2:$\x8f*\xc0,%.t\xe3\x95,\xc0\xed\x04\xc1\x04\xea\xc0-\xc0\xa1f\xab?\x80l.\xc0b\x8e\xb3#\xb4\xcd.\xc0^\x87\xe6\x11\x0e\x03/\xc0\x17KO`S\x1e/\xc0\xd2\xecp*\x08*/\xc0\xef\x8f\x18\xb9~,/\xc0uB\x85v\x90)/\xc0\xf2\x08,\x88\x9a#/\xc0\xdf\x9b\x11k\x12\x1c/\xc0)Xg\xa5\xde\x13/\xc0\xb2x\xb9\xa1\x8c\x0b/\xc0\xba\xa3\xde\xd7q\x03/\xc0\xdf\x84\xc6<\xc0\xfb.\xc0[@G/\x93\xf4.\xc0@\x1e\x13\x8c\xf7\xed.\xc0C\xd6\x85\xe5\xf0\xe7.\xc0'
p8491
tp8492
bag219
(g220
(I0
tp8493
g222
tp8494
Rp8495
(I1
(I19
tp8496
g229
I00
S">yy\xb6\x1e\xe0\xf9\xbf\xcd\xbf\xa7\x83\x06d\x06\xc0?\x9a=\x12'\x06\x0c\xc0\xce\x17Z!\xd5e\x0f\xc0\xb1\xe4C\xb3_\xb5\x10\xc0\xf2L`!\x10O\x11\xc0\xcc\x9e\x1d\xd3\x87\xa8\x11\xc0\x9f\xaf8 2\xda\x11\xc0\xddL}\x07\xdc\xf2\x11\xc0G`\x07)\xd3\xfb\x11\xc0\x0b\xd6rF\x18\xfb\x11\xc0\xdb\xd0\xff8\x82\xf4\x11\xc0\xc7P%5z\xea\x11\xc0b\xe3\x8f\xdcy\xde\x11\xc0RU\xd3\xbb\x99\xd1\x11\xc0Z9\x07\x11\xa1\xc4\x11\xc0\xa5\xde\x11\x1d\x1b\xb8\x11\xc0\xb1\x1fZ\x12=\xac\x11\xc0\x91H\xdb\xf8\x13\xa1\x11\xc0"
p8497
tp8498
baa(lp8499
g219
(g220
(I0
tp8500
g222
tp8501
Rp8502
(I1
(I19
tp8503
g229
I00
S"\xe0\xe5z\x990s\xe6?\x80\xc5\x8a;Zl\xd2?\x00f\xa9\x92T\xe8\xb9?\x00\x90\x00,\xfa\\\x98?\x00\x00\x00\x00\x00\x00\x00\x00\x00 \xcc\xd1\xe3\xf7f?\x008\xc9\x131\xba\x92?\x00(68t'\xa4?\x00\xa0<\xc9\xa9\xdf\xaf?\x00\xc0\x85+V\xc3\xb5?\x00`\t\xbdaO\xbb?\x80wT\xeb\xb39\xc0?\x00b\xec\xad\x16\x92\xc2?\x00\x95s\x94I\xae\xc4?\x80\xe5\xbdA\xe6\x90\xc6?\x80]f\x1aE=\xc8?\x80\xe3\xc0\xcc\xf3\xb7\xc9?\x00-\x17}G\x05\xcb?\x00\xeb\xda\xc5\xd1(\xcc?"
p8504
tp8505
bag219
(g220
(I0
tp8506
g222
tp8507
Rp8508
(I1
(I19
tp8509
g229
I00
S"\x00+\x97\xf8iu\x02@\x18VS'\xda\xb4\xf4? \xb0xEK\xb9\xe6?\xc0)\xa5-\xcf\xff\xd7?@c@Y\xa5\xb2\xc7?\x80H\x04\x99S\xb8\xb4?\x00\xb0\x89\x92\xb1V\x9c?\x00\xe8\x18=u\xb4s?\x00\x00\x00\x00\x00\x00\x00\x00\x00\xd0k\x9a\x14rw?\x00\xfa\r\xd9a\xc8\x91?\x00\x10\xf4\x06Nl\xa0?\x00\xc67\xb1\x13\xa0\xa8?\x80\x9e\x8b\xaf\x0by\xb0?\x80\x1a\xf6\x9cp\x86\xb4?\x00\x88\x05)>_\xb8?\x00\xca\xa7\xe8\xc4\xf5\xbb?\x80\xd7\xb8\x82\x96C\xbf?\x00k\xae\xe4t#\xc1?"
p8510
tp8511
bag219
(g220
(I0
tp8512
g222
tp8513
Rp8514
(I1
(I19
tp8515
g229
I00
S"\xef\x03\xd2\xf6\x96\x07\x07@\x82\x01\xce\x9c?'\xfb?<\x99D\xff\xfc\xc5\xef?\x00\xa3\xd2\xc2DG\xe2?`\xb97\\7g\xd4?\xa0j\xe2\xf4`\x98\xc5?\xc0^pz\xd5\xd2\xb4?\x00TXg\x84\xd0\xa0?\x00\xd4&\x14C\xee\x81?\x00\x00\x00\x00\x00\x00\x00\x00\x00\x80G\x91R\\G?\x00\xb0=\x1e\xc0C}?\x00\x80\x0f\xe2\xf3X\x91?\x00\xe5|wLY\x9d?\x80z\x05\x9a\xb6\x1c\xa5?\x80v\x13\x00\x0c\x99\xab?\x80h`\xfd\x02\xee\xb0?\x80%P\xab\x85\xe5\xb3?\x80\xed\x05\x0b\xcc\xaf\xb6?"
p8516
tp8517
baa.